
kernel.elf:     format de fichier elf32-i386


Déassemblage de la section .mbh :

00300000 <mbh>:
  300000:	02 b0 ad 1b 03 00    	add    0x31bad(%eax),%dh
  300006:	00 00                	add    %al,(%eax)
  300008:	fb                   	sti    
  300009:	4f                   	dec    %edi
  30000a:	52                   	push   %edx
  30000b:	e4                   	.byte 0xe4

Déassemblage de la section .stack :

00300010 <__kernel_start__-0x2000>:
	...

Déassemblage de la section .idt_jmp :

00302010 <idt_trampoline>:
  302010:	6a ff                	push   $0xffffffff
  302012:	6a 00                	push   $0x0
  302014:	e9 d2 1d 00 00       	jmp    303deb <idt_common>
  302019:	8d b4 26 00 00 00 00 	lea    0x0(%esi,%eiz,1),%esi
  302020:	6a ff                	push   $0xffffffff
  302022:	6a 01                	push   $0x1
  302024:	e9 c2 1d 00 00       	jmp    303deb <idt_common>
  302029:	8d b4 26 00 00 00 00 	lea    0x0(%esi,%eiz,1),%esi
  302030:	6a ff                	push   $0xffffffff
  302032:	6a 02                	push   $0x2
  302034:	e9 b2 1d 00 00       	jmp    303deb <idt_common>
  302039:	8d b4 26 00 00 00 00 	lea    0x0(%esi,%eiz,1),%esi
  302040:	6a ff                	push   $0xffffffff
  302042:	6a 03                	push   $0x3
  302044:	e9 a2 1d 00 00       	jmp    303deb <idt_common>
  302049:	8d b4 26 00 00 00 00 	lea    0x0(%esi,%eiz,1),%esi
  302050:	6a ff                	push   $0xffffffff
  302052:	6a 04                	push   $0x4
  302054:	e9 92 1d 00 00       	jmp    303deb <idt_common>
  302059:	8d b4 26 00 00 00 00 	lea    0x0(%esi,%eiz,1),%esi
  302060:	6a ff                	push   $0xffffffff
  302062:	6a 05                	push   $0x5
  302064:	e9 82 1d 00 00       	jmp    303deb <idt_common>
  302069:	8d b4 26 00 00 00 00 	lea    0x0(%esi,%eiz,1),%esi
  302070:	6a ff                	push   $0xffffffff
  302072:	6a 06                	push   $0x6
  302074:	e9 72 1d 00 00       	jmp    303deb <idt_common>
  302079:	8d b4 26 00 00 00 00 	lea    0x0(%esi,%eiz,1),%esi
  302080:	6a ff                	push   $0xffffffff
  302082:	6a 07                	push   $0x7
  302084:	e9 62 1d 00 00       	jmp    303deb <idt_common>
  302089:	8d b4 26 00 00 00 00 	lea    0x0(%esi,%eiz,1),%esi
  302090:	6a 08                	push   $0x8
  302092:	e9 54 1d 00 00       	jmp    303deb <idt_common>
  302097:	8d b4 26 00 00 00 00 	lea    0x0(%esi,%eiz,1),%esi
  30209e:	66 90                	xchg   %ax,%ax
  3020a0:	6a ff                	push   $0xffffffff
  3020a2:	6a 09                	push   $0x9
  3020a4:	e9 42 1d 00 00       	jmp    303deb <idt_common>
  3020a9:	8d b4 26 00 00 00 00 	lea    0x0(%esi,%eiz,1),%esi
  3020b0:	6a 0a                	push   $0xa
  3020b2:	e9 34 1d 00 00       	jmp    303deb <idt_common>
  3020b7:	8d b4 26 00 00 00 00 	lea    0x0(%esi,%eiz,1),%esi
  3020be:	66 90                	xchg   %ax,%ax
  3020c0:	6a 0b                	push   $0xb
  3020c2:	e9 24 1d 00 00       	jmp    303deb <idt_common>
  3020c7:	8d b4 26 00 00 00 00 	lea    0x0(%esi,%eiz,1),%esi
  3020ce:	66 90                	xchg   %ax,%ax
  3020d0:	6a 0c                	push   $0xc
  3020d2:	e9 14 1d 00 00       	jmp    303deb <idt_common>
  3020d7:	8d b4 26 00 00 00 00 	lea    0x0(%esi,%eiz,1),%esi
  3020de:	66 90                	xchg   %ax,%ax
  3020e0:	6a 0d                	push   $0xd
  3020e2:	e9 04 1d 00 00       	jmp    303deb <idt_common>
  3020e7:	8d b4 26 00 00 00 00 	lea    0x0(%esi,%eiz,1),%esi
  3020ee:	66 90                	xchg   %ax,%ax
  3020f0:	6a 0e                	push   $0xe
  3020f2:	e9 f4 1c 00 00       	jmp    303deb <idt_common>
  3020f7:	8d b4 26 00 00 00 00 	lea    0x0(%esi,%eiz,1),%esi
  3020fe:	66 90                	xchg   %ax,%ax
  302100:	6a ff                	push   $0xffffffff
  302102:	6a 0f                	push   $0xf
  302104:	e9 e2 1c 00 00       	jmp    303deb <idt_common>
  302109:	8d b4 26 00 00 00 00 	lea    0x0(%esi,%eiz,1),%esi
  302110:	6a ff                	push   $0xffffffff
  302112:	6a 10                	push   $0x10
  302114:	e9 d2 1c 00 00       	jmp    303deb <idt_common>
  302119:	8d b4 26 00 00 00 00 	lea    0x0(%esi,%eiz,1),%esi
  302120:	6a 11                	push   $0x11
  302122:	e9 c4 1c 00 00       	jmp    303deb <idt_common>
  302127:	8d b4 26 00 00 00 00 	lea    0x0(%esi,%eiz,1),%esi
  30212e:	66 90                	xchg   %ax,%ax
  302130:	6a ff                	push   $0xffffffff
  302132:	6a 12                	push   $0x12
  302134:	e9 b2 1c 00 00       	jmp    303deb <idt_common>
  302139:	8d b4 26 00 00 00 00 	lea    0x0(%esi,%eiz,1),%esi
  302140:	6a ff                	push   $0xffffffff
  302142:	6a 13                	push   $0x13
  302144:	e9 a2 1c 00 00       	jmp    303deb <idt_common>
  302149:	8d b4 26 00 00 00 00 	lea    0x0(%esi,%eiz,1),%esi
  302150:	cf                   	iret   
  302151:	8d b4 26 00 00 00 00 	lea    0x0(%esi,%eiz,1),%esi
  302158:	8d b4 26 00 00 00 00 	lea    0x0(%esi,%eiz,1),%esi
  30215f:	90                   	nop
  302160:	cf                   	iret   
  302161:	8d b4 26 00 00 00 00 	lea    0x0(%esi,%eiz,1),%esi
  302168:	8d b4 26 00 00 00 00 	lea    0x0(%esi,%eiz,1),%esi
  30216f:	90                   	nop
  302170:	cf                   	iret   
  302171:	8d b4 26 00 00 00 00 	lea    0x0(%esi,%eiz,1),%esi
  302178:	8d b4 26 00 00 00 00 	lea    0x0(%esi,%eiz,1),%esi
  30217f:	90                   	nop
  302180:	cf                   	iret   
  302181:	8d b4 26 00 00 00 00 	lea    0x0(%esi,%eiz,1),%esi
  302188:	8d b4 26 00 00 00 00 	lea    0x0(%esi,%eiz,1),%esi
  30218f:	90                   	nop
  302190:	cf                   	iret   
  302191:	8d b4 26 00 00 00 00 	lea    0x0(%esi,%eiz,1),%esi
  302198:	8d b4 26 00 00 00 00 	lea    0x0(%esi,%eiz,1),%esi
  30219f:	90                   	nop
  3021a0:	cf                   	iret   
  3021a1:	8d b4 26 00 00 00 00 	lea    0x0(%esi,%eiz,1),%esi
  3021a8:	8d b4 26 00 00 00 00 	lea    0x0(%esi,%eiz,1),%esi
  3021af:	90                   	nop
  3021b0:	cf                   	iret   
  3021b1:	8d b4 26 00 00 00 00 	lea    0x0(%esi,%eiz,1),%esi
  3021b8:	8d b4 26 00 00 00 00 	lea    0x0(%esi,%eiz,1),%esi
  3021bf:	90                   	nop
  3021c0:	cf                   	iret   
  3021c1:	8d b4 26 00 00 00 00 	lea    0x0(%esi,%eiz,1),%esi
  3021c8:	8d b4 26 00 00 00 00 	lea    0x0(%esi,%eiz,1),%esi
  3021cf:	90                   	nop
  3021d0:	cf                   	iret   
  3021d1:	8d b4 26 00 00 00 00 	lea    0x0(%esi,%eiz,1),%esi
  3021d8:	8d b4 26 00 00 00 00 	lea    0x0(%esi,%eiz,1),%esi
  3021df:	90                   	nop
  3021e0:	cf                   	iret   
  3021e1:	8d b4 26 00 00 00 00 	lea    0x0(%esi,%eiz,1),%esi
  3021e8:	8d b4 26 00 00 00 00 	lea    0x0(%esi,%eiz,1),%esi
  3021ef:	90                   	nop
  3021f0:	cf                   	iret   
  3021f1:	8d b4 26 00 00 00 00 	lea    0x0(%esi,%eiz,1),%esi
  3021f8:	8d b4 26 00 00 00 00 	lea    0x0(%esi,%eiz,1),%esi
  3021ff:	90                   	nop
  302200:	cf                   	iret   
  302201:	8d b4 26 00 00 00 00 	lea    0x0(%esi,%eiz,1),%esi
  302208:	8d b4 26 00 00 00 00 	lea    0x0(%esi,%eiz,1),%esi
  30220f:	90                   	nop
  302210:	6a ff                	push   $0xffffffff
  302212:	6a 20                	push   $0x20
  302214:	e9 cc 1b 00 00       	jmp    303de5 <ack_pic1>
  302219:	8d b4 26 00 00 00 00 	lea    0x0(%esi,%eiz,1),%esi
  302220:	6a ff                	push   $0xffffffff
  302222:	6a 21                	push   $0x21
  302224:	e9 bc 1b 00 00       	jmp    303de5 <ack_pic1>
  302229:	8d b4 26 00 00 00 00 	lea    0x0(%esi,%eiz,1),%esi
  302230:	6a ff                	push   $0xffffffff
  302232:	6a 22                	push   $0x22
  302234:	e9 ac 1b 00 00       	jmp    303de5 <ack_pic1>
  302239:	8d b4 26 00 00 00 00 	lea    0x0(%esi,%eiz,1),%esi
  302240:	6a ff                	push   $0xffffffff
  302242:	6a 23                	push   $0x23
  302244:	e9 9c 1b 00 00       	jmp    303de5 <ack_pic1>
  302249:	8d b4 26 00 00 00 00 	lea    0x0(%esi,%eiz,1),%esi
  302250:	6a ff                	push   $0xffffffff
  302252:	6a 24                	push   $0x24
  302254:	e9 8c 1b 00 00       	jmp    303de5 <ack_pic1>
  302259:	8d b4 26 00 00 00 00 	lea    0x0(%esi,%eiz,1),%esi
  302260:	6a ff                	push   $0xffffffff
  302262:	6a 25                	push   $0x25
  302264:	e9 7c 1b 00 00       	jmp    303de5 <ack_pic1>
  302269:	8d b4 26 00 00 00 00 	lea    0x0(%esi,%eiz,1),%esi
  302270:	6a ff                	push   $0xffffffff
  302272:	6a 26                	push   $0x26
  302274:	e9 6c 1b 00 00       	jmp    303de5 <ack_pic1>
  302279:	8d b4 26 00 00 00 00 	lea    0x0(%esi,%eiz,1),%esi
  302280:	6a ff                	push   $0xffffffff
  302282:	6a 27                	push   $0x27
  302284:	e9 5c 1b 00 00       	jmp    303de5 <ack_pic1>
  302289:	8d b4 26 00 00 00 00 	lea    0x0(%esi,%eiz,1),%esi
  302290:	6a ff                	push   $0xffffffff
  302292:	6a 28                	push   $0x28
  302294:	e9 45 1b 00 00       	jmp    303dde <ack_pic2>
  302299:	8d b4 26 00 00 00 00 	lea    0x0(%esi,%eiz,1),%esi
  3022a0:	6a ff                	push   $0xffffffff
  3022a2:	6a 29                	push   $0x29
  3022a4:	e9 35 1b 00 00       	jmp    303dde <ack_pic2>
  3022a9:	8d b4 26 00 00 00 00 	lea    0x0(%esi,%eiz,1),%esi
  3022b0:	6a ff                	push   $0xffffffff
  3022b2:	6a 2a                	push   $0x2a
  3022b4:	e9 25 1b 00 00       	jmp    303dde <ack_pic2>
  3022b9:	8d b4 26 00 00 00 00 	lea    0x0(%esi,%eiz,1),%esi
  3022c0:	6a ff                	push   $0xffffffff
  3022c2:	6a 2b                	push   $0x2b
  3022c4:	e9 15 1b 00 00       	jmp    303dde <ack_pic2>
  3022c9:	8d b4 26 00 00 00 00 	lea    0x0(%esi,%eiz,1),%esi
  3022d0:	6a ff                	push   $0xffffffff
  3022d2:	6a 2c                	push   $0x2c
  3022d4:	e9 05 1b 00 00       	jmp    303dde <ack_pic2>
  3022d9:	8d b4 26 00 00 00 00 	lea    0x0(%esi,%eiz,1),%esi
  3022e0:	6a ff                	push   $0xffffffff
  3022e2:	6a 2d                	push   $0x2d
  3022e4:	e9 f5 1a 00 00       	jmp    303dde <ack_pic2>
  3022e9:	8d b4 26 00 00 00 00 	lea    0x0(%esi,%eiz,1),%esi
  3022f0:	6a ff                	push   $0xffffffff
  3022f2:	6a 2e                	push   $0x2e
  3022f4:	e9 e5 1a 00 00       	jmp    303dde <ack_pic2>
  3022f9:	8d b4 26 00 00 00 00 	lea    0x0(%esi,%eiz,1),%esi
  302300:	6a ff                	push   $0xffffffff
  302302:	6a 2f                	push   $0x2f
  302304:	e9 d5 1a 00 00       	jmp    303dde <ack_pic2>
  302309:	8d b4 26 00 00 00 00 	lea    0x0(%esi,%eiz,1),%esi
  302310:	6a ff                	push   $0xffffffff
  302312:	6a 30                	push   $0x30
  302314:	e9 d2 1a 00 00       	jmp    303deb <idt_common>
  302319:	8d b4 26 00 00 00 00 	lea    0x0(%esi,%eiz,1),%esi
  302320:	6a ff                	push   $0xffffffff
  302322:	6a 31                	push   $0x31
  302324:	e9 c2 1a 00 00       	jmp    303deb <idt_common>
  302329:	8d b4 26 00 00 00 00 	lea    0x0(%esi,%eiz,1),%esi
  302330:	6a ff                	push   $0xffffffff
  302332:	6a 32                	push   $0x32
  302334:	e9 b2 1a 00 00       	jmp    303deb <idt_common>
  302339:	8d b4 26 00 00 00 00 	lea    0x0(%esi,%eiz,1),%esi
  302340:	6a ff                	push   $0xffffffff
  302342:	6a 33                	push   $0x33
  302344:	e9 a2 1a 00 00       	jmp    303deb <idt_common>
  302349:	8d b4 26 00 00 00 00 	lea    0x0(%esi,%eiz,1),%esi
  302350:	6a ff                	push   $0xffffffff
  302352:	6a 34                	push   $0x34
  302354:	e9 92 1a 00 00       	jmp    303deb <idt_common>
  302359:	8d b4 26 00 00 00 00 	lea    0x0(%esi,%eiz,1),%esi
  302360:	6a ff                	push   $0xffffffff
  302362:	6a 35                	push   $0x35
  302364:	e9 82 1a 00 00       	jmp    303deb <idt_common>
  302369:	8d b4 26 00 00 00 00 	lea    0x0(%esi,%eiz,1),%esi
  302370:	6a ff                	push   $0xffffffff
  302372:	6a 36                	push   $0x36
  302374:	e9 72 1a 00 00       	jmp    303deb <idt_common>
  302379:	8d b4 26 00 00 00 00 	lea    0x0(%esi,%eiz,1),%esi
  302380:	6a ff                	push   $0xffffffff
  302382:	6a 37                	push   $0x37
  302384:	e9 62 1a 00 00       	jmp    303deb <idt_common>
  302389:	8d b4 26 00 00 00 00 	lea    0x0(%esi,%eiz,1),%esi
  302390:	6a ff                	push   $0xffffffff
  302392:	6a 38                	push   $0x38
  302394:	e9 52 1a 00 00       	jmp    303deb <idt_common>
  302399:	8d b4 26 00 00 00 00 	lea    0x0(%esi,%eiz,1),%esi
  3023a0:	6a ff                	push   $0xffffffff
  3023a2:	6a 39                	push   $0x39
  3023a4:	e9 42 1a 00 00       	jmp    303deb <idt_common>
  3023a9:	8d b4 26 00 00 00 00 	lea    0x0(%esi,%eiz,1),%esi
  3023b0:	6a ff                	push   $0xffffffff
  3023b2:	6a 3a                	push   $0x3a
  3023b4:	e9 32 1a 00 00       	jmp    303deb <idt_common>
  3023b9:	8d b4 26 00 00 00 00 	lea    0x0(%esi,%eiz,1),%esi
  3023c0:	6a ff                	push   $0xffffffff
  3023c2:	6a 3b                	push   $0x3b
  3023c4:	e9 22 1a 00 00       	jmp    303deb <idt_common>
  3023c9:	8d b4 26 00 00 00 00 	lea    0x0(%esi,%eiz,1),%esi
  3023d0:	6a ff                	push   $0xffffffff
  3023d2:	6a 3c                	push   $0x3c
  3023d4:	e9 12 1a 00 00       	jmp    303deb <idt_common>
  3023d9:	8d b4 26 00 00 00 00 	lea    0x0(%esi,%eiz,1),%esi
  3023e0:	6a ff                	push   $0xffffffff
  3023e2:	6a 3d                	push   $0x3d
  3023e4:	e9 02 1a 00 00       	jmp    303deb <idt_common>
  3023e9:	8d b4 26 00 00 00 00 	lea    0x0(%esi,%eiz,1),%esi
  3023f0:	6a ff                	push   $0xffffffff
  3023f2:	6a 3e                	push   $0x3e
  3023f4:	e9 f2 19 00 00       	jmp    303deb <idt_common>
  3023f9:	8d b4 26 00 00 00 00 	lea    0x0(%esi,%eiz,1),%esi
  302400:	6a ff                	push   $0xffffffff
  302402:	6a 3f                	push   $0x3f
  302404:	e9 e2 19 00 00       	jmp    303deb <idt_common>
  302409:	8d b4 26 00 00 00 00 	lea    0x0(%esi,%eiz,1),%esi
  302410:	6a ff                	push   $0xffffffff
  302412:	6a 40                	push   $0x40
  302414:	e9 d2 19 00 00       	jmp    303deb <idt_common>
  302419:	8d b4 26 00 00 00 00 	lea    0x0(%esi,%eiz,1),%esi
  302420:	6a ff                	push   $0xffffffff
  302422:	6a 41                	push   $0x41
  302424:	e9 c2 19 00 00       	jmp    303deb <idt_common>
  302429:	8d b4 26 00 00 00 00 	lea    0x0(%esi,%eiz,1),%esi
  302430:	6a ff                	push   $0xffffffff
  302432:	6a 42                	push   $0x42
  302434:	e9 b2 19 00 00       	jmp    303deb <idt_common>
  302439:	8d b4 26 00 00 00 00 	lea    0x0(%esi,%eiz,1),%esi
  302440:	6a ff                	push   $0xffffffff
  302442:	6a 43                	push   $0x43
  302444:	e9 a2 19 00 00       	jmp    303deb <idt_common>
  302449:	8d b4 26 00 00 00 00 	lea    0x0(%esi,%eiz,1),%esi
  302450:	6a ff                	push   $0xffffffff
  302452:	6a 44                	push   $0x44
  302454:	e9 92 19 00 00       	jmp    303deb <idt_common>
  302459:	8d b4 26 00 00 00 00 	lea    0x0(%esi,%eiz,1),%esi
  302460:	6a ff                	push   $0xffffffff
  302462:	6a 45                	push   $0x45
  302464:	e9 82 19 00 00       	jmp    303deb <idt_common>
  302469:	8d b4 26 00 00 00 00 	lea    0x0(%esi,%eiz,1),%esi
  302470:	6a ff                	push   $0xffffffff
  302472:	6a 46                	push   $0x46
  302474:	e9 72 19 00 00       	jmp    303deb <idt_common>
  302479:	8d b4 26 00 00 00 00 	lea    0x0(%esi,%eiz,1),%esi
  302480:	6a ff                	push   $0xffffffff
  302482:	6a 47                	push   $0x47
  302484:	e9 62 19 00 00       	jmp    303deb <idt_common>
  302489:	8d b4 26 00 00 00 00 	lea    0x0(%esi,%eiz,1),%esi
  302490:	6a ff                	push   $0xffffffff
  302492:	6a 48                	push   $0x48
  302494:	e9 52 19 00 00       	jmp    303deb <idt_common>
  302499:	8d b4 26 00 00 00 00 	lea    0x0(%esi,%eiz,1),%esi
  3024a0:	6a ff                	push   $0xffffffff
  3024a2:	6a 49                	push   $0x49
  3024a4:	e9 42 19 00 00       	jmp    303deb <idt_common>
  3024a9:	8d b4 26 00 00 00 00 	lea    0x0(%esi,%eiz,1),%esi
  3024b0:	6a ff                	push   $0xffffffff
  3024b2:	6a 4a                	push   $0x4a
  3024b4:	e9 32 19 00 00       	jmp    303deb <idt_common>
  3024b9:	8d b4 26 00 00 00 00 	lea    0x0(%esi,%eiz,1),%esi
  3024c0:	6a ff                	push   $0xffffffff
  3024c2:	6a 4b                	push   $0x4b
  3024c4:	e9 22 19 00 00       	jmp    303deb <idt_common>
  3024c9:	8d b4 26 00 00 00 00 	lea    0x0(%esi,%eiz,1),%esi
  3024d0:	6a ff                	push   $0xffffffff
  3024d2:	6a 4c                	push   $0x4c
  3024d4:	e9 12 19 00 00       	jmp    303deb <idt_common>
  3024d9:	8d b4 26 00 00 00 00 	lea    0x0(%esi,%eiz,1),%esi
  3024e0:	6a ff                	push   $0xffffffff
  3024e2:	6a 4d                	push   $0x4d
  3024e4:	e9 02 19 00 00       	jmp    303deb <idt_common>
  3024e9:	8d b4 26 00 00 00 00 	lea    0x0(%esi,%eiz,1),%esi
  3024f0:	6a ff                	push   $0xffffffff
  3024f2:	6a 4e                	push   $0x4e
  3024f4:	e9 f2 18 00 00       	jmp    303deb <idt_common>
  3024f9:	8d b4 26 00 00 00 00 	lea    0x0(%esi,%eiz,1),%esi
  302500:	6a ff                	push   $0xffffffff
  302502:	6a 4f                	push   $0x4f
  302504:	e9 e2 18 00 00       	jmp    303deb <idt_common>
  302509:	8d b4 26 00 00 00 00 	lea    0x0(%esi,%eiz,1),%esi
  302510:	6a ff                	push   $0xffffffff
  302512:	6a 50                	push   $0x50
  302514:	e9 d2 18 00 00       	jmp    303deb <idt_common>
  302519:	8d b4 26 00 00 00 00 	lea    0x0(%esi,%eiz,1),%esi
  302520:	6a ff                	push   $0xffffffff
  302522:	6a 51                	push   $0x51
  302524:	e9 c2 18 00 00       	jmp    303deb <idt_common>
  302529:	8d b4 26 00 00 00 00 	lea    0x0(%esi,%eiz,1),%esi
  302530:	6a ff                	push   $0xffffffff
  302532:	6a 52                	push   $0x52
  302534:	e9 b2 18 00 00       	jmp    303deb <idt_common>
  302539:	8d b4 26 00 00 00 00 	lea    0x0(%esi,%eiz,1),%esi
  302540:	6a ff                	push   $0xffffffff
  302542:	6a 53                	push   $0x53
  302544:	e9 a2 18 00 00       	jmp    303deb <idt_common>
  302549:	8d b4 26 00 00 00 00 	lea    0x0(%esi,%eiz,1),%esi
  302550:	6a ff                	push   $0xffffffff
  302552:	6a 54                	push   $0x54
  302554:	e9 92 18 00 00       	jmp    303deb <idt_common>
  302559:	8d b4 26 00 00 00 00 	lea    0x0(%esi,%eiz,1),%esi
  302560:	6a ff                	push   $0xffffffff
  302562:	6a 55                	push   $0x55
  302564:	e9 82 18 00 00       	jmp    303deb <idt_common>
  302569:	8d b4 26 00 00 00 00 	lea    0x0(%esi,%eiz,1),%esi
  302570:	6a ff                	push   $0xffffffff
  302572:	6a 56                	push   $0x56
  302574:	e9 72 18 00 00       	jmp    303deb <idt_common>
  302579:	8d b4 26 00 00 00 00 	lea    0x0(%esi,%eiz,1),%esi
  302580:	6a ff                	push   $0xffffffff
  302582:	6a 57                	push   $0x57
  302584:	e9 62 18 00 00       	jmp    303deb <idt_common>
  302589:	8d b4 26 00 00 00 00 	lea    0x0(%esi,%eiz,1),%esi
  302590:	6a ff                	push   $0xffffffff
  302592:	6a 58                	push   $0x58
  302594:	e9 52 18 00 00       	jmp    303deb <idt_common>
  302599:	8d b4 26 00 00 00 00 	lea    0x0(%esi,%eiz,1),%esi
  3025a0:	6a ff                	push   $0xffffffff
  3025a2:	6a 59                	push   $0x59
  3025a4:	e9 42 18 00 00       	jmp    303deb <idt_common>
  3025a9:	8d b4 26 00 00 00 00 	lea    0x0(%esi,%eiz,1),%esi
  3025b0:	6a ff                	push   $0xffffffff
  3025b2:	6a 5a                	push   $0x5a
  3025b4:	e9 32 18 00 00       	jmp    303deb <idt_common>
  3025b9:	8d b4 26 00 00 00 00 	lea    0x0(%esi,%eiz,1),%esi
  3025c0:	6a ff                	push   $0xffffffff
  3025c2:	6a 5b                	push   $0x5b
  3025c4:	e9 22 18 00 00       	jmp    303deb <idt_common>
  3025c9:	8d b4 26 00 00 00 00 	lea    0x0(%esi,%eiz,1),%esi
  3025d0:	6a ff                	push   $0xffffffff
  3025d2:	6a 5c                	push   $0x5c
  3025d4:	e9 12 18 00 00       	jmp    303deb <idt_common>
  3025d9:	8d b4 26 00 00 00 00 	lea    0x0(%esi,%eiz,1),%esi
  3025e0:	6a ff                	push   $0xffffffff
  3025e2:	6a 5d                	push   $0x5d
  3025e4:	e9 02 18 00 00       	jmp    303deb <idt_common>
  3025e9:	8d b4 26 00 00 00 00 	lea    0x0(%esi,%eiz,1),%esi
  3025f0:	6a ff                	push   $0xffffffff
  3025f2:	6a 5e                	push   $0x5e
  3025f4:	e9 f2 17 00 00       	jmp    303deb <idt_common>
  3025f9:	8d b4 26 00 00 00 00 	lea    0x0(%esi,%eiz,1),%esi
  302600:	6a ff                	push   $0xffffffff
  302602:	6a 5f                	push   $0x5f
  302604:	e9 e2 17 00 00       	jmp    303deb <idt_common>
  302609:	8d b4 26 00 00 00 00 	lea    0x0(%esi,%eiz,1),%esi
  302610:	6a ff                	push   $0xffffffff
  302612:	6a 60                	push   $0x60
  302614:	e9 d2 17 00 00       	jmp    303deb <idt_common>
  302619:	8d b4 26 00 00 00 00 	lea    0x0(%esi,%eiz,1),%esi
  302620:	6a ff                	push   $0xffffffff
  302622:	6a 61                	push   $0x61
  302624:	e9 c2 17 00 00       	jmp    303deb <idt_common>
  302629:	8d b4 26 00 00 00 00 	lea    0x0(%esi,%eiz,1),%esi
  302630:	6a ff                	push   $0xffffffff
  302632:	6a 62                	push   $0x62
  302634:	e9 b2 17 00 00       	jmp    303deb <idt_common>
  302639:	8d b4 26 00 00 00 00 	lea    0x0(%esi,%eiz,1),%esi
  302640:	6a ff                	push   $0xffffffff
  302642:	6a 63                	push   $0x63
  302644:	e9 a2 17 00 00       	jmp    303deb <idt_common>
  302649:	8d b4 26 00 00 00 00 	lea    0x0(%esi,%eiz,1),%esi
  302650:	6a ff                	push   $0xffffffff
  302652:	6a 64                	push   $0x64
  302654:	e9 92 17 00 00       	jmp    303deb <idt_common>
  302659:	8d b4 26 00 00 00 00 	lea    0x0(%esi,%eiz,1),%esi
  302660:	6a ff                	push   $0xffffffff
  302662:	6a 65                	push   $0x65
  302664:	e9 82 17 00 00       	jmp    303deb <idt_common>
  302669:	8d b4 26 00 00 00 00 	lea    0x0(%esi,%eiz,1),%esi
  302670:	6a ff                	push   $0xffffffff
  302672:	6a 66                	push   $0x66
  302674:	e9 72 17 00 00       	jmp    303deb <idt_common>
  302679:	8d b4 26 00 00 00 00 	lea    0x0(%esi,%eiz,1),%esi
  302680:	6a ff                	push   $0xffffffff
  302682:	6a 67                	push   $0x67
  302684:	e9 62 17 00 00       	jmp    303deb <idt_common>
  302689:	8d b4 26 00 00 00 00 	lea    0x0(%esi,%eiz,1),%esi
  302690:	6a ff                	push   $0xffffffff
  302692:	6a 68                	push   $0x68
  302694:	e9 52 17 00 00       	jmp    303deb <idt_common>
  302699:	8d b4 26 00 00 00 00 	lea    0x0(%esi,%eiz,1),%esi
  3026a0:	6a ff                	push   $0xffffffff
  3026a2:	6a 69                	push   $0x69
  3026a4:	e9 42 17 00 00       	jmp    303deb <idt_common>
  3026a9:	8d b4 26 00 00 00 00 	lea    0x0(%esi,%eiz,1),%esi
  3026b0:	6a ff                	push   $0xffffffff
  3026b2:	6a 6a                	push   $0x6a
  3026b4:	e9 32 17 00 00       	jmp    303deb <idt_common>
  3026b9:	8d b4 26 00 00 00 00 	lea    0x0(%esi,%eiz,1),%esi
  3026c0:	6a ff                	push   $0xffffffff
  3026c2:	6a 6b                	push   $0x6b
  3026c4:	e9 22 17 00 00       	jmp    303deb <idt_common>
  3026c9:	8d b4 26 00 00 00 00 	lea    0x0(%esi,%eiz,1),%esi
  3026d0:	6a ff                	push   $0xffffffff
  3026d2:	6a 6c                	push   $0x6c
  3026d4:	e9 12 17 00 00       	jmp    303deb <idt_common>
  3026d9:	8d b4 26 00 00 00 00 	lea    0x0(%esi,%eiz,1),%esi
  3026e0:	6a ff                	push   $0xffffffff
  3026e2:	6a 6d                	push   $0x6d
  3026e4:	e9 02 17 00 00       	jmp    303deb <idt_common>
  3026e9:	8d b4 26 00 00 00 00 	lea    0x0(%esi,%eiz,1),%esi
  3026f0:	6a ff                	push   $0xffffffff
  3026f2:	6a 6e                	push   $0x6e
  3026f4:	e9 f2 16 00 00       	jmp    303deb <idt_common>
  3026f9:	8d b4 26 00 00 00 00 	lea    0x0(%esi,%eiz,1),%esi
  302700:	6a ff                	push   $0xffffffff
  302702:	6a 6f                	push   $0x6f
  302704:	e9 e2 16 00 00       	jmp    303deb <idt_common>
  302709:	8d b4 26 00 00 00 00 	lea    0x0(%esi,%eiz,1),%esi
  302710:	6a ff                	push   $0xffffffff
  302712:	6a 70                	push   $0x70
  302714:	e9 d2 16 00 00       	jmp    303deb <idt_common>
  302719:	8d b4 26 00 00 00 00 	lea    0x0(%esi,%eiz,1),%esi
  302720:	6a ff                	push   $0xffffffff
  302722:	6a 71                	push   $0x71
  302724:	e9 c2 16 00 00       	jmp    303deb <idt_common>
  302729:	8d b4 26 00 00 00 00 	lea    0x0(%esi,%eiz,1),%esi
  302730:	6a ff                	push   $0xffffffff
  302732:	6a 72                	push   $0x72
  302734:	e9 b2 16 00 00       	jmp    303deb <idt_common>
  302739:	8d b4 26 00 00 00 00 	lea    0x0(%esi,%eiz,1),%esi
  302740:	6a ff                	push   $0xffffffff
  302742:	6a 73                	push   $0x73
  302744:	e9 a2 16 00 00       	jmp    303deb <idt_common>
  302749:	8d b4 26 00 00 00 00 	lea    0x0(%esi,%eiz,1),%esi
  302750:	6a ff                	push   $0xffffffff
  302752:	6a 74                	push   $0x74
  302754:	e9 92 16 00 00       	jmp    303deb <idt_common>
  302759:	8d b4 26 00 00 00 00 	lea    0x0(%esi,%eiz,1),%esi
  302760:	6a ff                	push   $0xffffffff
  302762:	6a 75                	push   $0x75
  302764:	e9 82 16 00 00       	jmp    303deb <idt_common>
  302769:	8d b4 26 00 00 00 00 	lea    0x0(%esi,%eiz,1),%esi
  302770:	6a ff                	push   $0xffffffff
  302772:	6a 76                	push   $0x76
  302774:	e9 72 16 00 00       	jmp    303deb <idt_common>
  302779:	8d b4 26 00 00 00 00 	lea    0x0(%esi,%eiz,1),%esi
  302780:	6a ff                	push   $0xffffffff
  302782:	6a 77                	push   $0x77
  302784:	e9 62 16 00 00       	jmp    303deb <idt_common>
  302789:	8d b4 26 00 00 00 00 	lea    0x0(%esi,%eiz,1),%esi
  302790:	6a ff                	push   $0xffffffff
  302792:	6a 78                	push   $0x78
  302794:	e9 52 16 00 00       	jmp    303deb <idt_common>
  302799:	8d b4 26 00 00 00 00 	lea    0x0(%esi,%eiz,1),%esi
  3027a0:	6a ff                	push   $0xffffffff
  3027a2:	6a 79                	push   $0x79
  3027a4:	e9 42 16 00 00       	jmp    303deb <idt_common>
  3027a9:	8d b4 26 00 00 00 00 	lea    0x0(%esi,%eiz,1),%esi
  3027b0:	6a ff                	push   $0xffffffff
  3027b2:	6a 7a                	push   $0x7a
  3027b4:	e9 32 16 00 00       	jmp    303deb <idt_common>
  3027b9:	8d b4 26 00 00 00 00 	lea    0x0(%esi,%eiz,1),%esi
  3027c0:	6a ff                	push   $0xffffffff
  3027c2:	6a 7b                	push   $0x7b
  3027c4:	e9 22 16 00 00       	jmp    303deb <idt_common>
  3027c9:	8d b4 26 00 00 00 00 	lea    0x0(%esi,%eiz,1),%esi
  3027d0:	6a ff                	push   $0xffffffff
  3027d2:	6a 7c                	push   $0x7c
  3027d4:	e9 12 16 00 00       	jmp    303deb <idt_common>
  3027d9:	8d b4 26 00 00 00 00 	lea    0x0(%esi,%eiz,1),%esi
  3027e0:	6a ff                	push   $0xffffffff
  3027e2:	6a 7d                	push   $0x7d
  3027e4:	e9 02 16 00 00       	jmp    303deb <idt_common>
  3027e9:	8d b4 26 00 00 00 00 	lea    0x0(%esi,%eiz,1),%esi
  3027f0:	6a ff                	push   $0xffffffff
  3027f2:	6a 7e                	push   $0x7e
  3027f4:	e9 f2 15 00 00       	jmp    303deb <idt_common>
  3027f9:	8d b4 26 00 00 00 00 	lea    0x0(%esi,%eiz,1),%esi
  302800:	6a ff                	push   $0xffffffff
  302802:	6a 7f                	push   $0x7f
  302804:	e9 e2 15 00 00       	jmp    303deb <idt_common>
  302809:	8d b4 26 00 00 00 00 	lea    0x0(%esi,%eiz,1),%esi
  302810:	6a ff                	push   $0xffffffff
  302812:	68 80 00 00 00       	push   $0x80
  302817:	e9 cf 15 00 00       	jmp    303deb <idt_common>
  30281c:	8d 74 26 00          	lea    0x0(%esi,%eiz,1),%esi
  302820:	6a ff                	push   $0xffffffff
  302822:	68 81 00 00 00       	push   $0x81
  302827:	e9 bf 15 00 00       	jmp    303deb <idt_common>
  30282c:	8d 74 26 00          	lea    0x0(%esi,%eiz,1),%esi
  302830:	6a ff                	push   $0xffffffff
  302832:	68 82 00 00 00       	push   $0x82
  302837:	e9 af 15 00 00       	jmp    303deb <idt_common>
  30283c:	8d 74 26 00          	lea    0x0(%esi,%eiz,1),%esi
  302840:	6a ff                	push   $0xffffffff
  302842:	68 83 00 00 00       	push   $0x83
  302847:	e9 9f 15 00 00       	jmp    303deb <idt_common>
  30284c:	8d 74 26 00          	lea    0x0(%esi,%eiz,1),%esi
  302850:	6a ff                	push   $0xffffffff
  302852:	68 84 00 00 00       	push   $0x84
  302857:	e9 8f 15 00 00       	jmp    303deb <idt_common>
  30285c:	8d 74 26 00          	lea    0x0(%esi,%eiz,1),%esi
  302860:	6a ff                	push   $0xffffffff
  302862:	68 85 00 00 00       	push   $0x85
  302867:	e9 7f 15 00 00       	jmp    303deb <idt_common>
  30286c:	8d 74 26 00          	lea    0x0(%esi,%eiz,1),%esi
  302870:	6a ff                	push   $0xffffffff
  302872:	68 86 00 00 00       	push   $0x86
  302877:	e9 6f 15 00 00       	jmp    303deb <idt_common>
  30287c:	8d 74 26 00          	lea    0x0(%esi,%eiz,1),%esi
  302880:	6a ff                	push   $0xffffffff
  302882:	68 87 00 00 00       	push   $0x87
  302887:	e9 5f 15 00 00       	jmp    303deb <idt_common>
  30288c:	8d 74 26 00          	lea    0x0(%esi,%eiz,1),%esi
  302890:	6a ff                	push   $0xffffffff
  302892:	68 88 00 00 00       	push   $0x88
  302897:	e9 4f 15 00 00       	jmp    303deb <idt_common>
  30289c:	8d 74 26 00          	lea    0x0(%esi,%eiz,1),%esi
  3028a0:	6a ff                	push   $0xffffffff
  3028a2:	68 89 00 00 00       	push   $0x89
  3028a7:	e9 3f 15 00 00       	jmp    303deb <idt_common>
  3028ac:	8d 74 26 00          	lea    0x0(%esi,%eiz,1),%esi
  3028b0:	6a ff                	push   $0xffffffff
  3028b2:	68 8a 00 00 00       	push   $0x8a
  3028b7:	e9 2f 15 00 00       	jmp    303deb <idt_common>
  3028bc:	8d 74 26 00          	lea    0x0(%esi,%eiz,1),%esi
  3028c0:	6a ff                	push   $0xffffffff
  3028c2:	68 8b 00 00 00       	push   $0x8b
  3028c7:	e9 1f 15 00 00       	jmp    303deb <idt_common>
  3028cc:	8d 74 26 00          	lea    0x0(%esi,%eiz,1),%esi
  3028d0:	6a ff                	push   $0xffffffff
  3028d2:	68 8c 00 00 00       	push   $0x8c
  3028d7:	e9 0f 15 00 00       	jmp    303deb <idt_common>
  3028dc:	8d 74 26 00          	lea    0x0(%esi,%eiz,1),%esi
  3028e0:	6a ff                	push   $0xffffffff
  3028e2:	68 8d 00 00 00       	push   $0x8d
  3028e7:	e9 ff 14 00 00       	jmp    303deb <idt_common>
  3028ec:	8d 74 26 00          	lea    0x0(%esi,%eiz,1),%esi
  3028f0:	6a ff                	push   $0xffffffff
  3028f2:	68 8e 00 00 00       	push   $0x8e
  3028f7:	e9 ef 14 00 00       	jmp    303deb <idt_common>
  3028fc:	8d 74 26 00          	lea    0x0(%esi,%eiz,1),%esi
  302900:	6a ff                	push   $0xffffffff
  302902:	68 8f 00 00 00       	push   $0x8f
  302907:	e9 df 14 00 00       	jmp    303deb <idt_common>
  30290c:	8d 74 26 00          	lea    0x0(%esi,%eiz,1),%esi
  302910:	6a ff                	push   $0xffffffff
  302912:	68 90 00 00 00       	push   $0x90
  302917:	e9 cf 14 00 00       	jmp    303deb <idt_common>
  30291c:	8d 74 26 00          	lea    0x0(%esi,%eiz,1),%esi
  302920:	6a ff                	push   $0xffffffff
  302922:	68 91 00 00 00       	push   $0x91
  302927:	e9 bf 14 00 00       	jmp    303deb <idt_common>
  30292c:	8d 74 26 00          	lea    0x0(%esi,%eiz,1),%esi
  302930:	6a ff                	push   $0xffffffff
  302932:	68 92 00 00 00       	push   $0x92
  302937:	e9 af 14 00 00       	jmp    303deb <idt_common>
  30293c:	8d 74 26 00          	lea    0x0(%esi,%eiz,1),%esi
  302940:	6a ff                	push   $0xffffffff
  302942:	68 93 00 00 00       	push   $0x93
  302947:	e9 9f 14 00 00       	jmp    303deb <idt_common>
  30294c:	8d 74 26 00          	lea    0x0(%esi,%eiz,1),%esi
  302950:	6a ff                	push   $0xffffffff
  302952:	68 94 00 00 00       	push   $0x94
  302957:	e9 8f 14 00 00       	jmp    303deb <idt_common>
  30295c:	8d 74 26 00          	lea    0x0(%esi,%eiz,1),%esi
  302960:	6a ff                	push   $0xffffffff
  302962:	68 95 00 00 00       	push   $0x95
  302967:	e9 7f 14 00 00       	jmp    303deb <idt_common>
  30296c:	8d 74 26 00          	lea    0x0(%esi,%eiz,1),%esi
  302970:	6a ff                	push   $0xffffffff
  302972:	68 96 00 00 00       	push   $0x96
  302977:	e9 6f 14 00 00       	jmp    303deb <idt_common>
  30297c:	8d 74 26 00          	lea    0x0(%esi,%eiz,1),%esi
  302980:	6a ff                	push   $0xffffffff
  302982:	68 97 00 00 00       	push   $0x97
  302987:	e9 5f 14 00 00       	jmp    303deb <idt_common>
  30298c:	8d 74 26 00          	lea    0x0(%esi,%eiz,1),%esi
  302990:	6a ff                	push   $0xffffffff
  302992:	68 98 00 00 00       	push   $0x98
  302997:	e9 4f 14 00 00       	jmp    303deb <idt_common>
  30299c:	8d 74 26 00          	lea    0x0(%esi,%eiz,1),%esi
  3029a0:	6a ff                	push   $0xffffffff
  3029a2:	68 99 00 00 00       	push   $0x99
  3029a7:	e9 3f 14 00 00       	jmp    303deb <idt_common>
  3029ac:	8d 74 26 00          	lea    0x0(%esi,%eiz,1),%esi
  3029b0:	6a ff                	push   $0xffffffff
  3029b2:	68 9a 00 00 00       	push   $0x9a
  3029b7:	e9 2f 14 00 00       	jmp    303deb <idt_common>
  3029bc:	8d 74 26 00          	lea    0x0(%esi,%eiz,1),%esi
  3029c0:	6a ff                	push   $0xffffffff
  3029c2:	68 9b 00 00 00       	push   $0x9b
  3029c7:	e9 1f 14 00 00       	jmp    303deb <idt_common>
  3029cc:	8d 74 26 00          	lea    0x0(%esi,%eiz,1),%esi
  3029d0:	6a ff                	push   $0xffffffff
  3029d2:	68 9c 00 00 00       	push   $0x9c
  3029d7:	e9 0f 14 00 00       	jmp    303deb <idt_common>
  3029dc:	8d 74 26 00          	lea    0x0(%esi,%eiz,1),%esi
  3029e0:	6a ff                	push   $0xffffffff
  3029e2:	68 9d 00 00 00       	push   $0x9d
  3029e7:	e9 ff 13 00 00       	jmp    303deb <idt_common>
  3029ec:	8d 74 26 00          	lea    0x0(%esi,%eiz,1),%esi
  3029f0:	6a ff                	push   $0xffffffff
  3029f2:	68 9e 00 00 00       	push   $0x9e
  3029f7:	e9 ef 13 00 00       	jmp    303deb <idt_common>
  3029fc:	8d 74 26 00          	lea    0x0(%esi,%eiz,1),%esi
  302a00:	6a ff                	push   $0xffffffff
  302a02:	68 9f 00 00 00       	push   $0x9f
  302a07:	e9 df 13 00 00       	jmp    303deb <idt_common>
  302a0c:	8d 74 26 00          	lea    0x0(%esi,%eiz,1),%esi
  302a10:	6a ff                	push   $0xffffffff
  302a12:	68 a0 00 00 00       	push   $0xa0
  302a17:	e9 cf 13 00 00       	jmp    303deb <idt_common>
  302a1c:	8d 74 26 00          	lea    0x0(%esi,%eiz,1),%esi
  302a20:	6a ff                	push   $0xffffffff
  302a22:	68 a1 00 00 00       	push   $0xa1
  302a27:	e9 bf 13 00 00       	jmp    303deb <idt_common>
  302a2c:	8d 74 26 00          	lea    0x0(%esi,%eiz,1),%esi
  302a30:	6a ff                	push   $0xffffffff
  302a32:	68 a2 00 00 00       	push   $0xa2
  302a37:	e9 af 13 00 00       	jmp    303deb <idt_common>
  302a3c:	8d 74 26 00          	lea    0x0(%esi,%eiz,1),%esi
  302a40:	6a ff                	push   $0xffffffff
  302a42:	68 a3 00 00 00       	push   $0xa3
  302a47:	e9 9f 13 00 00       	jmp    303deb <idt_common>
  302a4c:	8d 74 26 00          	lea    0x0(%esi,%eiz,1),%esi
  302a50:	6a ff                	push   $0xffffffff
  302a52:	68 a4 00 00 00       	push   $0xa4
  302a57:	e9 8f 13 00 00       	jmp    303deb <idt_common>
  302a5c:	8d 74 26 00          	lea    0x0(%esi,%eiz,1),%esi
  302a60:	6a ff                	push   $0xffffffff
  302a62:	68 a5 00 00 00       	push   $0xa5
  302a67:	e9 7f 13 00 00       	jmp    303deb <idt_common>
  302a6c:	8d 74 26 00          	lea    0x0(%esi,%eiz,1),%esi
  302a70:	6a ff                	push   $0xffffffff
  302a72:	68 a6 00 00 00       	push   $0xa6
  302a77:	e9 6f 13 00 00       	jmp    303deb <idt_common>
  302a7c:	8d 74 26 00          	lea    0x0(%esi,%eiz,1),%esi
  302a80:	6a ff                	push   $0xffffffff
  302a82:	68 a7 00 00 00       	push   $0xa7
  302a87:	e9 5f 13 00 00       	jmp    303deb <idt_common>
  302a8c:	8d 74 26 00          	lea    0x0(%esi,%eiz,1),%esi
  302a90:	6a ff                	push   $0xffffffff
  302a92:	68 a8 00 00 00       	push   $0xa8
  302a97:	e9 4f 13 00 00       	jmp    303deb <idt_common>
  302a9c:	8d 74 26 00          	lea    0x0(%esi,%eiz,1),%esi
  302aa0:	6a ff                	push   $0xffffffff
  302aa2:	68 a9 00 00 00       	push   $0xa9
  302aa7:	e9 3f 13 00 00       	jmp    303deb <idt_common>
  302aac:	8d 74 26 00          	lea    0x0(%esi,%eiz,1),%esi
  302ab0:	6a ff                	push   $0xffffffff
  302ab2:	68 aa 00 00 00       	push   $0xaa
  302ab7:	e9 2f 13 00 00       	jmp    303deb <idt_common>
  302abc:	8d 74 26 00          	lea    0x0(%esi,%eiz,1),%esi
  302ac0:	6a ff                	push   $0xffffffff
  302ac2:	68 ab 00 00 00       	push   $0xab
  302ac7:	e9 1f 13 00 00       	jmp    303deb <idt_common>
  302acc:	8d 74 26 00          	lea    0x0(%esi,%eiz,1),%esi
  302ad0:	6a ff                	push   $0xffffffff
  302ad2:	68 ac 00 00 00       	push   $0xac
  302ad7:	e9 0f 13 00 00       	jmp    303deb <idt_common>
  302adc:	8d 74 26 00          	lea    0x0(%esi,%eiz,1),%esi
  302ae0:	6a ff                	push   $0xffffffff
  302ae2:	68 ad 00 00 00       	push   $0xad
  302ae7:	e9 ff 12 00 00       	jmp    303deb <idt_common>
  302aec:	8d 74 26 00          	lea    0x0(%esi,%eiz,1),%esi
  302af0:	6a ff                	push   $0xffffffff
  302af2:	68 ae 00 00 00       	push   $0xae
  302af7:	e9 ef 12 00 00       	jmp    303deb <idt_common>
  302afc:	8d 74 26 00          	lea    0x0(%esi,%eiz,1),%esi
  302b00:	6a ff                	push   $0xffffffff
  302b02:	68 af 00 00 00       	push   $0xaf
  302b07:	e9 df 12 00 00       	jmp    303deb <idt_common>
  302b0c:	8d 74 26 00          	lea    0x0(%esi,%eiz,1),%esi
  302b10:	6a ff                	push   $0xffffffff
  302b12:	68 b0 00 00 00       	push   $0xb0
  302b17:	e9 cf 12 00 00       	jmp    303deb <idt_common>
  302b1c:	8d 74 26 00          	lea    0x0(%esi,%eiz,1),%esi
  302b20:	6a ff                	push   $0xffffffff
  302b22:	68 b1 00 00 00       	push   $0xb1
  302b27:	e9 bf 12 00 00       	jmp    303deb <idt_common>
  302b2c:	8d 74 26 00          	lea    0x0(%esi,%eiz,1),%esi
  302b30:	6a ff                	push   $0xffffffff
  302b32:	68 b2 00 00 00       	push   $0xb2
  302b37:	e9 af 12 00 00       	jmp    303deb <idt_common>
  302b3c:	8d 74 26 00          	lea    0x0(%esi,%eiz,1),%esi
  302b40:	6a ff                	push   $0xffffffff
  302b42:	68 b3 00 00 00       	push   $0xb3
  302b47:	e9 9f 12 00 00       	jmp    303deb <idt_common>
  302b4c:	8d 74 26 00          	lea    0x0(%esi,%eiz,1),%esi
  302b50:	6a ff                	push   $0xffffffff
  302b52:	68 b4 00 00 00       	push   $0xb4
  302b57:	e9 8f 12 00 00       	jmp    303deb <idt_common>
  302b5c:	8d 74 26 00          	lea    0x0(%esi,%eiz,1),%esi
  302b60:	6a ff                	push   $0xffffffff
  302b62:	68 b5 00 00 00       	push   $0xb5
  302b67:	e9 7f 12 00 00       	jmp    303deb <idt_common>
  302b6c:	8d 74 26 00          	lea    0x0(%esi,%eiz,1),%esi
  302b70:	6a ff                	push   $0xffffffff
  302b72:	68 b6 00 00 00       	push   $0xb6
  302b77:	e9 6f 12 00 00       	jmp    303deb <idt_common>
  302b7c:	8d 74 26 00          	lea    0x0(%esi,%eiz,1),%esi
  302b80:	6a ff                	push   $0xffffffff
  302b82:	68 b7 00 00 00       	push   $0xb7
  302b87:	e9 5f 12 00 00       	jmp    303deb <idt_common>
  302b8c:	8d 74 26 00          	lea    0x0(%esi,%eiz,1),%esi
  302b90:	6a ff                	push   $0xffffffff
  302b92:	68 b8 00 00 00       	push   $0xb8
  302b97:	e9 4f 12 00 00       	jmp    303deb <idt_common>
  302b9c:	8d 74 26 00          	lea    0x0(%esi,%eiz,1),%esi
  302ba0:	6a ff                	push   $0xffffffff
  302ba2:	68 b9 00 00 00       	push   $0xb9
  302ba7:	e9 3f 12 00 00       	jmp    303deb <idt_common>
  302bac:	8d 74 26 00          	lea    0x0(%esi,%eiz,1),%esi
  302bb0:	6a ff                	push   $0xffffffff
  302bb2:	68 ba 00 00 00       	push   $0xba
  302bb7:	e9 2f 12 00 00       	jmp    303deb <idt_common>
  302bbc:	8d 74 26 00          	lea    0x0(%esi,%eiz,1),%esi
  302bc0:	6a ff                	push   $0xffffffff
  302bc2:	68 bb 00 00 00       	push   $0xbb
  302bc7:	e9 1f 12 00 00       	jmp    303deb <idt_common>
  302bcc:	8d 74 26 00          	lea    0x0(%esi,%eiz,1),%esi
  302bd0:	6a ff                	push   $0xffffffff
  302bd2:	68 bc 00 00 00       	push   $0xbc
  302bd7:	e9 0f 12 00 00       	jmp    303deb <idt_common>
  302bdc:	8d 74 26 00          	lea    0x0(%esi,%eiz,1),%esi
  302be0:	6a ff                	push   $0xffffffff
  302be2:	68 bd 00 00 00       	push   $0xbd
  302be7:	e9 ff 11 00 00       	jmp    303deb <idt_common>
  302bec:	8d 74 26 00          	lea    0x0(%esi,%eiz,1),%esi
  302bf0:	6a ff                	push   $0xffffffff
  302bf2:	68 be 00 00 00       	push   $0xbe
  302bf7:	e9 ef 11 00 00       	jmp    303deb <idt_common>
  302bfc:	8d 74 26 00          	lea    0x0(%esi,%eiz,1),%esi
  302c00:	6a ff                	push   $0xffffffff
  302c02:	68 bf 00 00 00       	push   $0xbf
  302c07:	e9 df 11 00 00       	jmp    303deb <idt_common>
  302c0c:	8d 74 26 00          	lea    0x0(%esi,%eiz,1),%esi
  302c10:	6a ff                	push   $0xffffffff
  302c12:	68 c0 00 00 00       	push   $0xc0
  302c17:	e9 cf 11 00 00       	jmp    303deb <idt_common>
  302c1c:	8d 74 26 00          	lea    0x0(%esi,%eiz,1),%esi
  302c20:	6a ff                	push   $0xffffffff
  302c22:	68 c1 00 00 00       	push   $0xc1
  302c27:	e9 bf 11 00 00       	jmp    303deb <idt_common>
  302c2c:	8d 74 26 00          	lea    0x0(%esi,%eiz,1),%esi
  302c30:	6a ff                	push   $0xffffffff
  302c32:	68 c2 00 00 00       	push   $0xc2
  302c37:	e9 af 11 00 00       	jmp    303deb <idt_common>
  302c3c:	8d 74 26 00          	lea    0x0(%esi,%eiz,1),%esi
  302c40:	6a ff                	push   $0xffffffff
  302c42:	68 c3 00 00 00       	push   $0xc3
  302c47:	e9 9f 11 00 00       	jmp    303deb <idt_common>
  302c4c:	8d 74 26 00          	lea    0x0(%esi,%eiz,1),%esi
  302c50:	6a ff                	push   $0xffffffff
  302c52:	68 c4 00 00 00       	push   $0xc4
  302c57:	e9 8f 11 00 00       	jmp    303deb <idt_common>
  302c5c:	8d 74 26 00          	lea    0x0(%esi,%eiz,1),%esi
  302c60:	6a ff                	push   $0xffffffff
  302c62:	68 c5 00 00 00       	push   $0xc5
  302c67:	e9 7f 11 00 00       	jmp    303deb <idt_common>
  302c6c:	8d 74 26 00          	lea    0x0(%esi,%eiz,1),%esi
  302c70:	6a ff                	push   $0xffffffff
  302c72:	68 c6 00 00 00       	push   $0xc6
  302c77:	e9 6f 11 00 00       	jmp    303deb <idt_common>
  302c7c:	8d 74 26 00          	lea    0x0(%esi,%eiz,1),%esi
  302c80:	6a ff                	push   $0xffffffff
  302c82:	68 c7 00 00 00       	push   $0xc7
  302c87:	e9 5f 11 00 00       	jmp    303deb <idt_common>
  302c8c:	8d 74 26 00          	lea    0x0(%esi,%eiz,1),%esi
  302c90:	6a ff                	push   $0xffffffff
  302c92:	68 c8 00 00 00       	push   $0xc8
  302c97:	e9 4f 11 00 00       	jmp    303deb <idt_common>
  302c9c:	8d 74 26 00          	lea    0x0(%esi,%eiz,1),%esi
  302ca0:	6a ff                	push   $0xffffffff
  302ca2:	68 c9 00 00 00       	push   $0xc9
  302ca7:	e9 3f 11 00 00       	jmp    303deb <idt_common>
  302cac:	8d 74 26 00          	lea    0x0(%esi,%eiz,1),%esi
  302cb0:	6a ff                	push   $0xffffffff
  302cb2:	68 ca 00 00 00       	push   $0xca
  302cb7:	e9 2f 11 00 00       	jmp    303deb <idt_common>
  302cbc:	8d 74 26 00          	lea    0x0(%esi,%eiz,1),%esi
  302cc0:	6a ff                	push   $0xffffffff
  302cc2:	68 cb 00 00 00       	push   $0xcb
  302cc7:	e9 1f 11 00 00       	jmp    303deb <idt_common>
  302ccc:	8d 74 26 00          	lea    0x0(%esi,%eiz,1),%esi
  302cd0:	6a ff                	push   $0xffffffff
  302cd2:	68 cc 00 00 00       	push   $0xcc
  302cd7:	e9 0f 11 00 00       	jmp    303deb <idt_common>
  302cdc:	8d 74 26 00          	lea    0x0(%esi,%eiz,1),%esi
  302ce0:	6a ff                	push   $0xffffffff
  302ce2:	68 cd 00 00 00       	push   $0xcd
  302ce7:	e9 ff 10 00 00       	jmp    303deb <idt_common>
  302cec:	8d 74 26 00          	lea    0x0(%esi,%eiz,1),%esi
  302cf0:	6a ff                	push   $0xffffffff
  302cf2:	68 ce 00 00 00       	push   $0xce
  302cf7:	e9 ef 10 00 00       	jmp    303deb <idt_common>
  302cfc:	8d 74 26 00          	lea    0x0(%esi,%eiz,1),%esi
  302d00:	6a ff                	push   $0xffffffff
  302d02:	68 cf 00 00 00       	push   $0xcf
  302d07:	e9 df 10 00 00       	jmp    303deb <idt_common>
  302d0c:	8d 74 26 00          	lea    0x0(%esi,%eiz,1),%esi
  302d10:	6a ff                	push   $0xffffffff
  302d12:	68 d0 00 00 00       	push   $0xd0
  302d17:	e9 cf 10 00 00       	jmp    303deb <idt_common>
  302d1c:	8d 74 26 00          	lea    0x0(%esi,%eiz,1),%esi
  302d20:	6a ff                	push   $0xffffffff
  302d22:	68 d1 00 00 00       	push   $0xd1
  302d27:	e9 bf 10 00 00       	jmp    303deb <idt_common>
  302d2c:	8d 74 26 00          	lea    0x0(%esi,%eiz,1),%esi
  302d30:	6a ff                	push   $0xffffffff
  302d32:	68 d2 00 00 00       	push   $0xd2
  302d37:	e9 af 10 00 00       	jmp    303deb <idt_common>
  302d3c:	8d 74 26 00          	lea    0x0(%esi,%eiz,1),%esi
  302d40:	6a ff                	push   $0xffffffff
  302d42:	68 d3 00 00 00       	push   $0xd3
  302d47:	e9 9f 10 00 00       	jmp    303deb <idt_common>
  302d4c:	8d 74 26 00          	lea    0x0(%esi,%eiz,1),%esi
  302d50:	6a ff                	push   $0xffffffff
  302d52:	68 d4 00 00 00       	push   $0xd4
  302d57:	e9 8f 10 00 00       	jmp    303deb <idt_common>
  302d5c:	8d 74 26 00          	lea    0x0(%esi,%eiz,1),%esi
  302d60:	6a ff                	push   $0xffffffff
  302d62:	68 d5 00 00 00       	push   $0xd5
  302d67:	e9 7f 10 00 00       	jmp    303deb <idt_common>
  302d6c:	8d 74 26 00          	lea    0x0(%esi,%eiz,1),%esi
  302d70:	6a ff                	push   $0xffffffff
  302d72:	68 d6 00 00 00       	push   $0xd6
  302d77:	e9 6f 10 00 00       	jmp    303deb <idt_common>
  302d7c:	8d 74 26 00          	lea    0x0(%esi,%eiz,1),%esi
  302d80:	6a ff                	push   $0xffffffff
  302d82:	68 d7 00 00 00       	push   $0xd7
  302d87:	e9 5f 10 00 00       	jmp    303deb <idt_common>
  302d8c:	8d 74 26 00          	lea    0x0(%esi,%eiz,1),%esi
  302d90:	6a ff                	push   $0xffffffff
  302d92:	68 d8 00 00 00       	push   $0xd8
  302d97:	e9 4f 10 00 00       	jmp    303deb <idt_common>
  302d9c:	8d 74 26 00          	lea    0x0(%esi,%eiz,1),%esi
  302da0:	6a ff                	push   $0xffffffff
  302da2:	68 d9 00 00 00       	push   $0xd9
  302da7:	e9 3f 10 00 00       	jmp    303deb <idt_common>
  302dac:	8d 74 26 00          	lea    0x0(%esi,%eiz,1),%esi
  302db0:	6a ff                	push   $0xffffffff
  302db2:	68 da 00 00 00       	push   $0xda
  302db7:	e9 2f 10 00 00       	jmp    303deb <idt_common>
  302dbc:	8d 74 26 00          	lea    0x0(%esi,%eiz,1),%esi
  302dc0:	6a ff                	push   $0xffffffff
  302dc2:	68 db 00 00 00       	push   $0xdb
  302dc7:	e9 1f 10 00 00       	jmp    303deb <idt_common>
  302dcc:	8d 74 26 00          	lea    0x0(%esi,%eiz,1),%esi
  302dd0:	6a ff                	push   $0xffffffff
  302dd2:	68 dc 00 00 00       	push   $0xdc
  302dd7:	e9 0f 10 00 00       	jmp    303deb <idt_common>
  302ddc:	8d 74 26 00          	lea    0x0(%esi,%eiz,1),%esi
  302de0:	6a ff                	push   $0xffffffff
  302de2:	68 dd 00 00 00       	push   $0xdd
  302de7:	e9 ff 0f 00 00       	jmp    303deb <idt_common>
  302dec:	8d 74 26 00          	lea    0x0(%esi,%eiz,1),%esi
  302df0:	6a ff                	push   $0xffffffff
  302df2:	68 de 00 00 00       	push   $0xde
  302df7:	e9 ef 0f 00 00       	jmp    303deb <idt_common>
  302dfc:	8d 74 26 00          	lea    0x0(%esi,%eiz,1),%esi
  302e00:	6a ff                	push   $0xffffffff
  302e02:	68 df 00 00 00       	push   $0xdf
  302e07:	e9 df 0f 00 00       	jmp    303deb <idt_common>
  302e0c:	8d 74 26 00          	lea    0x0(%esi,%eiz,1),%esi
  302e10:	6a ff                	push   $0xffffffff
  302e12:	68 e0 00 00 00       	push   $0xe0
  302e17:	e9 cf 0f 00 00       	jmp    303deb <idt_common>
  302e1c:	8d 74 26 00          	lea    0x0(%esi,%eiz,1),%esi
  302e20:	6a ff                	push   $0xffffffff
  302e22:	68 e1 00 00 00       	push   $0xe1
  302e27:	e9 bf 0f 00 00       	jmp    303deb <idt_common>
  302e2c:	8d 74 26 00          	lea    0x0(%esi,%eiz,1),%esi
  302e30:	6a ff                	push   $0xffffffff
  302e32:	68 e2 00 00 00       	push   $0xe2
  302e37:	e9 af 0f 00 00       	jmp    303deb <idt_common>
  302e3c:	8d 74 26 00          	lea    0x0(%esi,%eiz,1),%esi
  302e40:	6a ff                	push   $0xffffffff
  302e42:	68 e3 00 00 00       	push   $0xe3
  302e47:	e9 9f 0f 00 00       	jmp    303deb <idt_common>
  302e4c:	8d 74 26 00          	lea    0x0(%esi,%eiz,1),%esi
  302e50:	6a ff                	push   $0xffffffff
  302e52:	68 e4 00 00 00       	push   $0xe4
  302e57:	e9 8f 0f 00 00       	jmp    303deb <idt_common>
  302e5c:	8d 74 26 00          	lea    0x0(%esi,%eiz,1),%esi
  302e60:	6a ff                	push   $0xffffffff
  302e62:	68 e5 00 00 00       	push   $0xe5
  302e67:	e9 7f 0f 00 00       	jmp    303deb <idt_common>
  302e6c:	8d 74 26 00          	lea    0x0(%esi,%eiz,1),%esi
  302e70:	6a ff                	push   $0xffffffff
  302e72:	68 e6 00 00 00       	push   $0xe6
  302e77:	e9 6f 0f 00 00       	jmp    303deb <idt_common>
  302e7c:	8d 74 26 00          	lea    0x0(%esi,%eiz,1),%esi
  302e80:	6a ff                	push   $0xffffffff
  302e82:	68 e7 00 00 00       	push   $0xe7
  302e87:	e9 5f 0f 00 00       	jmp    303deb <idt_common>
  302e8c:	8d 74 26 00          	lea    0x0(%esi,%eiz,1),%esi
  302e90:	6a ff                	push   $0xffffffff
  302e92:	68 e8 00 00 00       	push   $0xe8
  302e97:	e9 4f 0f 00 00       	jmp    303deb <idt_common>
  302e9c:	8d 74 26 00          	lea    0x0(%esi,%eiz,1),%esi
  302ea0:	6a ff                	push   $0xffffffff
  302ea2:	68 e9 00 00 00       	push   $0xe9
  302ea7:	e9 3f 0f 00 00       	jmp    303deb <idt_common>
  302eac:	8d 74 26 00          	lea    0x0(%esi,%eiz,1),%esi
  302eb0:	6a ff                	push   $0xffffffff
  302eb2:	68 ea 00 00 00       	push   $0xea
  302eb7:	e9 2f 0f 00 00       	jmp    303deb <idt_common>
  302ebc:	8d 74 26 00          	lea    0x0(%esi,%eiz,1),%esi
  302ec0:	6a ff                	push   $0xffffffff
  302ec2:	68 eb 00 00 00       	push   $0xeb
  302ec7:	e9 1f 0f 00 00       	jmp    303deb <idt_common>
  302ecc:	8d 74 26 00          	lea    0x0(%esi,%eiz,1),%esi
  302ed0:	6a ff                	push   $0xffffffff
  302ed2:	68 ec 00 00 00       	push   $0xec
  302ed7:	e9 0f 0f 00 00       	jmp    303deb <idt_common>
  302edc:	8d 74 26 00          	lea    0x0(%esi,%eiz,1),%esi
  302ee0:	6a ff                	push   $0xffffffff
  302ee2:	68 ed 00 00 00       	push   $0xed
  302ee7:	e9 ff 0e 00 00       	jmp    303deb <idt_common>
  302eec:	8d 74 26 00          	lea    0x0(%esi,%eiz,1),%esi
  302ef0:	6a ff                	push   $0xffffffff
  302ef2:	68 ee 00 00 00       	push   $0xee
  302ef7:	e9 ef 0e 00 00       	jmp    303deb <idt_common>
  302efc:	8d 74 26 00          	lea    0x0(%esi,%eiz,1),%esi
  302f00:	6a ff                	push   $0xffffffff
  302f02:	68 ef 00 00 00       	push   $0xef
  302f07:	e9 df 0e 00 00       	jmp    303deb <idt_common>
  302f0c:	8d 74 26 00          	lea    0x0(%esi,%eiz,1),%esi
  302f10:	6a ff                	push   $0xffffffff
  302f12:	68 f0 00 00 00       	push   $0xf0
  302f17:	e9 cf 0e 00 00       	jmp    303deb <idt_common>
  302f1c:	8d 74 26 00          	lea    0x0(%esi,%eiz,1),%esi
  302f20:	6a ff                	push   $0xffffffff
  302f22:	68 f1 00 00 00       	push   $0xf1
  302f27:	e9 bf 0e 00 00       	jmp    303deb <idt_common>
  302f2c:	8d 74 26 00          	lea    0x0(%esi,%eiz,1),%esi
  302f30:	6a ff                	push   $0xffffffff
  302f32:	68 f2 00 00 00       	push   $0xf2
  302f37:	e9 af 0e 00 00       	jmp    303deb <idt_common>
  302f3c:	8d 74 26 00          	lea    0x0(%esi,%eiz,1),%esi
  302f40:	6a ff                	push   $0xffffffff
  302f42:	68 f3 00 00 00       	push   $0xf3
  302f47:	e9 9f 0e 00 00       	jmp    303deb <idt_common>
  302f4c:	8d 74 26 00          	lea    0x0(%esi,%eiz,1),%esi
  302f50:	6a ff                	push   $0xffffffff
  302f52:	68 f4 00 00 00       	push   $0xf4
  302f57:	e9 8f 0e 00 00       	jmp    303deb <idt_common>
  302f5c:	8d 74 26 00          	lea    0x0(%esi,%eiz,1),%esi
  302f60:	6a ff                	push   $0xffffffff
  302f62:	68 f5 00 00 00       	push   $0xf5
  302f67:	e9 7f 0e 00 00       	jmp    303deb <idt_common>
  302f6c:	8d 74 26 00          	lea    0x0(%esi,%eiz,1),%esi
  302f70:	6a ff                	push   $0xffffffff
  302f72:	68 f6 00 00 00       	push   $0xf6
  302f77:	e9 6f 0e 00 00       	jmp    303deb <idt_common>
  302f7c:	8d 74 26 00          	lea    0x0(%esi,%eiz,1),%esi
  302f80:	6a ff                	push   $0xffffffff
  302f82:	68 f7 00 00 00       	push   $0xf7
  302f87:	e9 5f 0e 00 00       	jmp    303deb <idt_common>
  302f8c:	8d 74 26 00          	lea    0x0(%esi,%eiz,1),%esi
  302f90:	6a ff                	push   $0xffffffff
  302f92:	68 f8 00 00 00       	push   $0xf8
  302f97:	e9 4f 0e 00 00       	jmp    303deb <idt_common>
  302f9c:	8d 74 26 00          	lea    0x0(%esi,%eiz,1),%esi
  302fa0:	6a ff                	push   $0xffffffff
  302fa2:	68 f9 00 00 00       	push   $0xf9
  302fa7:	e9 3f 0e 00 00       	jmp    303deb <idt_common>
  302fac:	8d 74 26 00          	lea    0x0(%esi,%eiz,1),%esi
  302fb0:	6a ff                	push   $0xffffffff
  302fb2:	68 fa 00 00 00       	push   $0xfa
  302fb7:	e9 2f 0e 00 00       	jmp    303deb <idt_common>
  302fbc:	8d 74 26 00          	lea    0x0(%esi,%eiz,1),%esi
  302fc0:	6a ff                	push   $0xffffffff
  302fc2:	68 fb 00 00 00       	push   $0xfb
  302fc7:	e9 1f 0e 00 00       	jmp    303deb <idt_common>
  302fcc:	8d 74 26 00          	lea    0x0(%esi,%eiz,1),%esi
  302fd0:	6a ff                	push   $0xffffffff
  302fd2:	68 fc 00 00 00       	push   $0xfc
  302fd7:	e9 0f 0e 00 00       	jmp    303deb <idt_common>
  302fdc:	8d 74 26 00          	lea    0x0(%esi,%eiz,1),%esi
  302fe0:	6a ff                	push   $0xffffffff
  302fe2:	68 fd 00 00 00       	push   $0xfd
  302fe7:	e9 ff 0d 00 00       	jmp    303deb <idt_common>
  302fec:	8d 74 26 00          	lea    0x0(%esi,%eiz,1),%esi
  302ff0:	6a ff                	push   $0xffffffff
  302ff2:	68 fe 00 00 00       	push   $0xfe
  302ff7:	e9 ef 0d 00 00       	jmp    303deb <idt_common>
  302ffc:	8d 74 26 00          	lea    0x0(%esi,%eiz,1),%esi
  303000:	6a ff                	push   $0xffffffff
  303002:	68 ff 00 00 00       	push   $0xff
  303007:	e9 df 0d 00 00       	jmp    303deb <idt_common>

Déassemblage de la section .text :

00303010 <entry>:
  303010:	fa                   	cli    
  303011:	bc 10 20 30 00       	mov    $0x302010,%esp
  303016:	6a 00                	push   $0x0
  303018:	9d                   	popf   
  303019:	89 d8                	mov    %ebx,%eax
  30301b:	e8 03 00 00 00       	call   303023 <start>

00303020 <halt>:
  303020:	f4                   	hlt    
  303021:	eb fd                	jmp    303020 <halt>

00303023 <start>:
  303023:	55                   	push   %ebp
  303024:	89 e5                	mov    %esp,%ebp
  303026:	83 ec 18             	sub    $0x18,%esp
  303029:	89 45 f4             	mov    %eax,-0xc(%ebp)
  30302c:	a1 60 49 30 00       	mov    0x304960,%eax
  303031:	8b 55 f4             	mov    -0xc(%ebp),%edx
  303034:	89 10                	mov    %edx,(%eax)
  303036:	e8 6e 0b 00 00       	call   303ba9 <pic_init>
  30303b:	e8 ef 09 00 00       	call   303a2f <uart_init>
  303040:	e8 ec 0b 00 00       	call   303c31 <intr_init>
  303045:	83 ec 0c             	sub    $0xc,%esp
  303048:	68 d4 45 30 00       	push   $0x3045d4
  30304d:	e8 7e 00 00 00       	call   3030d0 <printf>
  303052:	83 c4 10             	add    $0x10,%esp
  303055:	e8 ac 0f 00 00       	call   304006 <tp>
  30305a:	83 ec 0c             	sub    $0xc,%esp
  30305d:	68 f7 45 30 00       	push   $0x3045f7
  303062:	e8 41 00 00 00       	call   3030a8 <panic>
  303067:	83 c4 10             	add    $0x10,%esp
  30306a:	90                   	nop
  30306b:	c9                   	leave  
  30306c:	c3                   	ret    

0030306d <__buf_add>:
  30306d:	55                   	push   %ebp
  30306e:	89 e5                	mov    %esp,%ebp
  303070:	53                   	push   %ebx
  303071:	83 ec 04             	sub    $0x4,%esp
  303074:	8b 45 10             	mov    0x10(%ebp),%eax
  303077:	88 45 f8             	mov    %al,-0x8(%ebp)
  30307a:	8b 45 08             	mov    0x8(%ebp),%eax
  30307d:	8b 40 08             	mov    0x8(%eax),%eax
  303080:	39 45 0c             	cmp    %eax,0xc(%ebp)
  303083:	76 1d                	jbe    3030a2 <__buf_add+0x35>
  303085:	8b 45 08             	mov    0x8(%ebp),%eax
  303088:	8b 18                	mov    (%eax),%ebx
  30308a:	8b 45 08             	mov    0x8(%ebp),%eax
  30308d:	8b 40 08             	mov    0x8(%eax),%eax
  303090:	8d 48 01             	lea    0x1(%eax),%ecx
  303093:	8b 55 08             	mov    0x8(%ebp),%edx
  303096:	89 4a 08             	mov    %ecx,0x8(%edx)
  303099:	8d 14 03             	lea    (%ebx,%eax,1),%edx
  30309c:	0f b6 45 f8          	movzbl -0x8(%ebp),%eax
  3030a0:	88 02                	mov    %al,(%edx)
  3030a2:	90                   	nop
  3030a3:	8b 5d fc             	mov    -0x4(%ebp),%ebx
  3030a6:	c9                   	leave  
  3030a7:	c3                   	ret    

003030a8 <panic>:
  3030a8:	55                   	push   %ebp
  3030a9:	89 e5                	mov    %esp,%ebp
  3030ab:	83 ec 18             	sub    $0x18,%esp
  3030ae:	fa                   	cli    
  3030af:	8d 45 0c             	lea    0xc(%ebp),%eax
  3030b2:	89 45 f4             	mov    %eax,-0xc(%ebp)
  3030b5:	8b 45 f4             	mov    -0xc(%ebp),%eax
  3030b8:	83 ec 08             	sub    $0x8,%esp
  3030bb:	50                   	push   %eax
  3030bc:	ff 75 08             	push   0x8(%ebp)
  3030bf:	e8 5b 00 00 00       	call   30311f <__vprintf>
  3030c4:	83 c4 10             	add    $0x10,%esp
  3030c7:	e8 9c 0a 00 00       	call   303b68 <uart_flush>
  3030cc:	fa                   	cli    
  3030cd:	f4                   	hlt    
  3030ce:	eb fc                	jmp    3030cc <panic+0x24>

003030d0 <printf>:
  3030d0:	55                   	push   %ebp
  3030d1:	89 e5                	mov    %esp,%ebp
  3030d3:	83 ec 18             	sub    $0x18,%esp
  3030d6:	8d 45 0c             	lea    0xc(%ebp),%eax
  3030d9:	89 45 f0             	mov    %eax,-0x10(%ebp)
  3030dc:	8b 45 f0             	mov    -0x10(%ebp),%eax
  3030df:	83 ec 08             	sub    $0x8,%esp
  3030e2:	50                   	push   %eax
  3030e3:	ff 75 08             	push   0x8(%ebp)
  3030e6:	e8 34 00 00 00       	call   30311f <__vprintf>
  3030eb:	83 c4 10             	add    $0x10,%esp
  3030ee:	89 45 f4             	mov    %eax,-0xc(%ebp)
  3030f1:	8b 45 f4             	mov    -0xc(%ebp),%eax
  3030f4:	c9                   	leave  
  3030f5:	c3                   	ret    

003030f6 <snprintf>:
  3030f6:	55                   	push   %ebp
  3030f7:	89 e5                	mov    %esp,%ebp
  3030f9:	83 ec 18             	sub    $0x18,%esp
  3030fc:	8d 45 14             	lea    0x14(%ebp),%eax
  3030ff:	89 45 f0             	mov    %eax,-0x10(%ebp)
  303102:	8b 45 f0             	mov    -0x10(%ebp),%eax
  303105:	50                   	push   %eax
  303106:	ff 75 10             	push   0x10(%ebp)
  303109:	ff 75 0c             	push   0xc(%ebp)
  30310c:	ff 75 08             	push   0x8(%ebp)
  30310f:	e8 ee 03 00 00       	call   303502 <__vsnprintf>
  303114:	83 c4 10             	add    $0x10,%esp
  303117:	89 45 f4             	mov    %eax,-0xc(%ebp)
  30311a:	8b 45 f4             	mov    -0xc(%ebp),%eax
  30311d:	c9                   	leave  
  30311e:	c3                   	ret    

0030311f <__vprintf>:
  30311f:	55                   	push   %ebp
  303120:	89 e5                	mov    %esp,%ebp
  303122:	83 ec 18             	sub    $0x18,%esp
  303125:	ff 75 0c             	push   0xc(%ebp)
  303128:	ff 75 08             	push   0x8(%ebp)
  30312b:	68 00 04 00 00       	push   $0x400
  303130:	68 00 4a 30 00       	push   $0x304a00
  303135:	e8 c8 03 00 00       	call   303502 <__vsnprintf>
  30313a:	83 c4 10             	add    $0x10,%esp
  30313d:	89 45 f4             	mov    %eax,-0xc(%ebp)
  303140:	8b 45 f4             	mov    -0xc(%ebp),%eax
  303143:	83 e8 01             	sub    $0x1,%eax
  303146:	83 ec 08             	sub    $0x8,%esp
  303149:	50                   	push   %eax
  30314a:	68 00 4a 30 00       	push   $0x304a00
  30314f:	e8 e8 09 00 00       	call   303b3c <uart_write>
  303154:	83 c4 10             	add    $0x10,%esp
  303157:	8b 45 f4             	mov    -0xc(%ebp),%eax
  30315a:	c9                   	leave  
  30315b:	c3                   	ret    

0030315c <__format_add_str>:
  30315c:	55                   	push   %ebp
  30315d:	89 e5                	mov    %esp,%ebp
  30315f:	eb 1e                	jmp    30317f <__format_add_str+0x23>
  303161:	8b 45 10             	mov    0x10(%ebp),%eax
  303164:	8d 50 01             	lea    0x1(%eax),%edx
  303167:	89 55 10             	mov    %edx,0x10(%ebp)
  30316a:	0f b6 00             	movzbl (%eax),%eax
  30316d:	0f be c0             	movsbl %al,%eax
  303170:	50                   	push   %eax
  303171:	ff 75 0c             	push   0xc(%ebp)
  303174:	ff 75 08             	push   0x8(%ebp)
  303177:	e8 f1 fe ff ff       	call   30306d <__buf_add>
  30317c:	83 c4 0c             	add    $0xc,%esp
  30317f:	8b 45 10             	mov    0x10(%ebp),%eax
  303182:	0f b6 00             	movzbl (%eax),%eax
  303185:	84 c0                	test   %al,%al
  303187:	75 d8                	jne    303161 <__format_add_str+0x5>
  303189:	90                   	nop
  30318a:	90                   	nop
  30318b:	c9                   	leave  
  30318c:	c3                   	ret    

0030318d <__format_add_chr>:
  30318d:	55                   	push   %ebp
  30318e:	89 e5                	mov    %esp,%ebp
  303190:	8b 45 10             	mov    0x10(%ebp),%eax
  303193:	0f be c0             	movsbl %al,%eax
  303196:	50                   	push   %eax
  303197:	ff 75 0c             	push   0xc(%ebp)
  30319a:	ff 75 08             	push   0x8(%ebp)
  30319d:	e8 cb fe ff ff       	call   30306d <__buf_add>
  3031a2:	83 c4 0c             	add    $0xc,%esp
  3031a5:	90                   	nop
  3031a6:	c9                   	leave  
  3031a7:	c3                   	ret    

003031a8 <__format_add_bin>:
  3031a8:	55                   	push   %ebp
  3031a9:	89 e5                	mov    %esp,%ebp
  3031ab:	83 ec 18             	sub    $0x18,%esp
  3031ae:	8b 45 10             	mov    0x10(%ebp),%eax
  3031b1:	89 45 e8             	mov    %eax,-0x18(%ebp)
  3031b4:	8b 45 14             	mov    0x14(%ebp),%eax
  3031b7:	89 45 ec             	mov    %eax,-0x14(%ebp)
  3031ba:	c7 45 fc 00 00 00 00 	movl   $0x0,-0x4(%ebp)
  3031c1:	eb 48                	jmp    30320b <__format_add_bin+0x63>
  3031c3:	8b 45 18             	mov    0x18(%ebp),%eax
  3031c6:	2b 45 fc             	sub    -0x4(%ebp),%eax
  3031c9:	8d 48 ff             	lea    -0x1(%eax),%ecx
  3031cc:	8b 45 e8             	mov    -0x18(%ebp),%eax
  3031cf:	8b 55 ec             	mov    -0x14(%ebp),%edx
  3031d2:	0f ad d0             	shrd   %cl,%edx,%eax
  3031d5:	d3 ea                	shr    %cl,%edx
  3031d7:	f6 c1 20             	test   $0x20,%cl
  3031da:	74 04                	je     3031e0 <__format_add_bin+0x38>
  3031dc:	89 d0                	mov    %edx,%eax
  3031de:	31 d2                	xor    %edx,%edx
  3031e0:	83 e0 01             	and    $0x1,%eax
  3031e3:	89 45 f8             	mov    %eax,-0x8(%ebp)
  3031e6:	83 7d f8 00          	cmpl   $0x0,-0x8(%ebp)
  3031ea:	74 07                	je     3031f3 <__format_add_bin+0x4b>
  3031ec:	b8 31 00 00 00       	mov    $0x31,%eax
  3031f1:	eb 05                	jmp    3031f8 <__format_add_bin+0x50>
  3031f3:	b8 30 00 00 00       	mov    $0x30,%eax
  3031f8:	50                   	push   %eax
  3031f9:	ff 75 0c             	push   0xc(%ebp)
  3031fc:	ff 75 08             	push   0x8(%ebp)
  3031ff:	e8 69 fe ff ff       	call   30306d <__buf_add>
  303204:	83 c4 0c             	add    $0xc,%esp
  303207:	83 45 fc 01          	addl   $0x1,-0x4(%ebp)
  30320b:	8b 45 fc             	mov    -0x4(%ebp),%eax
  30320e:	3b 45 18             	cmp    0x18(%ebp),%eax
  303211:	72 b0                	jb     3031c3 <__format_add_bin+0x1b>
  303213:	90                   	nop
  303214:	90                   	nop
  303215:	c9                   	leave  
  303216:	c3                   	ret    

00303217 <__format_add_idec>:
  303217:	55                   	push   %ebp
  303218:	89 e5                	mov    %esp,%ebp
  30321a:	57                   	push   %edi
  30321b:	56                   	push   %esi
  30321c:	53                   	push   %ebx
  30321d:	83 ec 4c             	sub    $0x4c,%esp
  303220:	8b 4d 10             	mov    0x10(%ebp),%ecx
  303223:	89 4d b0             	mov    %ecx,-0x50(%ebp)
  303226:	8b 4d 14             	mov    0x14(%ebp),%ecx
  303229:	89 4d b4             	mov    %ecx,-0x4c(%ebp)
  30322c:	8b 4d b0             	mov    -0x50(%ebp),%ecx
  30322f:	80 f5 00             	xor    $0x0,%ch
  303232:	89 c8                	mov    %ecx,%eax
  303234:	8b 4d b4             	mov    -0x4c(%ebp),%ecx
  303237:	80 f5 00             	xor    $0x0,%ch
  30323a:	89 ca                	mov    %ecx,%edx
  30323c:	09 d0                	or     %edx,%eax
  30323e:	85 c0                	test   %eax,%eax
  303240:	75 15                	jne    303257 <__format_add_idec+0x40>
  303242:	6a 30                	push   $0x30
  303244:	ff 75 0c             	push   0xc(%ebp)
  303247:	ff 75 08             	push   0x8(%ebp)
  30324a:	e8 1e fe ff ff       	call   30306d <__buf_add>
  30324f:	83 c4 0c             	add    $0xc,%esp
  303252:	e9 b9 00 00 00       	jmp    303310 <__format_add_idec+0xf9>
  303257:	8d 45 d0             	lea    -0x30(%ebp),%eax
  30325a:	89 45 c4             	mov    %eax,-0x3c(%ebp)
  30325d:	c7 45 cc 00 00 00 00 	movl   $0x0,-0x34(%ebp)
  303264:	83 7d b4 00          	cmpl   $0x0,-0x4c(%ebp)
  303268:	79 5f                	jns    3032c9 <__format_add_idec+0xb2>
  30326a:	6a 2d                	push   $0x2d
  30326c:	ff 75 0c             	push   0xc(%ebp)
  30326f:	ff 75 08             	push   0x8(%ebp)
  303272:	e8 f6 fd ff ff       	call   30306d <__buf_add>
  303277:	83 c4 0c             	add    $0xc,%esp
  30327a:	f7 5d b0             	negl   -0x50(%ebp)
  30327d:	83 55 b4 00          	adcl   $0x0,-0x4c(%ebp)
  303281:	f7 5d b4             	negl   -0x4c(%ebp)
  303284:	eb 43                	jmp    3032c9 <__format_add_idec+0xb2>
  303286:	8b 45 b0             	mov    -0x50(%ebp),%eax
  303289:	8b 55 b4             	mov    -0x4c(%ebp),%edx
  30328c:	6a 00                	push   $0x0
  30328e:	6a 0a                	push   $0xa
  303290:	52                   	push   %edx
  303291:	50                   	push   %eax
  303292:	e8 89 0f 00 00       	call   304220 <__moddi3>
  303297:	83 c4 10             	add    $0x10,%esp
  30329a:	8d 58 30             	lea    0x30(%eax),%ebx
  30329d:	8b 4d c4             	mov    -0x3c(%ebp),%ecx
  3032a0:	8b 45 cc             	mov    -0x34(%ebp),%eax
  3032a3:	8d 50 01             	lea    0x1(%eax),%edx
  3032a6:	89 55 cc             	mov    %edx,-0x34(%ebp)
  3032a9:	01 c8                	add    %ecx,%eax
  3032ab:	89 da                	mov    %ebx,%edx
  3032ad:	88 10                	mov    %dl,(%eax)
  3032af:	8b 45 b0             	mov    -0x50(%ebp),%eax
  3032b2:	8b 55 b4             	mov    -0x4c(%ebp),%edx
  3032b5:	6a 00                	push   $0x0
  3032b7:	6a 0a                	push   $0xa
  3032b9:	52                   	push   %edx
  3032ba:	50                   	push   %eax
  3032bb:	e8 20 0e 00 00       	call   3040e0 <__divdi3>
  3032c0:	83 c4 10             	add    $0x10,%esp
  3032c3:	89 45 b0             	mov    %eax,-0x50(%ebp)
  3032c6:	89 55 b4             	mov    %edx,-0x4c(%ebp)
  3032c9:	8b 45 b0             	mov    -0x50(%ebp),%eax
  3032cc:	80 f4 00             	xor    $0x0,%ah
  3032cf:	89 c6                	mov    %eax,%esi
  3032d1:	8b 45 b4             	mov    -0x4c(%ebp),%eax
  3032d4:	80 f4 00             	xor    $0x0,%ah
  3032d7:	89 c7                	mov    %eax,%edi
  3032d9:	89 f8                	mov    %edi,%eax
  3032db:	09 f0                	or     %esi,%eax
  3032dd:	85 c0                	test   %eax,%eax
  3032df:	75 a5                	jne    303286 <__format_add_idec+0x6f>
  3032e1:	eb 20                	jmp    303303 <__format_add_idec+0xec>
  3032e3:	8b 55 c4             	mov    -0x3c(%ebp),%edx
  3032e6:	8b 45 cc             	mov    -0x34(%ebp),%eax
  3032e9:	01 d0                	add    %edx,%eax
  3032eb:	0f b6 00             	movzbl (%eax),%eax
  3032ee:	0f be c0             	movsbl %al,%eax
  3032f1:	83 ec 04             	sub    $0x4,%esp
  3032f4:	50                   	push   %eax
  3032f5:	ff 75 0c             	push   0xc(%ebp)
  3032f8:	ff 75 08             	push   0x8(%ebp)
  3032fb:	e8 6d fd ff ff       	call   30306d <__buf_add>
  303300:	83 c4 10             	add    $0x10,%esp
  303303:	8b 45 cc             	mov    -0x34(%ebp),%eax
  303306:	8d 50 ff             	lea    -0x1(%eax),%edx
  303309:	89 55 cc             	mov    %edx,-0x34(%ebp)
  30330c:	85 c0                	test   %eax,%eax
  30330e:	75 d3                	jne    3032e3 <__format_add_idec+0xcc>
  303310:	8d 65 f4             	lea    -0xc(%ebp),%esp
  303313:	5b                   	pop    %ebx
  303314:	5e                   	pop    %esi
  303315:	5f                   	pop    %edi
  303316:	5d                   	pop    %ebp
  303317:	c3                   	ret    

00303318 <__format_add_udec>:
  303318:	55                   	push   %ebp
  303319:	89 e5                	mov    %esp,%ebp
  30331b:	57                   	push   %edi
  30331c:	56                   	push   %esi
  30331d:	53                   	push   %ebx
  30331e:	83 ec 4c             	sub    $0x4c,%esp
  303321:	8b 4d 10             	mov    0x10(%ebp),%ecx
  303324:	89 4d b0             	mov    %ecx,-0x50(%ebp)
  303327:	8b 4d 14             	mov    0x14(%ebp),%ecx
  30332a:	89 4d b4             	mov    %ecx,-0x4c(%ebp)
  30332d:	8b 4d b0             	mov    -0x50(%ebp),%ecx
  303330:	80 f5 00             	xor    $0x0,%ch
  303333:	89 c8                	mov    %ecx,%eax
  303335:	8b 4d b4             	mov    -0x4c(%ebp),%ecx
  303338:	80 f5 00             	xor    $0x0,%ch
  30333b:	89 ca                	mov    %ecx,%edx
  30333d:	09 d0                	or     %edx,%eax
  30333f:	85 c0                	test   %eax,%eax
  303341:	75 15                	jne    303358 <__format_add_udec+0x40>
  303343:	6a 30                	push   $0x30
  303345:	ff 75 0c             	push   0xc(%ebp)
  303348:	ff 75 08             	push   0x8(%ebp)
  30334b:	e8 1d fd ff ff       	call   30306d <__buf_add>
  303350:	83 c4 0c             	add    $0xc,%esp
  303353:	e9 99 00 00 00       	jmp    3033f1 <__format_add_udec+0xd9>
  303358:	8d 45 d0             	lea    -0x30(%ebp),%eax
  30335b:	89 45 c4             	mov    %eax,-0x3c(%ebp)
  30335e:	c7 45 cc 00 00 00 00 	movl   $0x0,-0x34(%ebp)
  303365:	eb 43                	jmp    3033aa <__format_add_udec+0x92>
  303367:	8b 45 b0             	mov    -0x50(%ebp),%eax
  30336a:	8b 55 b4             	mov    -0x4c(%ebp),%edx
  30336d:	6a 00                	push   $0x0
  30336f:	6a 0a                	push   $0xa
  303371:	52                   	push   %edx
  303372:	50                   	push   %eax
  303373:	e8 48 11 00 00       	call   3044c0 <__umoddi3>
  303378:	83 c4 10             	add    $0x10,%esp
  30337b:	8d 58 30             	lea    0x30(%eax),%ebx
  30337e:	8b 4d c4             	mov    -0x3c(%ebp),%ecx
  303381:	8b 45 cc             	mov    -0x34(%ebp),%eax
  303384:	8d 50 01             	lea    0x1(%eax),%edx
  303387:	89 55 cc             	mov    %edx,-0x34(%ebp)
  30338a:	01 c8                	add    %ecx,%eax
  30338c:	89 da                	mov    %ebx,%edx
  30338e:	88 10                	mov    %dl,(%eax)
  303390:	8b 45 b0             	mov    -0x50(%ebp),%eax
  303393:	8b 55 b4             	mov    -0x4c(%ebp),%edx
  303396:	6a 00                	push   $0x0
  303398:	6a 0a                	push   $0xa
  30339a:	52                   	push   %edx
  30339b:	50                   	push   %eax
  30339c:	e8 ff 0f 00 00       	call   3043a0 <__udivdi3>
  3033a1:	83 c4 10             	add    $0x10,%esp
  3033a4:	89 45 b0             	mov    %eax,-0x50(%ebp)
  3033a7:	89 55 b4             	mov    %edx,-0x4c(%ebp)
  3033aa:	8b 45 b0             	mov    -0x50(%ebp),%eax
  3033ad:	80 f4 00             	xor    $0x0,%ah
  3033b0:	89 c6                	mov    %eax,%esi
  3033b2:	8b 45 b4             	mov    -0x4c(%ebp),%eax
  3033b5:	80 f4 00             	xor    $0x0,%ah
  3033b8:	89 c7                	mov    %eax,%edi
  3033ba:	89 f8                	mov    %edi,%eax
  3033bc:	09 f0                	or     %esi,%eax
  3033be:	85 c0                	test   %eax,%eax
  3033c0:	75 a5                	jne    303367 <__format_add_udec+0x4f>
  3033c2:	eb 20                	jmp    3033e4 <__format_add_udec+0xcc>
  3033c4:	8b 55 c4             	mov    -0x3c(%ebp),%edx
  3033c7:	8b 45 cc             	mov    -0x34(%ebp),%eax
  3033ca:	01 d0                	add    %edx,%eax
  3033cc:	0f b6 00             	movzbl (%eax),%eax
  3033cf:	0f be c0             	movsbl %al,%eax
  3033d2:	83 ec 04             	sub    $0x4,%esp
  3033d5:	50                   	push   %eax
  3033d6:	ff 75 0c             	push   0xc(%ebp)
  3033d9:	ff 75 08             	push   0x8(%ebp)
  3033dc:	e8 8c fc ff ff       	call   30306d <__buf_add>
  3033e1:	83 c4 10             	add    $0x10,%esp
  3033e4:	8b 45 cc             	mov    -0x34(%ebp),%eax
  3033e7:	8d 50 ff             	lea    -0x1(%eax),%edx
  3033ea:	89 55 cc             	mov    %edx,-0x34(%ebp)
  3033ed:	85 c0                	test   %eax,%eax
  3033ef:	75 d3                	jne    3033c4 <__format_add_udec+0xac>
  3033f1:	8d 65 f4             	lea    -0xc(%ebp),%esp
  3033f4:	5b                   	pop    %ebx
  3033f5:	5e                   	pop    %esi
  3033f6:	5f                   	pop    %edi
  3033f7:	5d                   	pop    %ebp
  3033f8:	c3                   	ret    

003033f9 <uint64_to_hex>:
  3033f9:	55                   	push   %ebp
  3033fa:	89 e5                	mov    %esp,%ebp
  3033fc:	57                   	push   %edi
  3033fd:	56                   	push   %esi
  3033fe:	53                   	push   %ebx
  3033ff:	83 ec 34             	sub    $0x34,%esp
  303402:	8b 45 10             	mov    0x10(%ebp),%eax
  303405:	89 45 c8             	mov    %eax,-0x38(%ebp)
  303408:	8b 45 14             	mov    0x14(%ebp),%eax
  30340b:	89 45 cc             	mov    %eax,-0x34(%ebp)
  30340e:	c7 45 ec 00 00 00 00 	movl   $0x0,-0x14(%ebp)
  303415:	83 7d 18 00          	cmpl   $0x0,0x18(%ebp)
  303419:	74 06                	je     303421 <uint64_to_hex+0x28>
  30341b:	83 7d 18 10          	cmpl   $0x10,0x18(%ebp)
  30341f:	76 4b                	jbe    30346c <uint64_to_hex+0x73>
  303421:	c7 45 18 ff ff ff ff 	movl   $0xffffffff,0x18(%ebp)
  303428:	eb 42                	jmp    30346c <uint64_to_hex+0x73>
  30342a:	8b 45 c8             	mov    -0x38(%ebp),%eax
  30342d:	83 e0 0f             	and    $0xf,%eax
  303430:	89 c6                	mov    %eax,%esi
  303432:	8b 45 cc             	mov    -0x34(%ebp),%eax
  303435:	83 e0 00             	and    $0x0,%eax
  303438:	89 c7                	mov    %eax,%edi
  30343a:	8d 86 64 49 30 00    	lea    0x304964(%esi),%eax
  303440:	0f b6 10             	movzbl (%eax),%edx
  303443:	8d 45 d8             	lea    -0x28(%ebp),%eax
  303446:	89 45 c4             	mov    %eax,-0x3c(%ebp)
  303449:	8b 45 ec             	mov    -0x14(%ebp),%eax
  30344c:	03 45 c4             	add    -0x3c(%ebp),%eax
  30344f:	88 10                	mov    %dl,(%eax)
  303451:	8b 45 c8             	mov    -0x38(%ebp),%eax
  303454:	8b 55 cc             	mov    -0x34(%ebp),%edx
  303457:	0f ac d0 04          	shrd   $0x4,%edx,%eax
  30345b:	c1 ea 04             	shr    $0x4,%edx
  30345e:	89 45 c8             	mov    %eax,-0x38(%ebp)
  303461:	89 55 cc             	mov    %edx,-0x34(%ebp)
  303464:	83 45 ec 01          	addl   $0x1,-0x14(%ebp)
  303468:	83 6d 18 01          	subl   $0x1,0x18(%ebp)
  30346c:	83 7d 18 00          	cmpl   $0x0,0x18(%ebp)
  303470:	74 24                	je     303496 <uint64_to_hex+0x9d>
  303472:	83 7d 18 10          	cmpl   $0x10,0x18(%ebp)
  303476:	76 b2                	jbe    30342a <uint64_to_hex+0x31>
  303478:	8b 45 c8             	mov    -0x38(%ebp),%eax
  30347b:	80 f4 00             	xor    $0x0,%ah
  30347e:	89 c1                	mov    %eax,%ecx
  303480:	8b 45 cc             	mov    -0x34(%ebp),%eax
  303483:	80 f4 00             	xor    $0x0,%ah
  303486:	89 c3                	mov    %eax,%ebx
  303488:	89 d8                	mov    %ebx,%eax
  30348a:	09 c8                	or     %ecx,%eax
  30348c:	85 c0                	test   %eax,%eax
  30348e:	75 9a                	jne    30342a <uint64_to_hex+0x31>
  303490:	83 7d ec 00          	cmpl   $0x0,-0x14(%ebp)
  303494:	74 94                	je     30342a <uint64_to_hex+0x31>
  303496:	8b 45 ec             	mov    -0x14(%ebp),%eax
  303499:	89 45 e8             	mov    %eax,-0x18(%ebp)
  30349c:	eb 1d                	jmp    3034bb <uint64_to_hex+0xc2>
  30349e:	8d 55 d8             	lea    -0x28(%ebp),%edx
  3034a1:	8b 45 ec             	mov    -0x14(%ebp),%eax
  3034a4:	01 d0                	add    %edx,%eax
  3034a6:	0f b6 00             	movzbl (%eax),%eax
  3034a9:	0f be c0             	movsbl %al,%eax
  3034ac:	50                   	push   %eax
  3034ad:	ff 75 0c             	push   0xc(%ebp)
  3034b0:	ff 75 08             	push   0x8(%ebp)
  3034b3:	e8 b5 fb ff ff       	call   30306d <__buf_add>
  3034b8:	83 c4 0c             	add    $0xc,%esp
  3034bb:	8b 45 ec             	mov    -0x14(%ebp),%eax
  3034be:	8d 50 ff             	lea    -0x1(%eax),%edx
  3034c1:	89 55 ec             	mov    %edx,-0x14(%ebp)
  3034c4:	85 c0                	test   %eax,%eax
  3034c6:	75 d6                	jne    30349e <uint64_to_hex+0xa5>
  3034c8:	8b 45 e8             	mov    -0x18(%ebp),%eax
  3034cb:	8d 65 f4             	lea    -0xc(%ebp),%esp
  3034ce:	5b                   	pop    %ebx
  3034cf:	5e                   	pop    %esi
  3034d0:	5f                   	pop    %edi
  3034d1:	5d                   	pop    %ebp
  3034d2:	c3                   	ret    

003034d3 <__format_add_hex>:
  3034d3:	55                   	push   %ebp
  3034d4:	89 e5                	mov    %esp,%ebp
  3034d6:	83 ec 08             	sub    $0x8,%esp
  3034d9:	8b 45 10             	mov    0x10(%ebp),%eax
  3034dc:	89 45 f8             	mov    %eax,-0x8(%ebp)
  3034df:	8b 45 14             	mov    0x14(%ebp),%eax
  3034e2:	89 45 fc             	mov    %eax,-0x4(%ebp)
  3034e5:	83 ec 04             	sub    $0x4,%esp
  3034e8:	ff 75 18             	push   0x18(%ebp)
  3034eb:	ff 75 fc             	push   -0x4(%ebp)
  3034ee:	ff 75 f8             	push   -0x8(%ebp)
  3034f1:	ff 75 0c             	push   0xc(%ebp)
  3034f4:	ff 75 08             	push   0x8(%ebp)
  3034f7:	e8 fd fe ff ff       	call   3033f9 <uint64_to_hex>
  3034fc:	83 c4 18             	add    $0x18,%esp
  3034ff:	90                   	nop
  303500:	c9                   	leave  
  303501:	c3                   	ret    

00303502 <__vsnprintf>:
  303502:	55                   	push   %ebp
  303503:	89 e5                	mov    %esp,%ebp
  303505:	83 ec 78             	sub    $0x78,%esp
  303508:	8b 45 08             	mov    0x8(%ebp),%eax
  30350b:	89 45 94             	mov    %eax,-0x6c(%ebp)
  30350e:	c7 45 9c 00 00 00 00 	movl   $0x0,-0x64(%ebp)
  303515:	c7 45 f0 00 00 00 00 	movl   $0x0,-0x10(%ebp)
  30351c:	c7 45 ec 00 00 00 00 	movl   $0x0,-0x14(%ebp)
  303523:	c7 45 f4 04 00 00 00 	movl   $0x4,-0xc(%ebp)
  30352a:	83 7d 0c 00          	cmpl   $0x0,0xc(%ebp)
  30352e:	0f 84 ac 03 00 00    	je     3038e0 <__vsnprintf+0x3de>
  303534:	83 6d 0c 01          	subl   $0x1,0xc(%ebp)
  303538:	e9 a3 03 00 00       	jmp    3038e0 <__vsnprintf+0x3de>
  30353d:	8b 45 10             	mov    0x10(%ebp),%eax
  303540:	8d 50 01             	lea    0x1(%eax),%edx
  303543:	89 55 10             	mov    %edx,0x10(%ebp)
  303546:	0f b6 00             	movzbl (%eax),%eax
  303549:	88 45 d7             	mov    %al,-0x29(%ebp)
  30354c:	83 7d f0 00          	cmpl   $0x0,-0x10(%ebp)
  303550:	0f 84 5d 03 00 00    	je     3038b3 <__vsnprintf+0x3b1>
  303556:	80 7d d7 6c          	cmpb   $0x6c,-0x29(%ebp)
  30355a:	75 1e                	jne    30357a <__vsnprintf+0x78>
  30355c:	83 7d ec 00          	cmpl   $0x0,-0x14(%ebp)
  303560:	74 0c                	je     30356e <__vsnprintf+0x6c>
  303562:	c7 45 f4 08 00 00 00 	movl   $0x8,-0xc(%ebp)
  303569:	e9 72 03 00 00       	jmp    3038e0 <__vsnprintf+0x3de>
  30356e:	c7 45 ec 01 00 00 00 	movl   $0x1,-0x14(%ebp)
  303575:	e9 66 03 00 00       	jmp    3038e0 <__vsnprintf+0x3de>
  30357a:	80 7d d7 68          	cmpb   $0x68,-0x29(%ebp)
  30357e:	75 0d                	jne    30358d <__vsnprintf+0x8b>
  303580:	8b 45 f4             	mov    -0xc(%ebp),%eax
  303583:	d1 e8                	shr    %eax
  303585:	89 45 f4             	mov    %eax,-0xc(%ebp)
  303588:	e9 53 03 00 00       	jmp    3038e0 <__vsnprintf+0x3de>
  30358d:	80 7d d7 73          	cmpb   $0x73,-0x29(%ebp)
  303591:	75 25                	jne    3035b8 <__vsnprintf+0xb6>
  303593:	8b 45 14             	mov    0x14(%ebp),%eax
  303596:	8d 50 04             	lea    0x4(%eax),%edx
  303599:	89 55 14             	mov    %edx,0x14(%ebp)
  30359c:	8b 00                	mov    (%eax),%eax
  30359e:	89 45 a0             	mov    %eax,-0x60(%ebp)
  3035a1:	ff 75 a0             	push   -0x60(%ebp)
  3035a4:	ff 75 0c             	push   0xc(%ebp)
  3035a7:	8d 45 94             	lea    -0x6c(%ebp),%eax
  3035aa:	50                   	push   %eax
  3035ab:	e8 ac fb ff ff       	call   30315c <__format_add_str>
  3035b0:	83 c4 0c             	add    $0xc,%esp
  3035b3:	e9 eb 02 00 00       	jmp    3038a3 <__vsnprintf+0x3a1>
  3035b8:	80 7d d7 63          	cmpb   $0x63,-0x29(%ebp)
  3035bc:	75 25                	jne    3035e3 <__vsnprintf+0xe1>
  3035be:	8b 45 14             	mov    0x14(%ebp),%eax
  3035c1:	8d 50 04             	lea    0x4(%eax),%edx
  3035c4:	89 55 14             	mov    %edx,0x14(%ebp)
  3035c7:	8b 00                	mov    (%eax),%eax
  3035c9:	89 45 a4             	mov    %eax,-0x5c(%ebp)
  3035cc:	ff 75 a4             	push   -0x5c(%ebp)
  3035cf:	ff 75 0c             	push   0xc(%ebp)
  3035d2:	8d 45 94             	lea    -0x6c(%ebp),%eax
  3035d5:	50                   	push   %eax
  3035d6:	e8 b2 fb ff ff       	call   30318d <__format_add_chr>
  3035db:	83 c4 0c             	add    $0xc,%esp
  3035de:	e9 c0 02 00 00       	jmp    3038a3 <__vsnprintf+0x3a1>
  3035e3:	80 7d d7 62          	cmpb   $0x62,-0x29(%ebp)
  3035e7:	75 34                	jne    30361d <__vsnprintf+0x11b>
  3035e9:	8b 45 14             	mov    0x14(%ebp),%eax
  3035ec:	8d 50 04             	lea    0x4(%eax),%edx
  3035ef:	89 55 14             	mov    %edx,0x14(%ebp)
  3035f2:	8b 00                	mov    (%eax),%eax
  3035f4:	89 45 a8             	mov    %eax,-0x58(%ebp)
  3035f7:	c7 45 ac 00 00 00 00 	movl   $0x0,-0x54(%ebp)
  3035fe:	83 ec 04             	sub    $0x4,%esp
  303601:	6a 20                	push   $0x20
  303603:	ff 75 ac             	push   -0x54(%ebp)
  303606:	ff 75 a8             	push   -0x58(%ebp)
  303609:	ff 75 0c             	push   0xc(%ebp)
  30360c:	8d 45 94             	lea    -0x6c(%ebp),%eax
  30360f:	50                   	push   %eax
  303610:	e8 93 fb ff ff       	call   3031a8 <__format_add_bin>
  303615:	83 c4 18             	add    $0x18,%esp
  303618:	e9 86 02 00 00       	jmp    3038a3 <__vsnprintf+0x3a1>
  30361d:	80 7d d7 42          	cmpb   $0x42,-0x29(%ebp)
  303621:	75 33                	jne    303656 <__vsnprintf+0x154>
  303623:	8b 45 14             	mov    0x14(%ebp),%eax
  303626:	8d 50 08             	lea    0x8(%eax),%edx
  303629:	89 55 14             	mov    %edx,0x14(%ebp)
  30362c:	8b 50 04             	mov    0x4(%eax),%edx
  30362f:	8b 00                	mov    (%eax),%eax
  303631:	89 45 b0             	mov    %eax,-0x50(%ebp)
  303634:	89 55 b4             	mov    %edx,-0x4c(%ebp)
  303637:	83 ec 04             	sub    $0x4,%esp
  30363a:	6a 40                	push   $0x40
  30363c:	ff 75 b4             	push   -0x4c(%ebp)
  30363f:	ff 75 b0             	push   -0x50(%ebp)
  303642:	ff 75 0c             	push   0xc(%ebp)
  303645:	8d 45 94             	lea    -0x6c(%ebp),%eax
  303648:	50                   	push   %eax
  303649:	e8 5a fb ff ff       	call   3031a8 <__format_add_bin>
  30364e:	83 c4 18             	add    $0x18,%esp
  303651:	e9 4d 02 00 00       	jmp    3038a3 <__vsnprintf+0x3a1>
  303656:	80 7d d7 64          	cmpb   $0x64,-0x29(%ebp)
  30365a:	74 0a                	je     303666 <__vsnprintf+0x164>
  30365c:	80 7d d7 69          	cmpb   $0x69,-0x29(%ebp)
  303660:	0f 85 80 00 00 00    	jne    3036e6 <__vsnprintf+0x1e4>
  303666:	83 7d f4 07          	cmpl   $0x7,-0xc(%ebp)
  30366a:	76 16                	jbe    303682 <__vsnprintf+0x180>
  30366c:	8b 45 14             	mov    0x14(%ebp),%eax
  30366f:	8d 50 08             	lea    0x8(%eax),%edx
  303672:	89 55 14             	mov    %edx,0x14(%ebp)
  303675:	8b 50 04             	mov    0x4(%eax),%edx
  303678:	8b 00                	mov    (%eax),%eax
  30367a:	89 45 e0             	mov    %eax,-0x20(%ebp)
  30367d:	89 55 e4             	mov    %edx,-0x1c(%ebp)
  303680:	eb 4a                	jmp    3036cc <__vsnprintf+0x1ca>
  303682:	83 7d f4 04          	cmpl   $0x4,-0xc(%ebp)
  303686:	75 14                	jne    30369c <__vsnprintf+0x19a>
  303688:	8b 45 14             	mov    0x14(%ebp),%eax
  30368b:	8d 50 04             	lea    0x4(%eax),%edx
  30368e:	89 55 14             	mov    %edx,0x14(%ebp)
  303691:	8b 00                	mov    (%eax),%eax
  303693:	99                   	cltd   
  303694:	89 45 e0             	mov    %eax,-0x20(%ebp)
  303697:	89 55 e4             	mov    %edx,-0x1c(%ebp)
  30369a:	eb 30                	jmp    3036cc <__vsnprintf+0x1ca>
  30369c:	83 7d f4 02          	cmpl   $0x2,-0xc(%ebp)
  3036a0:	75 15                	jne    3036b7 <__vsnprintf+0x1b5>
  3036a2:	8b 45 14             	mov    0x14(%ebp),%eax
  3036a5:	8d 50 04             	lea    0x4(%eax),%edx
  3036a8:	89 55 14             	mov    %edx,0x14(%ebp)
  3036ab:	8b 00                	mov    (%eax),%eax
  3036ad:	98                   	cwtl   
  3036ae:	99                   	cltd   
  3036af:	89 45 e0             	mov    %eax,-0x20(%ebp)
  3036b2:	89 55 e4             	mov    %edx,-0x1c(%ebp)
  3036b5:	eb 15                	jmp    3036cc <__vsnprintf+0x1ca>
  3036b7:	8b 45 14             	mov    0x14(%ebp),%eax
  3036ba:	8d 50 04             	lea    0x4(%eax),%edx
  3036bd:	89 55 14             	mov    %edx,0x14(%ebp)
  3036c0:	8b 00                	mov    (%eax),%eax
  3036c2:	0f be c0             	movsbl %al,%eax
  3036c5:	99                   	cltd   
  3036c6:	89 45 e0             	mov    %eax,-0x20(%ebp)
  3036c9:	89 55 e4             	mov    %edx,-0x1c(%ebp)
  3036cc:	ff 75 e4             	push   -0x1c(%ebp)
  3036cf:	ff 75 e0             	push   -0x20(%ebp)
  3036d2:	ff 75 0c             	push   0xc(%ebp)
  3036d5:	8d 45 94             	lea    -0x6c(%ebp),%eax
  3036d8:	50                   	push   %eax
  3036d9:	e8 39 fb ff ff       	call   303217 <__format_add_idec>
  3036de:	83 c4 10             	add    $0x10,%esp
  3036e1:	e9 bd 01 00 00       	jmp    3038a3 <__vsnprintf+0x3a1>
  3036e6:	80 7d d7 75          	cmpb   $0x75,-0x29(%ebp)
  3036ea:	74 0a                	je     3036f6 <__vsnprintf+0x1f4>
  3036ec:	80 7d d7 78          	cmpb   $0x78,-0x29(%ebp)
  3036f0:	0f 85 b0 00 00 00    	jne    3037a6 <__vsnprintf+0x2a4>
  3036f6:	83 7d f4 07          	cmpl   $0x7,-0xc(%ebp)
  3036fa:	76 16                	jbe    303712 <__vsnprintf+0x210>
  3036fc:	8b 45 14             	mov    0x14(%ebp),%eax
  3036ff:	8d 50 08             	lea    0x8(%eax),%edx
  303702:	89 55 14             	mov    %edx,0x14(%ebp)
  303705:	8b 50 04             	mov    0x4(%eax),%edx
  303708:	8b 00                	mov    (%eax),%eax
  30370a:	89 45 d8             	mov    %eax,-0x28(%ebp)
  30370d:	89 55 dc             	mov    %edx,-0x24(%ebp)
  303710:	eb 55                	jmp    303767 <__vsnprintf+0x265>
  303712:	83 7d f4 04          	cmpl   $0x4,-0xc(%ebp)
  303716:	75 17                	jne    30372f <__vsnprintf+0x22d>
  303718:	8b 45 14             	mov    0x14(%ebp),%eax
  30371b:	8d 50 04             	lea    0x4(%eax),%edx
  30371e:	89 55 14             	mov    %edx,0x14(%ebp)
  303721:	8b 00                	mov    (%eax),%eax
  303723:	89 45 d8             	mov    %eax,-0x28(%ebp)
  303726:	c7 45 dc 00 00 00 00 	movl   $0x0,-0x24(%ebp)
  30372d:	eb 38                	jmp    303767 <__vsnprintf+0x265>
  30372f:	83 7d f4 02          	cmpl   $0x2,-0xc(%ebp)
  303733:	75 1a                	jne    30374f <__vsnprintf+0x24d>
  303735:	8b 45 14             	mov    0x14(%ebp),%eax
  303738:	8d 50 04             	lea    0x4(%eax),%edx
  30373b:	89 55 14             	mov    %edx,0x14(%ebp)
  30373e:	8b 00                	mov    (%eax),%eax
  303740:	0f b7 c0             	movzwl %ax,%eax
  303743:	89 45 d8             	mov    %eax,-0x28(%ebp)
  303746:	c7 45 dc 00 00 00 00 	movl   $0x0,-0x24(%ebp)
  30374d:	eb 18                	jmp    303767 <__vsnprintf+0x265>
  30374f:	8b 45 14             	mov    0x14(%ebp),%eax
  303752:	8d 50 04             	lea    0x4(%eax),%edx
  303755:	89 55 14             	mov    %edx,0x14(%ebp)
  303758:	8b 00                	mov    (%eax),%eax
  30375a:	0f b6 c0             	movzbl %al,%eax
  30375d:	89 45 d8             	mov    %eax,-0x28(%ebp)
  303760:	c7 45 dc 00 00 00 00 	movl   $0x0,-0x24(%ebp)
  303767:	80 7d d7 75          	cmpb   $0x75,-0x29(%ebp)
  30376b:	75 1a                	jne    303787 <__vsnprintf+0x285>
  30376d:	ff 75 dc             	push   -0x24(%ebp)
  303770:	ff 75 d8             	push   -0x28(%ebp)
  303773:	ff 75 0c             	push   0xc(%ebp)
  303776:	8d 45 94             	lea    -0x6c(%ebp),%eax
  303779:	50                   	push   %eax
  30377a:	e8 99 fb ff ff       	call   303318 <__format_add_udec>
  30377f:	83 c4 10             	add    $0x10,%esp
  303782:	e9 1c 01 00 00       	jmp    3038a3 <__vsnprintf+0x3a1>
  303787:	83 ec 0c             	sub    $0xc,%esp
  30378a:	6a 00                	push   $0x0
  30378c:	ff 75 dc             	push   -0x24(%ebp)
  30378f:	ff 75 d8             	push   -0x28(%ebp)
  303792:	ff 75 0c             	push   0xc(%ebp)
  303795:	8d 45 94             	lea    -0x6c(%ebp),%eax
  303798:	50                   	push   %eax
  303799:	e8 35 fd ff ff       	call   3034d3 <__format_add_hex>
  30379e:	83 c4 20             	add    $0x20,%esp
  3037a1:	e9 fd 00 00 00       	jmp    3038a3 <__vsnprintf+0x3a1>
  3037a6:	80 7d d7 44          	cmpb   $0x44,-0x29(%ebp)
  3037aa:	75 2e                	jne    3037da <__vsnprintf+0x2d8>
  3037ac:	8b 45 14             	mov    0x14(%ebp),%eax
  3037af:	8d 50 08             	lea    0x8(%eax),%edx
  3037b2:	89 55 14             	mov    %edx,0x14(%ebp)
  3037b5:	8b 50 04             	mov    0x4(%eax),%edx
  3037b8:	8b 00                	mov    (%eax),%eax
  3037ba:	89 45 b8             	mov    %eax,-0x48(%ebp)
  3037bd:	89 55 bc             	mov    %edx,-0x44(%ebp)
  3037c0:	ff 75 bc             	push   -0x44(%ebp)
  3037c3:	ff 75 b8             	push   -0x48(%ebp)
  3037c6:	ff 75 0c             	push   0xc(%ebp)
  3037c9:	8d 45 94             	lea    -0x6c(%ebp),%eax
  3037cc:	50                   	push   %eax
  3037cd:	e8 45 fa ff ff       	call   303217 <__format_add_idec>
  3037d2:	83 c4 10             	add    $0x10,%esp
  3037d5:	e9 c9 00 00 00       	jmp    3038a3 <__vsnprintf+0x3a1>
  3037da:	80 7d d7 58          	cmpb   $0x58,-0x29(%ebp)
  3037de:	75 33                	jne    303813 <__vsnprintf+0x311>
  3037e0:	8b 45 14             	mov    0x14(%ebp),%eax
  3037e3:	8d 50 08             	lea    0x8(%eax),%edx
  3037e6:	89 55 14             	mov    %edx,0x14(%ebp)
  3037e9:	8b 50 04             	mov    0x4(%eax),%edx
  3037ec:	8b 00                	mov    (%eax),%eax
  3037ee:	89 45 c0             	mov    %eax,-0x40(%ebp)
  3037f1:	89 55 c4             	mov    %edx,-0x3c(%ebp)
  3037f4:	83 ec 0c             	sub    $0xc,%esp
  3037f7:	6a 00                	push   $0x0
  3037f9:	ff 75 c4             	push   -0x3c(%ebp)
  3037fc:	ff 75 c0             	push   -0x40(%ebp)
  3037ff:	ff 75 0c             	push   0xc(%ebp)
  303802:	8d 45 94             	lea    -0x6c(%ebp),%eax
  303805:	50                   	push   %eax
  303806:	e8 c8 fc ff ff       	call   3034d3 <__format_add_hex>
  30380b:	83 c4 20             	add    $0x20,%esp
  30380e:	e9 90 00 00 00       	jmp    3038a3 <__vsnprintf+0x3a1>
  303813:	80 7d d7 70          	cmpb   $0x70,-0x29(%ebp)
  303817:	75 48                	jne    303861 <__vsnprintf+0x35f>
  303819:	8b 45 14             	mov    0x14(%ebp),%eax
  30381c:	8d 50 04             	lea    0x4(%eax),%edx
  30381f:	89 55 14             	mov    %edx,0x14(%ebp)
  303822:	8b 00                	mov    (%eax),%eax
  303824:	89 45 c8             	mov    %eax,-0x38(%ebp)
  303827:	c7 45 cc 00 00 00 00 	movl   $0x0,-0x34(%ebp)
  30382e:	83 ec 04             	sub    $0x4,%esp
  303831:	68 00 46 30 00       	push   $0x304600
  303836:	ff 75 0c             	push   0xc(%ebp)
  303839:	8d 45 94             	lea    -0x6c(%ebp),%eax
  30383c:	50                   	push   %eax
  30383d:	e8 1a f9 ff ff       	call   30315c <__format_add_str>
  303842:	83 c4 10             	add    $0x10,%esp
  303845:	83 ec 0c             	sub    $0xc,%esp
  303848:	6a 00                	push   $0x0
  30384a:	ff 75 cc             	push   -0x34(%ebp)
  30384d:	ff 75 c8             	push   -0x38(%ebp)
  303850:	ff 75 0c             	push   0xc(%ebp)
  303853:	8d 45 94             	lea    -0x6c(%ebp),%eax
  303856:	50                   	push   %eax
  303857:	e8 77 fc ff ff       	call   3034d3 <__format_add_hex>
  30385c:	83 c4 20             	add    $0x20,%esp
  30385f:	eb 42                	jmp    3038a3 <__vsnprintf+0x3a1>
  303861:	80 7d d7 2f          	cmpb   $0x2f,-0x29(%ebp)
  303865:	7e 08                	jle    30386f <__vsnprintf+0x36d>
  303867:	80 7d d7 39          	cmpb   $0x39,-0x29(%ebp)
  30386b:	7f 02                	jg     30386f <__vsnprintf+0x36d>
  30386d:	eb 71                	jmp    3038e0 <__vsnprintf+0x3de>
  30386f:	80 7d d7 25          	cmpb   $0x25,-0x29(%ebp)
  303873:	75 19                	jne    30388e <__vsnprintf+0x38c>
  303875:	0f be 45 d7          	movsbl -0x29(%ebp),%eax
  303879:	83 ec 04             	sub    $0x4,%esp
  30387c:	50                   	push   %eax
  30387d:	ff 75 0c             	push   0xc(%ebp)
  303880:	8d 45 94             	lea    -0x6c(%ebp),%eax
  303883:	50                   	push   %eax
  303884:	e8 e4 f7 ff ff       	call   30306d <__buf_add>
  303889:	83 c4 10             	add    $0x10,%esp
  30388c:	eb 15                	jmp    3038a3 <__vsnprintf+0x3a1>
  30388e:	0f be 45 d7          	movsbl -0x29(%ebp),%eax
  303892:	83 ec 08             	sub    $0x8,%esp
  303895:	50                   	push   %eax
  303896:	68 03 46 30 00       	push   $0x304603
  30389b:	e8 08 f8 ff ff       	call   3030a8 <panic>
  3038a0:	83 c4 10             	add    $0x10,%esp
  3038a3:	c7 45 f0 00 00 00 00 	movl   $0x0,-0x10(%ebp)
  3038aa:	c7 45 ec 00 00 00 00 	movl   $0x0,-0x14(%ebp)
  3038b1:	eb 2d                	jmp    3038e0 <__vsnprintf+0x3de>
  3038b3:	80 7d d7 25          	cmpb   $0x25,-0x29(%ebp)
  3038b7:	75 10                	jne    3038c9 <__vsnprintf+0x3c7>
  3038b9:	c7 45 f0 01 00 00 00 	movl   $0x1,-0x10(%ebp)
  3038c0:	c7 45 f4 04 00 00 00 	movl   $0x4,-0xc(%ebp)
  3038c7:	eb 17                	jmp    3038e0 <__vsnprintf+0x3de>
  3038c9:	0f be 45 d7          	movsbl -0x29(%ebp),%eax
  3038cd:	83 ec 04             	sub    $0x4,%esp
  3038d0:	50                   	push   %eax
  3038d1:	ff 75 0c             	push   0xc(%ebp)
  3038d4:	8d 45 94             	lea    -0x6c(%ebp),%eax
  3038d7:	50                   	push   %eax
  3038d8:	e8 90 f7 ff ff       	call   30306d <__buf_add>
  3038dd:	83 c4 10             	add    $0x10,%esp
  3038e0:	8b 45 10             	mov    0x10(%ebp),%eax
  3038e3:	0f b6 00             	movzbl (%eax),%eax
  3038e6:	84 c0                	test   %al,%al
  3038e8:	0f 85 4f fc ff ff    	jne    30353d <__vsnprintf+0x3b>
  3038ee:	8b 4d 94             	mov    -0x6c(%ebp),%ecx
  3038f1:	8b 45 9c             	mov    -0x64(%ebp),%eax
  3038f4:	8d 50 01             	lea    0x1(%eax),%edx
  3038f7:	89 55 9c             	mov    %edx,-0x64(%ebp)
  3038fa:	01 c8                	add    %ecx,%eax
  3038fc:	c6 00 00             	movb   $0x0,(%eax)
  3038ff:	8b 45 9c             	mov    -0x64(%ebp),%eax
  303902:	c9                   	leave  
  303903:	c3                   	ret    

00303904 <__uart_flush_recv>:
  303904:	55                   	push   %ebp
  303905:	89 e5                	mov    %esp,%ebp
  303907:	83 ec 14             	sub    $0x14,%esp
  30390a:	8b 45 08             	mov    0x8(%ebp),%eax
  30390d:	66 89 45 ec          	mov    %ax,-0x14(%ebp)
  303911:	eb 0a                	jmp    30391d <__uart_flush_recv+0x19>
  303913:	0f b7 45 ec          	movzwl -0x14(%ebp),%eax
  303917:	89 c2                	mov    %eax,%edx
  303919:	ec                   	in     (%dx),%al
  30391a:	88 45 fe             	mov    %al,-0x2(%ebp)
  30391d:	0f b7 45 ec          	movzwl -0x14(%ebp),%eax
  303921:	83 c0 05             	add    $0x5,%eax
  303924:	89 c2                	mov    %eax,%edx
  303926:	ec                   	in     (%dx),%al
  303927:	88 45 ff             	mov    %al,-0x1(%ebp)
  30392a:	0f b6 45 ff          	movzbl -0x1(%ebp),%eax
  30392e:	0f b6 c0             	movzbl %al,%eax
  303931:	83 e0 01             	and    $0x1,%eax
  303934:	85 c0                	test   %eax,%eax
  303936:	75 db                	jne    303913 <__uart_flush_recv+0xf>
  303938:	90                   	nop
  303939:	90                   	nop
  30393a:	c9                   	leave  
  30393b:	c3                   	ret    

0030393c <__uart_fifo_init>:
  30393c:	55                   	push   %ebp
  30393d:	89 e5                	mov    %esp,%ebp
  30393f:	83 ec 14             	sub    $0x14,%esp
  303942:	8b 45 08             	mov    0x8(%ebp),%eax
  303945:	66 89 45 ec          	mov    %ax,-0x14(%ebp)
  303949:	0f b7 45 ec          	movzwl -0x14(%ebp),%eax
  30394d:	8d 50 03             	lea    0x3(%eax),%edx
  303950:	b8 bf 00 00 00       	mov    $0xbf,%eax
  303955:	ee                   	out    %al,(%dx)
  303956:	c6 45 fe 00          	movb   $0x0,-0x2(%ebp)
  30395a:	0f b6 45 fe          	movzbl -0x2(%ebp),%eax
  30395e:	83 c8 10             	or     $0x10,%eax
  303961:	88 45 fe             	mov    %al,-0x2(%ebp)
  303964:	0f b6 45 fe          	movzbl -0x2(%ebp),%eax
  303968:	0f b7 55 ec          	movzwl -0x14(%ebp),%edx
  30396c:	83 c2 02             	add    $0x2,%edx
  30396f:	ee                   	out    %al,(%dx)
  303970:	0f b6 45 ff          	movzbl -0x1(%ebp),%eax
  303974:	83 e0 fe             	and    $0xfffffffe,%eax
  303977:	88 45 ff             	mov    %al,-0x1(%ebp)
  30397a:	0f b6 45 ff          	movzbl -0x1(%ebp),%eax
  30397e:	83 e0 f7             	and    $0xfffffff7,%eax
  303981:	88 45 ff             	mov    %al,-0x1(%ebp)
  303984:	0f b6 45 ff          	movzbl -0x1(%ebp),%eax
  303988:	0f b7 55 ec          	movzwl -0x14(%ebp),%edx
  30398c:	83 c2 02             	add    $0x2,%edx
  30398f:	ee                   	out    %al,(%dx)
  303990:	0f b7 45 ec          	movzwl -0x14(%ebp),%eax
  303994:	8d 50 03             	lea    0x3(%eax),%edx
  303997:	b8 00 00 00 00       	mov    $0x0,%eax
  30399c:	ee                   	out    %al,(%dx)
  30399d:	c6 45 fe 00          	movb   $0x0,-0x2(%ebp)
  3039a1:	0f b6 45 fe          	movzbl -0x2(%ebp),%eax
  3039a5:	83 c8 40             	or     $0x40,%eax
  3039a8:	88 45 fe             	mov    %al,-0x2(%ebp)
  3039ab:	0f b6 45 fe          	movzbl -0x2(%ebp),%eax
  3039af:	83 c8 80             	or     $0xffffff80,%eax
  3039b2:	88 45 fe             	mov    %al,-0x2(%ebp)
  3039b5:	0f b6 45 fe          	movzbl -0x2(%ebp),%eax
  3039b9:	0f b7 55 ec          	movzwl -0x14(%ebp),%edx
  3039bd:	83 c2 02             	add    $0x2,%edx
  3039c0:	ee                   	out    %al,(%dx)
  3039c1:	90                   	nop
  3039c2:	c9                   	leave  
  3039c3:	c3                   	ret    

003039c4 <__uart_common_init>:
  3039c4:	55                   	push   %ebp
  3039c5:	89 e5                	mov    %esp,%ebp
  3039c7:	83 ec 14             	sub    $0x14,%esp
  3039ca:	8b 45 08             	mov    0x8(%ebp),%eax
  3039cd:	66 89 45 ec          	mov    %ax,-0x14(%ebp)
  3039d1:	0f b7 45 ec          	movzwl -0x14(%ebp),%eax
  3039d5:	8d 50 03             	lea    0x3(%eax),%edx
  3039d8:	b8 80 00 00 00       	mov    $0x80,%eax
  3039dd:	ee                   	out    %al,(%dx)
  3039de:	b8 01 00 00 00       	mov    $0x1,%eax
  3039e3:	0f b7 55 ec          	movzwl -0x14(%ebp),%edx
  3039e7:	ee                   	out    %al,(%dx)
  3039e8:	0f b7 45 ec          	movzwl -0x14(%ebp),%eax
  3039ec:	8d 50 01             	lea    0x1(%eax),%edx
  3039ef:	b8 00 00 00 00       	mov    $0x0,%eax
  3039f4:	ee                   	out    %al,(%dx)
  3039f5:	c6 45 fe 00          	movb   $0x0,-0x2(%ebp)
  3039f9:	0f b6 45 fe          	movzbl -0x2(%ebp),%eax
  3039fd:	83 c8 03             	or     $0x3,%eax
  303a00:	88 45 fe             	mov    %al,-0x2(%ebp)
  303a03:	0f b6 45 fe          	movzbl -0x2(%ebp),%eax
  303a07:	0f b7 55 ec          	movzwl -0x14(%ebp),%edx
  303a0b:	83 c2 03             	add    $0x3,%edx
  303a0e:	ee                   	out    %al,(%dx)
  303a0f:	c6 45 ff 00          	movb   $0x0,-0x1(%ebp)
  303a13:	0f b6 45 ff          	movzbl -0x1(%ebp),%eax
  303a17:	0f b7 55 ec          	movzwl -0x14(%ebp),%edx
  303a1b:	83 c2 01             	add    $0x1,%edx
  303a1e:	ee                   	out    %al,(%dx)
  303a1f:	0f b7 45 ec          	movzwl -0x14(%ebp),%eax
  303a23:	50                   	push   %eax
  303a24:	e8 db fe ff ff       	call   303904 <__uart_flush_recv>
  303a29:	83 c4 04             	add    $0x4,%esp
  303a2c:	90                   	nop
  303a2d:	c9                   	leave  
  303a2e:	c3                   	ret    

00303a2f <uart_init>:
  303a2f:	55                   	push   %ebp
  303a30:	89 e5                	mov    %esp,%ebp
  303a32:	68 f8 03 00 00       	push   $0x3f8
  303a37:	e8 00 ff ff ff       	call   30393c <__uart_fifo_init>
  303a3c:	83 c4 04             	add    $0x4,%esp
  303a3f:	68 f8 03 00 00       	push   $0x3f8
  303a44:	e8 7b ff ff ff       	call   3039c4 <__uart_common_init>
  303a49:	83 c4 04             	add    $0x4,%esp
  303a4c:	90                   	nop
  303a4d:	c9                   	leave  
  303a4e:	c3                   	ret    

00303a4f <__uart_read>:
  303a4f:	55                   	push   %ebp
  303a50:	89 e5                	mov    %esp,%ebp
  303a52:	83 ec 14             	sub    $0x14,%esp
  303a55:	8b 45 08             	mov    0x8(%ebp),%eax
  303a58:	66 89 45 ec          	mov    %ax,-0x14(%ebp)
  303a5c:	eb 2c                	jmp    303a8a <__uart_read+0x3b>
  303a5e:	0f b7 45 ec          	movzwl -0x14(%ebp),%eax
  303a62:	89 c2                	mov    %eax,%edx
  303a64:	ec                   	in     (%dx),%al
  303a65:	88 45 fe             	mov    %al,-0x2(%ebp)
  303a68:	0f b6 45 fe          	movzbl -0x2(%ebp),%eax
  303a6c:	8b 55 0c             	mov    0xc(%ebp),%edx
  303a6f:	8b 0a                	mov    (%edx),%ecx
  303a71:	8b 55 0c             	mov    0xc(%ebp),%edx
  303a74:	8b 52 08             	mov    0x8(%edx),%edx
  303a77:	01 ca                	add    %ecx,%edx
  303a79:	88 02                	mov    %al,(%edx)
  303a7b:	8b 45 0c             	mov    0xc(%ebp),%eax
  303a7e:	8b 40 08             	mov    0x8(%eax),%eax
  303a81:	8d 50 01             	lea    0x1(%eax),%edx
  303a84:	8b 45 0c             	mov    0xc(%ebp),%eax
  303a87:	89 50 08             	mov    %edx,0x8(%eax)
  303a8a:	0f b7 45 ec          	movzwl -0x14(%ebp),%eax
  303a8e:	83 c0 05             	add    $0x5,%eax
  303a91:	89 c2                	mov    %eax,%edx
  303a93:	ec                   	in     (%dx),%al
  303a94:	88 45 ff             	mov    %al,-0x1(%ebp)
  303a97:	0f b6 45 ff          	movzbl -0x1(%ebp),%eax
  303a9b:	0f b6 c0             	movzbl %al,%eax
  303a9e:	83 e0 01             	and    $0x1,%eax
  303aa1:	85 c0                	test   %eax,%eax
  303aa3:	74 0b                	je     303ab0 <__uart_read+0x61>
  303aa5:	8b 45 0c             	mov    0xc(%ebp),%eax
  303aa8:	8b 40 08             	mov    0x8(%eax),%eax
  303aab:	39 45 10             	cmp    %eax,0x10(%ebp)
  303aae:	77 ae                	ja     303a5e <__uart_read+0xf>
  303ab0:	90                   	nop
  303ab1:	c9                   	leave  
  303ab2:	c3                   	ret    

00303ab3 <__uart_write>:
  303ab3:	55                   	push   %ebp
  303ab4:	89 e5                	mov    %esp,%ebp
  303ab6:	83 ec 14             	sub    $0x14,%esp
  303ab9:	8b 45 08             	mov    0x8(%ebp),%eax
  303abc:	66 89 45 ec          	mov    %ax,-0x14(%ebp)
  303ac0:	eb 3f                	jmp    303b01 <__uart_write+0x4e>
  303ac2:	0f b7 45 ec          	movzwl -0x14(%ebp),%eax
  303ac6:	83 c0 05             	add    $0x5,%eax
  303ac9:	89 c2                	mov    %eax,%edx
  303acb:	ec                   	in     (%dx),%al
  303acc:	88 45 ff             	mov    %al,-0x1(%ebp)
  303acf:	0f b6 45 ff          	movzbl -0x1(%ebp),%eax
  303ad3:	0f b6 c0             	movzbl %al,%eax
  303ad6:	83 e0 20             	and    $0x20,%eax
  303ad9:	85 c0                	test   %eax,%eax
  303adb:	74 24                	je     303b01 <__uart_write+0x4e>
  303add:	8b 45 0c             	mov    0xc(%ebp),%eax
  303ae0:	8b 10                	mov    (%eax),%edx
  303ae2:	8b 45 0c             	mov    0xc(%ebp),%eax
  303ae5:	8b 40 08             	mov    0x8(%eax),%eax
  303ae8:	01 d0                	add    %edx,%eax
  303aea:	0f b6 00             	movzbl (%eax),%eax
  303aed:	0f b7 55 ec          	movzwl -0x14(%ebp),%edx
  303af1:	ee                   	out    %al,(%dx)
  303af2:	8b 45 0c             	mov    0xc(%ebp),%eax
  303af5:	8b 40 08             	mov    0x8(%eax),%eax
  303af8:	8d 50 01             	lea    0x1(%eax),%edx
  303afb:	8b 45 0c             	mov    0xc(%ebp),%eax
  303afe:	89 50 08             	mov    %edx,0x8(%eax)
  303b01:	8b 45 0c             	mov    0xc(%ebp),%eax
  303b04:	8b 40 08             	mov    0x8(%eax),%eax
  303b07:	39 45 10             	cmp    %eax,0x10(%ebp)
  303b0a:	77 b6                	ja     303ac2 <__uart_write+0xf>
  303b0c:	90                   	nop
  303b0d:	90                   	nop
  303b0e:	c9                   	leave  
  303b0f:	c3                   	ret    

00303b10 <uart_read>:
  303b10:	55                   	push   %ebp
  303b11:	89 e5                	mov    %esp,%ebp
  303b13:	83 ec 10             	sub    $0x10,%esp
  303b16:	8b 45 08             	mov    0x8(%ebp),%eax
  303b19:	89 45 f4             	mov    %eax,-0xc(%ebp)
  303b1c:	c7 45 fc 00 00 00 00 	movl   $0x0,-0x4(%ebp)
  303b23:	ff 75 0c             	push   0xc(%ebp)
  303b26:	8d 45 f4             	lea    -0xc(%ebp),%eax
  303b29:	50                   	push   %eax
  303b2a:	68 f8 03 00 00       	push   $0x3f8
  303b2f:	e8 1b ff ff ff       	call   303a4f <__uart_read>
  303b34:	83 c4 0c             	add    $0xc,%esp
  303b37:	8b 45 fc             	mov    -0x4(%ebp),%eax
  303b3a:	c9                   	leave  
  303b3b:	c3                   	ret    

00303b3c <uart_write>:
  303b3c:	55                   	push   %ebp
  303b3d:	89 e5                	mov    %esp,%ebp
  303b3f:	83 ec 10             	sub    $0x10,%esp
  303b42:	8b 45 08             	mov    0x8(%ebp),%eax
  303b45:	89 45 f4             	mov    %eax,-0xc(%ebp)
  303b48:	c7 45 fc 00 00 00 00 	movl   $0x0,-0x4(%ebp)
  303b4f:	ff 75 0c             	push   0xc(%ebp)
  303b52:	8d 45 f4             	lea    -0xc(%ebp),%eax
  303b55:	50                   	push   %eax
  303b56:	68 f8 03 00 00       	push   $0x3f8
  303b5b:	e8 53 ff ff ff       	call   303ab3 <__uart_write>
  303b60:	83 c4 0c             	add    $0xc,%esp
  303b63:	8b 45 fc             	mov    -0x4(%ebp),%eax
  303b66:	c9                   	leave  
  303b67:	c3                   	ret    

00303b68 <uart_flush>:
  303b68:	55                   	push   %ebp
  303b69:	89 e5                	mov    %esp,%ebp
  303b6b:	83 ec 10             	sub    $0x10,%esp
  303b6e:	c7 45 fc 10 00 00 00 	movl   $0x10,-0x4(%ebp)
  303b75:	eb 28                	jmp    303b9f <uart_flush+0x37>
  303b77:	b8 fd 03 00 00       	mov    $0x3fd,%eax
  303b7c:	89 c2                	mov    %eax,%edx
  303b7e:	ec                   	in     (%dx),%al
  303b7f:	88 45 fb             	mov    %al,-0x5(%ebp)
  303b82:	0f b6 45 fb          	movzbl -0x5(%ebp),%eax
  303b86:	0f b6 c0             	movzbl %al,%eax
  303b89:	83 e0 20             	and    $0x20,%eax
  303b8c:	85 c0                	test   %eax,%eax
  303b8e:	74 0f                	je     303b9f <uart_flush+0x37>
  303b90:	b8 00 00 00 00       	mov    $0x0,%eax
  303b95:	ba f8 03 00 00       	mov    $0x3f8,%edx
  303b9a:	ee                   	out    %al,(%dx)
  303b9b:	83 6d fc 01          	subl   $0x1,-0x4(%ebp)
  303b9f:	83 7d fc 00          	cmpl   $0x0,-0x4(%ebp)
  303ba3:	75 d2                	jne    303b77 <uart_flush+0xf>
  303ba5:	90                   	nop
  303ba6:	90                   	nop
  303ba7:	c9                   	leave  
  303ba8:	c3                   	ret    

00303ba9 <pic_init>:
  303ba9:	55                   	push   %ebp
  303baa:	89 e5                	mov    %esp,%ebp
  303bac:	83 ec 10             	sub    $0x10,%esp
  303baf:	c6 45 ff 11          	movb   $0x11,-0x1(%ebp)
  303bb3:	0f b6 45 ff          	movzbl -0x1(%ebp),%eax
  303bb7:	ba 20 00 00 00       	mov    $0x20,%edx
  303bbc:	ee                   	out    %al,(%dx)
  303bbd:	0f b6 45 ff          	movzbl -0x1(%ebp),%eax
  303bc1:	ba a0 00 00 00       	mov    $0xa0,%edx
  303bc6:	ee                   	out    %al,(%dx)
  303bc7:	c6 45 fe 20          	movb   $0x20,-0x2(%ebp)
  303bcb:	0f b6 45 fe          	movzbl -0x2(%ebp),%eax
  303bcf:	ba 21 00 00 00       	mov    $0x21,%edx
  303bd4:	ee                   	out    %al,(%dx)
  303bd5:	c6 45 fe 28          	movb   $0x28,-0x2(%ebp)
  303bd9:	0f b6 45 fe          	movzbl -0x2(%ebp),%eax
  303bdd:	ba a1 00 00 00       	mov    $0xa1,%edx
  303be2:	ee                   	out    %al,(%dx)
  303be3:	c6 45 fd 00          	movb   $0x0,-0x3(%ebp)
  303be7:	0f b6 45 fd          	movzbl -0x3(%ebp),%eax
  303beb:	83 c8 04             	or     $0x4,%eax
  303bee:	88 45 fd             	mov    %al,-0x3(%ebp)
  303bf1:	0f b6 45 fd          	movzbl -0x3(%ebp),%eax
  303bf5:	ba 21 00 00 00       	mov    $0x21,%edx
  303bfa:	ee                   	out    %al,(%dx)
  303bfb:	c6 45 fd 00          	movb   $0x0,-0x3(%ebp)
  303bff:	0f b6 45 fd          	movzbl -0x3(%ebp),%eax
  303c03:	83 e0 f8             	and    $0xfffffff8,%eax
  303c06:	83 c8 02             	or     $0x2,%eax
  303c09:	88 45 fd             	mov    %al,-0x3(%ebp)
  303c0c:	0f b6 45 fd          	movzbl -0x3(%ebp),%eax
  303c10:	ba a1 00 00 00       	mov    $0xa1,%edx
  303c15:	ee                   	out    %al,(%dx)
  303c16:	c6 45 fc 01          	movb   $0x1,-0x4(%ebp)
  303c1a:	0f b6 45 fc          	movzbl -0x4(%ebp),%eax
  303c1e:	ba 21 00 00 00       	mov    $0x21,%edx
  303c23:	ee                   	out    %al,(%dx)
  303c24:	0f b6 45 fc          	movzbl -0x4(%ebp),%eax
  303c28:	ba a1 00 00 00       	mov    $0xa1,%edx
  303c2d:	ee                   	out    %al,(%dx)
  303c2e:	90                   	nop
  303c2f:	c9                   	leave  
  303c30:	c3                   	ret    

00303c31 <intr_init>:
  303c31:	55                   	push   %ebp
  303c32:	89 e5                	mov    %esp,%ebp
  303c34:	83 ec 20             	sub    $0x20,%esp
  303c37:	c7 45 fc 10 20 30 00 	movl   $0x302010,-0x4(%ebp)
  303c3e:	c7 45 f8 00 00 00 00 	movl   $0x0,-0x8(%ebp)
  303c45:	e9 8d 00 00 00       	jmp    303cd7 <intr_init+0xa6>
  303c4a:	8b 45 fc             	mov    -0x4(%ebp),%eax
  303c4d:	89 45 ee             	mov    %eax,-0x12(%ebp)
  303c50:	0f b7 4d ee          	movzwl -0x12(%ebp),%ecx
  303c54:	0f b7 c1             	movzwl %cx,%eax
  303c57:	ba 00 00 00 00       	mov    $0x0,%edx
  303c5c:	8b 4d f8             	mov    -0x8(%ebp),%ecx
  303c5f:	89 04 cd 00 4e 30 00 	mov    %eax,0x304e00(,%ecx,8)
  303c66:	89 14 cd 04 4e 30 00 	mov    %edx,0x304e04(,%ecx,8)
  303c6d:	8b 45 f8             	mov    -0x8(%ebp),%eax
  303c70:	0f b7 14 c5 02 4e 30 	movzwl 0x304e02(,%eax,8),%edx
  303c77:	00 
  303c78:	83 e2 00             	and    $0x0,%edx
  303c7b:	83 ca 08             	or     $0x8,%edx
  303c7e:	66 89 14 c5 02 4e 30 	mov    %dx,0x304e02(,%eax,8)
  303c85:	00 
  303c86:	8b 45 f8             	mov    -0x8(%ebp),%eax
  303c89:	0f b6 14 c5 05 4e 30 	movzbl 0x304e05(,%eax,8),%edx
  303c90:	00 
  303c91:	83 e2 f0             	and    $0xfffffff0,%edx
  303c94:	83 ca 0e             	or     $0xe,%edx
  303c97:	88 14 c5 05 4e 30 00 	mov    %dl,0x304e05(,%eax,8)
  303c9e:	0f b7 4d f0          	movzwl -0x10(%ebp),%ecx
  303ca2:	8b 45 f8             	mov    -0x8(%ebp),%eax
  303ca5:	0f b7 14 c5 06 4e 30 	movzwl 0x304e06(,%eax,8),%edx
  303cac:	00 
  303cad:	83 e2 00             	and    $0x0,%edx
  303cb0:	09 ca                	or     %ecx,%edx
  303cb2:	66 89 14 c5 06 4e 30 	mov    %dx,0x304e06(,%eax,8)
  303cb9:	00 
  303cba:	8b 45 f8             	mov    -0x8(%ebp),%eax
  303cbd:	0f b6 14 c5 05 4e 30 	movzbl 0x304e05(,%eax,8),%edx
  303cc4:	00 
  303cc5:	83 ca 80             	or     $0xffffff80,%edx
  303cc8:	88 14 c5 05 4e 30 00 	mov    %dl,0x304e05(,%eax,8)
  303ccf:	83 45 f8 01          	addl   $0x1,-0x8(%ebp)
  303cd3:	83 45 fc 10          	addl   $0x10,-0x4(%ebp)
  303cd7:	81 7d f8 ff 00 00 00 	cmpl   $0xff,-0x8(%ebp)
  303cde:	0f 86 66 ff ff ff    	jbe    303c4a <intr_init+0x19>
  303ce4:	c7 45 f4 00 4e 30 00 	movl   $0x304e00,-0xc(%ebp)
  303ceb:	66 c7 45 f2 ff 07    	movw   $0x7ff,-0xe(%ebp)
  303cf1:	0f 01 5d f2          	lidtl  -0xe(%ebp)
  303cf5:	90                   	nop
  303cf6:	c9                   	leave  
  303cf7:	c3                   	ret    

00303cf8 <intr_hdlr>:
  303cf8:	55                   	push   %ebp
  303cf9:	89 e5                	mov    %esp,%ebp
  303cfb:	57                   	push   %edi
  303cfc:	56                   	push   %esi
  303cfd:	53                   	push   %ebx
  303cfe:	83 ec 4c             	sub    $0x4c,%esp
  303d01:	89 45 d4             	mov    %eax,-0x2c(%ebp)
  303d04:	8b 45 d4             	mov    -0x2c(%ebp),%eax
  303d07:	8b 38                	mov    (%eax),%edi
  303d09:	8b 45 d4             	mov    -0x2c(%ebp),%eax
  303d0c:	8b 40 04             	mov    0x4(%eax),%eax
  303d0f:	89 45 d0             	mov    %eax,-0x30(%ebp)
  303d12:	8b 45 d4             	mov    -0x2c(%ebp),%eax
  303d15:	8b 50 08             	mov    0x8(%eax),%edx
  303d18:	89 55 cc             	mov    %edx,-0x34(%ebp)
  303d1b:	8b 45 d4             	mov    -0x2c(%ebp),%eax
  303d1e:	8b 48 0c             	mov    0xc(%eax),%ecx
  303d21:	89 4d c8             	mov    %ecx,-0x38(%ebp)
  303d24:	8b 45 d4             	mov    -0x2c(%ebp),%eax
  303d27:	8b 58 10             	mov    0x10(%eax),%ebx
  303d2a:	89 5d c4             	mov    %ebx,-0x3c(%ebp)
  303d2d:	8b 45 d4             	mov    -0x2c(%ebp),%eax
  303d30:	8b 70 14             	mov    0x14(%eax),%esi
  303d33:	89 75 c0             	mov    %esi,-0x40(%ebp)
  303d36:	8b 45 d4             	mov    -0x2c(%ebp),%eax
  303d39:	8b 40 18             	mov    0x18(%eax),%eax
  303d3c:	89 45 bc             	mov    %eax,-0x44(%ebp)
  303d3f:	8b 45 d4             	mov    -0x2c(%ebp),%eax
  303d42:	8b 50 1c             	mov    0x1c(%eax),%edx
  303d45:	89 55 b8             	mov    %edx,-0x48(%ebp)
  303d48:	8b 45 d4             	mov    -0x2c(%ebp),%eax
  303d4b:	8b 48 30             	mov    0x30(%eax),%ecx
  303d4e:	89 4d b4             	mov    %ecx,-0x4c(%ebp)
  303d51:	8b 45 d4             	mov    -0x2c(%ebp),%eax
  303d54:	8b 58 34             	mov    0x34(%eax),%ebx
  303d57:	89 5d b0             	mov    %ebx,-0x50(%ebp)
  303d5a:	8b 45 d4             	mov    -0x2c(%ebp),%eax
  303d5d:	8b 70 38             	mov    0x38(%eax),%esi
  303d60:	8b 45 d4             	mov    -0x2c(%ebp),%eax
  303d63:	8b 58 28             	mov    0x28(%eax),%ebx
  303d66:	8b 45 d4             	mov    -0x2c(%ebp),%eax
  303d69:	8b 48 2c             	mov    0x2c(%eax),%ecx
  303d6c:	8b 45 d4             	mov    -0x2c(%ebp),%eax
  303d6f:	8b 50 24             	mov    0x24(%eax),%edx
  303d72:	8b 45 d4             	mov    -0x2c(%ebp),%eax
  303d75:	8b 40 20             	mov    0x20(%eax),%eax
  303d78:	57                   	push   %edi
  303d79:	ff 75 d0             	push   -0x30(%ebp)
  303d7c:	ff 75 cc             	push   -0x34(%ebp)
  303d7f:	ff 75 c8             	push   -0x38(%ebp)
  303d82:	ff 75 c4             	push   -0x3c(%ebp)
  303d85:	ff 75 c0             	push   -0x40(%ebp)
  303d88:	ff 75 bc             	push   -0x44(%ebp)
  303d8b:	ff 75 b8             	push   -0x48(%ebp)
  303d8e:	ff 75 b4             	push   -0x4c(%ebp)
  303d91:	ff 75 b0             	push   -0x50(%ebp)
  303d94:	56                   	push   %esi
  303d95:	53                   	push   %ebx
  303d96:	51                   	push   %ecx
  303d97:	52                   	push   %edx
  303d98:	50                   	push   %eax
  303d99:	68 20 46 30 00       	push   $0x304620
  303d9e:	e8 2d f3 ff ff       	call   3030d0 <printf>
  303da3:	83 c4 40             	add    $0x40,%esp
  303da6:	8b 45 d4             	mov    -0x2c(%ebp),%eax
  303da9:	0f b6 40 20          	movzbl 0x20(%eax),%eax
  303dad:	88 45 e7             	mov    %al,-0x19(%ebp)
  303db0:	80 7d e7 1f          	cmpb   $0x1f,-0x19(%ebp)
  303db4:	77 0a                	ja     303dc0 <intr_hdlr+0xc8>
  303db6:	8b 45 d4             	mov    -0x2c(%ebp),%eax
  303db9:	e8 3a 00 00 00       	call   303df8 <excp_hdlr>
  303dbe:	eb 15                	jmp    303dd5 <intr_hdlr+0xdd>
  303dc0:	0f b6 45 e7          	movzbl -0x19(%ebp),%eax
  303dc4:	83 ec 08             	sub    $0x8,%esp
  303dc7:	50                   	push   %eax
  303dc8:	68 ff 46 30 00       	push   $0x3046ff
  303dcd:	e8 fe f2 ff ff       	call   3030d0 <printf>
  303dd2:	83 c4 10             	add    $0x10,%esp
  303dd5:	90                   	nop
  303dd6:	8d 65 f4             	lea    -0xc(%ebp),%esp
  303dd9:	5b                   	pop    %ebx
  303dda:	5e                   	pop    %esi
  303ddb:	5f                   	pop    %edi
  303ddc:	5d                   	pop    %ebp
  303ddd:	c3                   	ret    

00303dde <ack_pic2>:
  303dde:	50                   	push   %eax
  303ddf:	b0 20                	mov    $0x20,%al
  303de1:	e6 a0                	out    %al,$0xa0
  303de3:	eb 03                	jmp    303de8 <eoi_pic1>

00303de5 <ack_pic1>:
  303de5:	50                   	push   %eax
  303de6:	b0 20                	mov    $0x20,%al

00303de8 <eoi_pic1>:
  303de8:	e6 20                	out    %al,$0x20
  303dea:	58                   	pop    %eax

00303deb <idt_common>:
  303deb:	60                   	pusha  
  303dec:	89 e0                	mov    %esp,%eax
  303dee:	e8 05 ff ff ff       	call   303cf8 <intr_hdlr>

00303df3 <resume_from_intr>:
  303df3:	61                   	popa   
  303df4:	83 c4 08             	add    $0x8,%esp
  303df7:	cf                   	iret   

00303df8 <excp_hdlr>:
  303df8:	55                   	push   %ebp
  303df9:	89 e5                	mov    %esp,%ebp
  303dfb:	56                   	push   %esi
  303dfc:	53                   	push   %ebx
  303dfd:	83 ec 20             	sub    $0x20,%esp
  303e00:	89 45 e4             	mov    %eax,-0x1c(%ebp)
  303e03:	8b 45 e4             	mov    -0x1c(%ebp),%eax
  303e06:	0f b6 40 20          	movzbl 0x20(%eax),%eax
  303e0a:	0f b6 c0             	movzbl %al,%eax
  303e0d:	8b 04 85 80 49 30 00 	mov    0x304980(,%eax,4),%eax
  303e14:	83 ec 08             	sub    $0x8,%esp
  303e17:	50                   	push   %eax
  303e18:	68 49 48 30 00       	push   $0x304849
  303e1d:	e8 ae f2 ff ff       	call   3030d0 <printf>
  303e22:	83 c4 10             	add    $0x10,%esp
  303e25:	8b 45 e4             	mov    -0x1c(%ebp),%eax
  303e28:	0f b6 40 20          	movzbl 0x20(%eax),%eax
  303e2c:	0f b6 c0             	movzbl %al,%eax
  303e2f:	83 f8 0e             	cmp    $0xe,%eax
  303e32:	74 2d                	je     303e61 <excp_hdlr+0x69>
  303e34:	83 f8 0e             	cmp    $0xe,%eax
  303e37:	0f 8f da 00 00 00    	jg     303f17 <excp_hdlr+0x11f>
  303e3d:	83 f8 02             	cmp    $0x2,%eax
  303e40:	74 0a                	je     303e4c <excp_hdlr+0x54>
  303e42:	83 f8 0d             	cmp    $0xd,%eax
  303e45:	74 76                	je     303ebd <excp_hdlr+0xc5>
  303e47:	e9 cb 00 00 00       	jmp    303f17 <excp_hdlr+0x11f>
  303e4c:	83 ec 0c             	sub    $0xc,%esp
  303e4f:	68 59 48 30 00       	push   $0x304859
  303e54:	e8 77 f2 ff ff       	call   3030d0 <printf>
  303e59:	83 c4 10             	add    $0x10,%esp
  303e5c:	e9 0c 01 00 00       	jmp    303f6d <excp_hdlr+0x175>
  303e61:	0f 20 d0             	mov    %cr2,%eax
  303e64:	89 45 f4             	mov    %eax,-0xc(%ebp)
  303e67:	8b 75 f4             	mov    -0xc(%ebp),%esi
  303e6a:	8b 45 e4             	mov    -0x1c(%ebp),%eax
  303e6d:	0f b6 40 24          	movzbl 0x24(%eax),%eax
  303e71:	c0 e8 04             	shr    $0x4,%al
  303e74:	83 e0 01             	and    $0x1,%eax
  303e77:	0f b6 d8             	movzbl %al,%ebx
  303e7a:	8b 45 e4             	mov    -0x1c(%ebp),%eax
  303e7d:	0f b6 40 24          	movzbl 0x24(%eax),%eax
  303e81:	c0 e8 02             	shr    $0x2,%al
  303e84:	83 e0 01             	and    $0x1,%eax
  303e87:	0f b6 c8             	movzbl %al,%ecx
  303e8a:	8b 45 e4             	mov    -0x1c(%ebp),%eax
  303e8d:	0f b6 40 24          	movzbl 0x24(%eax),%eax
  303e91:	d0 e8                	shr    %al
  303e93:	83 e0 01             	and    $0x1,%eax
  303e96:	0f b6 d0             	movzbl %al,%edx
  303e99:	8b 45 e4             	mov    -0x1c(%ebp),%eax
  303e9c:	0f b6 40 24          	movzbl 0x24(%eax),%eax
  303ea0:	83 e0 01             	and    $0x1,%eax
  303ea3:	0f b6 c0             	movzbl %al,%eax
  303ea6:	83 ec 08             	sub    $0x8,%esp
  303ea9:	56                   	push   %esi
  303eaa:	53                   	push   %ebx
  303eab:	51                   	push   %ecx
  303eac:	52                   	push   %edx
  303ead:	50                   	push   %eax
  303eae:	68 6c 48 30 00       	push   $0x30486c
  303eb3:	e8 18 f2 ff ff       	call   3030d0 <printf>
  303eb8:	83 c4 20             	add    $0x20,%esp
  303ebb:	eb 5a                	jmp    303f17 <excp_hdlr+0x11f>
  303ebd:	8b 45 e4             	mov    -0x1c(%ebp),%eax
  303ec0:	0f b6 50 24          	movzbl 0x24(%eax),%edx
  303ec4:	c0 ea 03             	shr    $0x3,%dl
  303ec7:	0f b6 d2             	movzbl %dl,%edx
  303eca:	0f b6 40 25          	movzbl 0x25(%eax),%eax
  303ece:	c1 e0 05             	shl    $0x5,%eax
  303ed1:	09 d0                	or     %edx,%eax
  303ed3:	0f b7 d8             	movzwl %ax,%ebx
  303ed6:	8b 45 e4             	mov    -0x1c(%ebp),%eax
  303ed9:	0f b6 40 24          	movzbl 0x24(%eax),%eax
  303edd:	c0 e8 02             	shr    $0x2,%al
  303ee0:	83 e0 01             	and    $0x1,%eax
  303ee3:	0f b6 c8             	movzbl %al,%ecx
  303ee6:	8b 45 e4             	mov    -0x1c(%ebp),%eax
  303ee9:	0f b6 40 24          	movzbl 0x24(%eax),%eax
  303eed:	d0 e8                	shr    %al
  303eef:	83 e0 01             	and    $0x1,%eax
  303ef2:	0f b6 d0             	movzbl %al,%edx
  303ef5:	8b 45 e4             	mov    -0x1c(%ebp),%eax
  303ef8:	0f b6 40 24          	movzbl 0x24(%eax),%eax
  303efc:	83 e0 01             	and    $0x1,%eax
  303eff:	0f b6 c0             	movzbl %al,%eax
  303f02:	83 ec 0c             	sub    $0xc,%esp
  303f05:	53                   	push   %ebx
  303f06:	51                   	push   %ecx
  303f07:	52                   	push   %edx
  303f08:	50                   	push   %eax
  303f09:	68 9c 48 30 00       	push   $0x30489c
  303f0e:	e8 bd f1 ff ff       	call   3030d0 <printf>
  303f13:	83 c4 20             	add    $0x20,%esp
  303f16:	90                   	nop
  303f17:	0f 20 c0             	mov    %cr0,%eax
  303f1a:	89 45 f0             	mov    %eax,-0x10(%ebp)
  303f1d:	8b 45 f0             	mov    -0x10(%ebp),%eax
  303f20:	83 ec 08             	sub    $0x8,%esp
  303f23:	50                   	push   %eax
  303f24:	68 c7 48 30 00       	push   $0x3048c7
  303f29:	e8 a2 f1 ff ff       	call   3030d0 <printf>
  303f2e:	83 c4 10             	add    $0x10,%esp
  303f31:	0f 20 e0             	mov    %cr4,%eax
  303f34:	89 45 ec             	mov    %eax,-0x14(%ebp)
  303f37:	8b 45 ec             	mov    -0x14(%ebp),%eax
  303f3a:	83 ec 08             	sub    $0x8,%esp
  303f3d:	50                   	push   %eax
  303f3e:	68 d1 48 30 00       	push   $0x3048d1
  303f43:	e8 88 f1 ff ff       	call   3030d0 <printf>
  303f48:	83 c4 10             	add    $0x10,%esp
  303f4b:	8b 45 e4             	mov    -0x1c(%ebp),%eax
  303f4e:	8b 40 08             	mov    0x8(%eax),%eax
  303f51:	83 ec 0c             	sub    $0xc,%esp
  303f54:	50                   	push   %eax
  303f55:	e8 1a 00 00 00       	call   303f74 <stack_trace>
  303f5a:	83 c4 10             	add    $0x10,%esp
  303f5d:	83 ec 0c             	sub    $0xc,%esp
  303f60:	68 db 48 30 00       	push   $0x3048db
  303f65:	e8 3e f1 ff ff       	call   3030a8 <panic>
  303f6a:	83 c4 10             	add    $0x10,%esp
  303f6d:	8d 65 f8             	lea    -0x8(%ebp),%esp
  303f70:	5b                   	pop    %ebx
  303f71:	5e                   	pop    %esi
  303f72:	5d                   	pop    %ebp
  303f73:	c3                   	ret    

00303f74 <stack_trace>:
  303f74:	55                   	push   %ebp
  303f75:	89 e5                	mov    %esp,%ebp
  303f77:	83 ec 18             	sub    $0x18,%esp
  303f7a:	83 ec 0c             	sub    $0xc,%esp
  303f7d:	68 ee 48 30 00       	push   $0x3048ee
  303f82:	e8 49 f1 ff ff       	call   3030d0 <printf>
  303f87:	83 c4 10             	add    $0x10,%esp
  303f8a:	8b 45 08             	mov    0x8(%ebp),%eax
  303f8d:	89 45 f4             	mov    %eax,-0xc(%ebp)
  303f90:	eb 26                	jmp    303fb8 <stack_trace+0x44>
  303f92:	8b 45 f4             	mov    -0xc(%ebp),%eax
  303f95:	83 c0 04             	add    $0x4,%eax
  303f98:	8b 00                	mov    (%eax),%eax
  303f9a:	89 45 f0             	mov    %eax,-0x10(%ebp)
  303f9d:	8b 45 f4             	mov    -0xc(%ebp),%eax
  303fa0:	8b 00                	mov    (%eax),%eax
  303fa2:	89 45 f4             	mov    %eax,-0xc(%ebp)
  303fa5:	83 ec 08             	sub    $0x8,%esp
  303fa8:	ff 75 f0             	push   -0x10(%ebp)
  303fab:	68 02 49 30 00       	push   $0x304902
  303fb0:	e8 1b f1 ff ff       	call   3030d0 <printf>
  303fb5:	83 c4 10             	add    $0x10,%esp
  303fb8:	83 7d f4 00          	cmpl   $0x0,-0xc(%ebp)
  303fbc:	74 09                	je     303fc7 <stack_trace+0x53>
  303fbe:	81 7d f4 10 20 30 00 	cmpl   $0x302010,-0xc(%ebp)
  303fc5:	72 cb                	jb     303f92 <stack_trace+0x1e>
  303fc7:	90                   	nop
  303fc8:	c9                   	leave  
  303fc9:	c3                   	ret    

00303fca <bp_handler>:
  303fca:	55                   	push   %ebp
  303fcb:	89 e5                	mov    %esp,%ebp
  303fcd:	83 ec 08             	sub    $0x8,%esp
  303fd0:	83 ec 0c             	sub    $0xc,%esp
  303fd3:	68 06 49 30 00       	push   $0x304906
  303fd8:	e8 f3 f0 ff ff       	call   3030d0 <printf>
  303fdd:	83 c4 10             	add    $0x10,%esp
  303fe0:	90                   	nop
  303fe1:	c9                   	leave  
  303fe2:	c3                   	ret    

00303fe3 <bp_trigger>:
  303fe3:	55                   	push   %ebp
  303fe4:	89 e5                	mov    %esp,%ebp
  303fe6:	83 ec 18             	sub    $0x18,%esp
  303fe9:	8b 45 04             	mov    0x4(%ebp),%eax
  303fec:	89 45 f4             	mov    %eax,-0xc(%ebp)
  303fef:	83 ec 08             	sub    $0x8,%esp
  303ff2:	ff 75 f4             	push   -0xc(%ebp)
  303ff5:	68 10 49 30 00       	push   $0x304910
  303ffa:	e8 d1 f0 ff ff       	call   3030d0 <printf>
  303fff:	83 c4 10             	add    $0x10,%esp
  304002:	cc                   	int3   
  304003:	90                   	nop
  304004:	c9                   	leave  
  304005:	c3                   	ret    

00304006 <tp>:
  304006:	55                   	push   %ebp
  304007:	89 e5                	mov    %esp,%ebp
  304009:	53                   	push   %ebx
  30400a:	83 ec 14             	sub    $0x14,%esp
  30400d:	0f 01 4d f0          	sidtl  -0x10(%ebp)
  304011:	8b 45 f0             	mov    -0x10(%ebp),%eax
  304014:	83 ec 08             	sub    $0x8,%esp
  304017:	50                   	push   %eax
  304018:	68 14 49 30 00       	push   $0x304914
  30401d:	e8 ae f0 ff ff       	call   3030d0 <printf>
  304022:	83 c4 10             	add    $0x10,%esp
  304025:	0f 01 4d ea          	sidtl  -0x16(%ebp)
  304029:	8d 45 f0             	lea    -0x10(%ebp),%eax
  30402c:	83 ec 08             	sub    $0x8,%esp
  30402f:	50                   	push   %eax
  304030:	68 14 49 30 00       	push   $0x304914
  304035:	e8 96 f0 ff ff       	call   3030d0 <printf>
  30403a:	83 c4 10             	add    $0x10,%esp
  30403d:	c7 45 f4 ca 3f 30 00 	movl   $0x303fca,-0xc(%ebp)
  304044:	83 ec 08             	sub    $0x8,%esp
  304047:	ff 75 f4             	push   -0xc(%ebp)
  30404a:	68 22 49 30 00       	push   $0x304922
  30404f:	e8 7c f0 ff ff       	call   3030d0 <printf>
  304054:	83 c4 10             	add    $0x10,%esp
  304057:	ba ca 3f 30 00       	mov    $0x303fca,%edx
  30405c:	8b 45 ec             	mov    -0x14(%ebp),%eax
  30405f:	83 c0 18             	add    $0x18,%eax
  304062:	0f b7 ca             	movzwl %dx,%ecx
  304065:	0f b6 d9             	movzbl %cl,%ebx
  304068:	0f b6 08             	movzbl (%eax),%ecx
  30406b:	83 e1 00             	and    $0x0,%ecx
  30406e:	09 d9                	or     %ebx,%ecx
  304070:	88 08                	mov    %cl,(%eax)
  304072:	66 c1 ea 08          	shr    $0x8,%dx
  304076:	0f b7 ca             	movzwl %dx,%ecx
  304079:	0f b6 50 01          	movzbl 0x1(%eax),%edx
  30407d:	83 e2 00             	and    $0x0,%edx
  304080:	09 ca                	or     %ecx,%edx
  304082:	88 50 01             	mov    %dl,0x1(%eax)
  304085:	b8 ca 3f 30 00       	mov    $0x303fca,%eax
  30408a:	c1 e8 10             	shr    $0x10,%eax
  30408d:	89 c2                	mov    %eax,%edx
  30408f:	8b 45 ec             	mov    -0x14(%ebp),%eax
  304092:	83 c0 18             	add    $0x18,%eax
  304095:	0f b7 ca             	movzwl %dx,%ecx
  304098:	0f b6 d9             	movzbl %cl,%ebx
  30409b:	0f b6 48 06          	movzbl 0x6(%eax),%ecx
  30409f:	83 e1 00             	and    $0x0,%ecx
  3040a2:	09 d9                	or     %ebx,%ecx
  3040a4:	88 48 06             	mov    %cl,0x6(%eax)
  3040a7:	66 c1 ea 08          	shr    $0x8,%dx
  3040ab:	0f b7 ca             	movzwl %dx,%ecx
  3040ae:	0f b6 50 07          	movzbl 0x7(%eax),%edx
  3040b2:	83 e2 00             	and    $0x0,%edx
  3040b5:	09 ca                	or     %ecx,%edx
  3040b7:	88 50 07             	mov    %dl,0x7(%eax)
  3040ba:	e8 24 ff ff ff       	call   303fe3 <bp_trigger>
  3040bf:	83 ec 0c             	sub    $0xc,%esp
  3040c2:	68 36 49 30 00       	push   $0x304936
  3040c7:	e8 04 f0 ff ff       	call   3030d0 <printf>
  3040cc:	83 c4 10             	add    $0x10,%esp
  3040cf:	90                   	nop
  3040d0:	8b 5d fc             	mov    -0x4(%ebp),%ebx
  3040d3:	c9                   	leave  
  3040d4:	c3                   	ret    
  3040d5:	66 90                	xchg   %ax,%ax
  3040d7:	66 90                	xchg   %ax,%ax
  3040d9:	66 90                	xchg   %ax,%ax
  3040db:	66 90                	xchg   %ax,%ax
  3040dd:	66 90                	xchg   %ax,%ax
  3040df:	90                   	nop

003040e0 <__divdi3>:
  3040e0:	f3 0f 1e fb          	endbr32 
  3040e4:	55                   	push   %ebp
  3040e5:	57                   	push   %edi
  3040e6:	56                   	push   %esi
  3040e7:	53                   	push   %ebx
  3040e8:	83 ec 1c             	sub    $0x1c,%esp
  3040eb:	8b 5c 24 34          	mov    0x34(%esp),%ebx
  3040ef:	8b 4c 24 30          	mov    0x30(%esp),%ecx
  3040f3:	c7 44 24 08 00 00 00 	movl   $0x0,0x8(%esp)
  3040fa:	00 
  3040fb:	8b 44 24 38          	mov    0x38(%esp),%eax
  3040ff:	8b 54 24 3c          	mov    0x3c(%esp),%edx
  304103:	89 0c 24             	mov    %ecx,(%esp)
  304106:	89 dd                	mov    %ebx,%ebp
  304108:	89 5c 24 04          	mov    %ebx,0x4(%esp)
  30410c:	85 db                	test   %ebx,%ebx
  30410e:	79 18                	jns    304128 <__divdi3+0x48>
  304110:	f7 d9                	neg    %ecx
  304112:	c7 44 24 08 ff ff ff 	movl   $0xffffffff,0x8(%esp)
  304119:	ff 
  30411a:	83 d3 00             	adc    $0x0,%ebx
  30411d:	89 0c 24             	mov    %ecx,(%esp)
  304120:	f7 db                	neg    %ebx
  304122:	89 5c 24 04          	mov    %ebx,0x4(%esp)
  304126:	89 dd                	mov    %ebx,%ebp
  304128:	89 d3                	mov    %edx,%ebx
  30412a:	85 d2                	test   %edx,%edx
  30412c:	79 0d                	jns    30413b <__divdi3+0x5b>
  30412e:	f7 d8                	neg    %eax
  304130:	f7 54 24 08          	notl   0x8(%esp)
  304134:	83 d2 00             	adc    $0x0,%edx
  304137:	f7 da                	neg    %edx
  304139:	89 d3                	mov    %edx,%ebx
  30413b:	89 c7                	mov    %eax,%edi
  30413d:	8b 04 24             	mov    (%esp),%eax
  304140:	85 db                	test   %ebx,%ebx
  304142:	75 14                	jne    304158 <__divdi3+0x78>
  304144:	39 ef                	cmp    %ebp,%edi
  304146:	76 58                	jbe    3041a0 <__divdi3+0xc0>
  304148:	89 ea                	mov    %ebp,%edx
  30414a:	31 f6                	xor    %esi,%esi
  30414c:	f7 f7                	div    %edi
  30414e:	89 c5                	mov    %eax,%ebp
  304150:	eb 0e                	jmp    304160 <__divdi3+0x80>
  304152:	8d b6 00 00 00 00    	lea    0x0(%esi),%esi
  304158:	39 eb                	cmp    %ebp,%ebx
  30415a:	76 24                	jbe    304180 <__divdi3+0xa0>
  30415c:	31 f6                	xor    %esi,%esi
  30415e:	31 ed                	xor    %ebp,%ebp
  304160:	8b 4c 24 08          	mov    0x8(%esp),%ecx
  304164:	89 e8                	mov    %ebp,%eax
  304166:	89 f2                	mov    %esi,%edx
  304168:	85 c9                	test   %ecx,%ecx
  30416a:	74 07                	je     304173 <__divdi3+0x93>
  30416c:	f7 d8                	neg    %eax
  30416e:	83 d2 00             	adc    $0x0,%edx
  304171:	f7 da                	neg    %edx
  304173:	83 c4 1c             	add    $0x1c,%esp
  304176:	5b                   	pop    %ebx
  304177:	5e                   	pop    %esi
  304178:	5f                   	pop    %edi
  304179:	5d                   	pop    %ebp
  30417a:	c3                   	ret    
  30417b:	8d 74 26 00          	lea    0x0(%esi,%eiz,1),%esi
  30417f:	90                   	nop
  304180:	0f bd f3             	bsr    %ebx,%esi
  304183:	83 f6 1f             	xor    $0x1f,%esi
  304186:	75 38                	jne    3041c0 <__divdi3+0xe0>
  304188:	39 eb                	cmp    %ebp,%ebx
  30418a:	72 07                	jb     304193 <__divdi3+0xb3>
  30418c:	31 ed                	xor    %ebp,%ebp
  30418e:	3b 3c 24             	cmp    (%esp),%edi
  304191:	77 cd                	ja     304160 <__divdi3+0x80>
  304193:	bd 01 00 00 00       	mov    $0x1,%ebp
  304198:	eb c6                	jmp    304160 <__divdi3+0x80>
  30419a:	8d b6 00 00 00 00    	lea    0x0(%esi),%esi
  3041a0:	85 ff                	test   %edi,%edi
  3041a2:	75 0b                	jne    3041af <__divdi3+0xcf>
  3041a4:	b8 01 00 00 00       	mov    $0x1,%eax
  3041a9:	31 d2                	xor    %edx,%edx
  3041ab:	f7 f3                	div    %ebx
  3041ad:	89 c7                	mov    %eax,%edi
  3041af:	89 e8                	mov    %ebp,%eax
  3041b1:	31 d2                	xor    %edx,%edx
  3041b3:	f7 f7                	div    %edi
  3041b5:	89 c6                	mov    %eax,%esi
  3041b7:	8b 04 24             	mov    (%esp),%eax
  3041ba:	f7 f7                	div    %edi
  3041bc:	89 c5                	mov    %eax,%ebp
  3041be:	eb a0                	jmp    304160 <__divdi3+0x80>
  3041c0:	b8 20 00 00 00       	mov    $0x20,%eax
  3041c5:	89 f1                	mov    %esi,%ecx
  3041c7:	89 fa                	mov    %edi,%edx
  3041c9:	29 f0                	sub    %esi,%eax
  3041cb:	d3 e3                	shl    %cl,%ebx
  3041cd:	89 c1                	mov    %eax,%ecx
  3041cf:	d3 ea                	shr    %cl,%edx
  3041d1:	89 f1                	mov    %esi,%ecx
  3041d3:	09 da                	or     %ebx,%edx
  3041d5:	d3 e7                	shl    %cl,%edi
  3041d7:	89 eb                	mov    %ebp,%ebx
  3041d9:	89 c1                	mov    %eax,%ecx
  3041db:	d3 eb                	shr    %cl,%ebx
  3041dd:	89 54 24 0c          	mov    %edx,0xc(%esp)
  3041e1:	89 f1                	mov    %esi,%ecx
  3041e3:	8b 14 24             	mov    (%esp),%edx
  3041e6:	d3 e5                	shl    %cl,%ebp
  3041e8:	89 c1                	mov    %eax,%ecx
  3041ea:	d3 ea                	shr    %cl,%edx
  3041ec:	09 d5                	or     %edx,%ebp
  3041ee:	89 da                	mov    %ebx,%edx
  3041f0:	89 e8                	mov    %ebp,%eax
  3041f2:	f7 74 24 0c          	divl   0xc(%esp)
  3041f6:	89 d3                	mov    %edx,%ebx
  3041f8:	89 c5                	mov    %eax,%ebp
  3041fa:	f7 e7                	mul    %edi
  3041fc:	39 d3                	cmp    %edx,%ebx
  3041fe:	72 0f                	jb     30420f <__divdi3+0x12f>
  304200:	8b 3c 24             	mov    (%esp),%edi
  304203:	89 f1                	mov    %esi,%ecx
  304205:	d3 e7                	shl    %cl,%edi
  304207:	39 c7                	cmp    %eax,%edi
  304209:	73 07                	jae    304212 <__divdi3+0x132>
  30420b:	39 d3                	cmp    %edx,%ebx
  30420d:	75 03                	jne    304212 <__divdi3+0x132>
  30420f:	83 ed 01             	sub    $0x1,%ebp
  304212:	31 f6                	xor    %esi,%esi
  304214:	e9 47 ff ff ff       	jmp    304160 <__divdi3+0x80>
  304219:	66 90                	xchg   %ax,%ax
  30421b:	66 90                	xchg   %ax,%ax
  30421d:	66 90                	xchg   %ax,%ax
  30421f:	90                   	nop

00304220 <__moddi3>:
  304220:	f3 0f 1e fb          	endbr32 
  304224:	55                   	push   %ebp
  304225:	57                   	push   %edi
  304226:	56                   	push   %esi
  304227:	53                   	push   %ebx
  304228:	83 ec 1c             	sub    $0x1c,%esp
  30422b:	8b 54 24 34          	mov    0x34(%esp),%edx
  30422f:	8b 44 24 30          	mov    0x30(%esp),%eax
  304233:	c7 04 24 00 00 00 00 	movl   $0x0,(%esp)
  30423a:	8b 4c 24 38          	mov    0x38(%esp),%ecx
  30423e:	8b 5c 24 3c          	mov    0x3c(%esp),%ebx
  304242:	89 d6                	mov    %edx,%esi
  304244:	85 d2                	test   %edx,%edx
  304246:	79 10                	jns    304258 <__moddi3+0x38>
  304248:	f7 d8                	neg    %eax
  30424a:	c7 04 24 ff ff ff ff 	movl   $0xffffffff,(%esp)
  304251:	83 d2 00             	adc    $0x0,%edx
  304254:	f7 da                	neg    %edx
  304256:	89 d6                	mov    %edx,%esi
  304258:	89 df                	mov    %ebx,%edi
  30425a:	85 db                	test   %ebx,%ebx
  30425c:	79 09                	jns    304267 <__moddi3+0x47>
  30425e:	f7 d9                	neg    %ecx
  304260:	83 d3 00             	adc    $0x0,%ebx
  304263:	f7 db                	neg    %ebx
  304265:	89 df                	mov    %ebx,%edi
  304267:	89 44 24 04          	mov    %eax,0x4(%esp)
  30426b:	89 cb                	mov    %ecx,%ebx
  30426d:	89 c5                	mov    %eax,%ebp
  30426f:	85 ff                	test   %edi,%edi
  304271:	75 15                	jne    304288 <__moddi3+0x68>
  304273:	39 f3                	cmp    %esi,%ebx
  304275:	76 69                	jbe    3042e0 <__moddi3+0xc0>
  304277:	89 f2                	mov    %esi,%edx
  304279:	f7 f3                	div    %ebx
  30427b:	89 d7                	mov    %edx,%edi
  30427d:	31 ed                	xor    %ebp,%ebp
  30427f:	eb 0f                	jmp    304290 <__moddi3+0x70>
  304281:	8d b4 26 00 00 00 00 	lea    0x0(%esi,%eiz,1),%esi
  304288:	39 f7                	cmp    %esi,%edi
  30428a:	76 24                	jbe    3042b0 <__moddi3+0x90>
  30428c:	89 c7                	mov    %eax,%edi
  30428e:	89 f5                	mov    %esi,%ebp
  304290:	8b 04 24             	mov    (%esp),%eax
  304293:	85 c0                	test   %eax,%eax
  304295:	74 07                	je     30429e <__moddi3+0x7e>
  304297:	f7 df                	neg    %edi
  304299:	83 d5 00             	adc    $0x0,%ebp
  30429c:	f7 dd                	neg    %ebp
  30429e:	89 f8                	mov    %edi,%eax
  3042a0:	89 ea                	mov    %ebp,%edx
  3042a2:	83 c4 1c             	add    $0x1c,%esp
  3042a5:	5b                   	pop    %ebx
  3042a6:	5e                   	pop    %esi
  3042a7:	5f                   	pop    %edi
  3042a8:	5d                   	pop    %ebp
  3042a9:	c3                   	ret    
  3042aa:	8d b6 00 00 00 00    	lea    0x0(%esi),%esi
  3042b0:	0f bd c7             	bsr    %edi,%eax
  3042b3:	83 f0 1f             	xor    $0x1f,%eax
  3042b6:	89 44 24 08          	mov    %eax,0x8(%esp)
  3042ba:	75 44                	jne    304300 <__moddi3+0xe0>
  3042bc:	39 f7                	cmp    %esi,%edi
  3042be:	0f 82 cc 00 00 00    	jb     304390 <__moddi3+0x170>
  3042c4:	3b 5c 24 04          	cmp    0x4(%esp),%ebx
  3042c8:	0f 86 c2 00 00 00    	jbe    304390 <__moddi3+0x170>
  3042ce:	8b 7c 24 04          	mov    0x4(%esp),%edi
  3042d2:	89 f5                	mov    %esi,%ebp
  3042d4:	eb ba                	jmp    304290 <__moddi3+0x70>
  3042d6:	8d b4 26 00 00 00 00 	lea    0x0(%esi,%eiz,1),%esi
  3042dd:	8d 76 00             	lea    0x0(%esi),%esi
  3042e0:	85 db                	test   %ebx,%ebx
  3042e2:	75 0b                	jne    3042ef <__moddi3+0xcf>
  3042e4:	b8 01 00 00 00       	mov    $0x1,%eax
  3042e9:	31 d2                	xor    %edx,%edx
  3042eb:	f7 f7                	div    %edi
  3042ed:	89 c3                	mov    %eax,%ebx
  3042ef:	89 f0                	mov    %esi,%eax
  3042f1:	31 d2                	xor    %edx,%edx
  3042f3:	f7 f3                	div    %ebx
  3042f5:	89 e8                	mov    %ebp,%eax
  3042f7:	f7 f3                	div    %ebx
  3042f9:	eb 80                	jmp    30427b <__moddi3+0x5b>
  3042fb:	8d 74 26 00          	lea    0x0(%esi,%eiz,1),%esi
  3042ff:	90                   	nop
  304300:	8b 54 24 08          	mov    0x8(%esp),%edx
  304304:	b8 20 00 00 00       	mov    $0x20,%eax
  304309:	29 d0                	sub    %edx,%eax
  30430b:	89 d1                	mov    %edx,%ecx
  30430d:	89 c5                	mov    %eax,%ebp
  30430f:	d3 e7                	shl    %cl,%edi
  304311:	89 d8                	mov    %ebx,%eax
  304313:	89 e9                	mov    %ebp,%ecx
  304315:	d3 e8                	shr    %cl,%eax
  304317:	89 d1                	mov    %edx,%ecx
  304319:	d3 e3                	shl    %cl,%ebx
  30431b:	09 c7                	or     %eax,%edi
  30431d:	89 e9                	mov    %ebp,%ecx
  30431f:	89 d0                	mov    %edx,%eax
  304321:	89 f2                	mov    %esi,%edx
  304323:	89 5c 24 0c          	mov    %ebx,0xc(%esp)
  304327:	89 c3                	mov    %eax,%ebx
  304329:	d3 ea                	shr    %cl,%edx
  30432b:	89 c1                	mov    %eax,%ecx
  30432d:	8b 44 24 04          	mov    0x4(%esp),%eax
  304331:	d3 e6                	shl    %cl,%esi
  304333:	89 e9                	mov    %ebp,%ecx
  304335:	d3 e8                	shr    %cl,%eax
  304337:	89 d9                	mov    %ebx,%ecx
  304339:	09 f0                	or     %esi,%eax
  30433b:	8b 74 24 04          	mov    0x4(%esp),%esi
  30433f:	f7 f7                	div    %edi
  304341:	89 d3                	mov    %edx,%ebx
  304343:	d3 e6                	shl    %cl,%esi
  304345:	f7 64 24 0c          	mull   0xc(%esp)
  304349:	89 44 24 04          	mov    %eax,0x4(%esp)
  30434d:	89 d1                	mov    %edx,%ecx
  30434f:	39 d3                	cmp    %edx,%ebx
  304351:	72 06                	jb     304359 <__moddi3+0x139>
  304353:	75 10                	jne    304365 <__moddi3+0x145>
  304355:	39 c6                	cmp    %eax,%esi
  304357:	73 0c                	jae    304365 <__moddi3+0x145>
  304359:	2b 44 24 0c          	sub    0xc(%esp),%eax
  30435d:	19 fa                	sbb    %edi,%edx
  30435f:	89 44 24 04          	mov    %eax,0x4(%esp)
  304363:	89 d1                	mov    %edx,%ecx
  304365:	8b 54 24 08          	mov    0x8(%esp),%edx
  304369:	2b 74 24 04          	sub    0x4(%esp),%esi
  30436d:	19 cb                	sbb    %ecx,%ebx
  30436f:	89 e9                	mov    %ebp,%ecx
  304371:	89 d8                	mov    %ebx,%eax
  304373:	d3 e0                	shl    %cl,%eax
  304375:	89 d1                	mov    %edx,%ecx
  304377:	d3 ee                	shr    %cl,%esi
  304379:	d3 eb                	shr    %cl,%ebx
  30437b:	09 f0                	or     %esi,%eax
  30437d:	89 dd                	mov    %ebx,%ebp
  30437f:	89 c7                	mov    %eax,%edi
  304381:	e9 0a ff ff ff       	jmp    304290 <__moddi3+0x70>
  304386:	8d b4 26 00 00 00 00 	lea    0x0(%esi,%eiz,1),%esi
  30438d:	8d 76 00             	lea    0x0(%esi),%esi
  304390:	29 dd                	sub    %ebx,%ebp
  304392:	19 fe                	sbb    %edi,%esi
  304394:	89 6c 24 04          	mov    %ebp,0x4(%esp)
  304398:	e9 31 ff ff ff       	jmp    3042ce <__moddi3+0xae>
  30439d:	66 90                	xchg   %ax,%ax
  30439f:	90                   	nop

003043a0 <__udivdi3>:
  3043a0:	f3 0f 1e fb          	endbr32 
  3043a4:	55                   	push   %ebp
  3043a5:	57                   	push   %edi
  3043a6:	56                   	push   %esi
  3043a7:	53                   	push   %ebx
  3043a8:	83 ec 1c             	sub    $0x1c,%esp
  3043ab:	8b 44 24 3c          	mov    0x3c(%esp),%eax
  3043af:	8b 6c 24 30          	mov    0x30(%esp),%ebp
  3043b3:	8b 74 24 34          	mov    0x34(%esp),%esi
  3043b7:	8b 5c 24 38          	mov    0x38(%esp),%ebx
  3043bb:	85 c0                	test   %eax,%eax
  3043bd:	75 19                	jne    3043d8 <__udivdi3+0x38>
  3043bf:	39 f3                	cmp    %esi,%ebx
  3043c1:	76 4d                	jbe    304410 <__udivdi3+0x70>
  3043c3:	31 ff                	xor    %edi,%edi
  3043c5:	89 e8                	mov    %ebp,%eax
  3043c7:	89 f2                	mov    %esi,%edx
  3043c9:	f7 f3                	div    %ebx
  3043cb:	89 fa                	mov    %edi,%edx
  3043cd:	83 c4 1c             	add    $0x1c,%esp
  3043d0:	5b                   	pop    %ebx
  3043d1:	5e                   	pop    %esi
  3043d2:	5f                   	pop    %edi
  3043d3:	5d                   	pop    %ebp
  3043d4:	c3                   	ret    
  3043d5:	8d 76 00             	lea    0x0(%esi),%esi
  3043d8:	39 f0                	cmp    %esi,%eax
  3043da:	76 14                	jbe    3043f0 <__udivdi3+0x50>
  3043dc:	31 ff                	xor    %edi,%edi
  3043de:	31 c0                	xor    %eax,%eax
  3043e0:	89 fa                	mov    %edi,%edx
  3043e2:	83 c4 1c             	add    $0x1c,%esp
  3043e5:	5b                   	pop    %ebx
  3043e6:	5e                   	pop    %esi
  3043e7:	5f                   	pop    %edi
  3043e8:	5d                   	pop    %ebp
  3043e9:	c3                   	ret    
  3043ea:	8d b6 00 00 00 00    	lea    0x0(%esi),%esi
  3043f0:	0f bd f8             	bsr    %eax,%edi
  3043f3:	83 f7 1f             	xor    $0x1f,%edi
  3043f6:	75 48                	jne    304440 <__udivdi3+0xa0>
  3043f8:	39 f0                	cmp    %esi,%eax
  3043fa:	72 06                	jb     304402 <__udivdi3+0x62>
  3043fc:	31 c0                	xor    %eax,%eax
  3043fe:	39 eb                	cmp    %ebp,%ebx
  304400:	77 de                	ja     3043e0 <__udivdi3+0x40>
  304402:	b8 01 00 00 00       	mov    $0x1,%eax
  304407:	eb d7                	jmp    3043e0 <__udivdi3+0x40>
  304409:	8d b4 26 00 00 00 00 	lea    0x0(%esi,%eiz,1),%esi
  304410:	89 d9                	mov    %ebx,%ecx
  304412:	85 db                	test   %ebx,%ebx
  304414:	75 0b                	jne    304421 <__udivdi3+0x81>
  304416:	b8 01 00 00 00       	mov    $0x1,%eax
  30441b:	31 d2                	xor    %edx,%edx
  30441d:	f7 f3                	div    %ebx
  30441f:	89 c1                	mov    %eax,%ecx
  304421:	31 d2                	xor    %edx,%edx
  304423:	89 f0                	mov    %esi,%eax
  304425:	f7 f1                	div    %ecx
  304427:	89 c6                	mov    %eax,%esi
  304429:	89 e8                	mov    %ebp,%eax
  30442b:	89 f7                	mov    %esi,%edi
  30442d:	f7 f1                	div    %ecx
  30442f:	89 fa                	mov    %edi,%edx
  304431:	83 c4 1c             	add    $0x1c,%esp
  304434:	5b                   	pop    %ebx
  304435:	5e                   	pop    %esi
  304436:	5f                   	pop    %edi
  304437:	5d                   	pop    %ebp
  304438:	c3                   	ret    
  304439:	8d b4 26 00 00 00 00 	lea    0x0(%esi,%eiz,1),%esi
  304440:	89 f9                	mov    %edi,%ecx
  304442:	ba 20 00 00 00       	mov    $0x20,%edx
  304447:	29 fa                	sub    %edi,%edx
  304449:	d3 e0                	shl    %cl,%eax
  30444b:	89 44 24 08          	mov    %eax,0x8(%esp)
  30444f:	89 d1                	mov    %edx,%ecx
  304451:	89 d8                	mov    %ebx,%eax
  304453:	d3 e8                	shr    %cl,%eax
  304455:	8b 4c 24 08          	mov    0x8(%esp),%ecx
  304459:	09 c1                	or     %eax,%ecx
  30445b:	89 f0                	mov    %esi,%eax
  30445d:	89 4c 24 08          	mov    %ecx,0x8(%esp)
  304461:	89 f9                	mov    %edi,%ecx
  304463:	d3 e3                	shl    %cl,%ebx
  304465:	89 d1                	mov    %edx,%ecx
  304467:	d3 e8                	shr    %cl,%eax
  304469:	89 f9                	mov    %edi,%ecx
  30446b:	89 5c 24 0c          	mov    %ebx,0xc(%esp)
  30446f:	89 eb                	mov    %ebp,%ebx
  304471:	d3 e6                	shl    %cl,%esi
  304473:	89 d1                	mov    %edx,%ecx
  304475:	d3 eb                	shr    %cl,%ebx
  304477:	09 f3                	or     %esi,%ebx
  304479:	89 c6                	mov    %eax,%esi
  30447b:	89 f2                	mov    %esi,%edx
  30447d:	89 d8                	mov    %ebx,%eax
  30447f:	f7 74 24 08          	divl   0x8(%esp)
  304483:	89 d6                	mov    %edx,%esi
  304485:	89 c3                	mov    %eax,%ebx
  304487:	f7 64 24 0c          	mull   0xc(%esp)
  30448b:	39 d6                	cmp    %edx,%esi
  30448d:	72 19                	jb     3044a8 <__udivdi3+0x108>
  30448f:	89 f9                	mov    %edi,%ecx
  304491:	d3 e5                	shl    %cl,%ebp
  304493:	39 c5                	cmp    %eax,%ebp
  304495:	73 04                	jae    30449b <__udivdi3+0xfb>
  304497:	39 d6                	cmp    %edx,%esi
  304499:	74 0d                	je     3044a8 <__udivdi3+0x108>
  30449b:	89 d8                	mov    %ebx,%eax
  30449d:	31 ff                	xor    %edi,%edi
  30449f:	e9 3c ff ff ff       	jmp    3043e0 <__udivdi3+0x40>
  3044a4:	8d 74 26 00          	lea    0x0(%esi,%eiz,1),%esi
  3044a8:	8d 43 ff             	lea    -0x1(%ebx),%eax
  3044ab:	31 ff                	xor    %edi,%edi
  3044ad:	e9 2e ff ff ff       	jmp    3043e0 <__udivdi3+0x40>
  3044b2:	66 90                	xchg   %ax,%ax
  3044b4:	66 90                	xchg   %ax,%ax
  3044b6:	66 90                	xchg   %ax,%ax
  3044b8:	66 90                	xchg   %ax,%ax
  3044ba:	66 90                	xchg   %ax,%ax
  3044bc:	66 90                	xchg   %ax,%ax
  3044be:	66 90                	xchg   %ax,%ax

003044c0 <__umoddi3>:
  3044c0:	f3 0f 1e fb          	endbr32 
  3044c4:	55                   	push   %ebp
  3044c5:	57                   	push   %edi
  3044c6:	56                   	push   %esi
  3044c7:	53                   	push   %ebx
  3044c8:	83 ec 1c             	sub    $0x1c,%esp
  3044cb:	8b 74 24 30          	mov    0x30(%esp),%esi
  3044cf:	8b 5c 24 34          	mov    0x34(%esp),%ebx
  3044d3:	8b 7c 24 3c          	mov    0x3c(%esp),%edi
  3044d7:	8b 6c 24 38          	mov    0x38(%esp),%ebp
  3044db:	89 f0                	mov    %esi,%eax
  3044dd:	89 da                	mov    %ebx,%edx
  3044df:	85 ff                	test   %edi,%edi
  3044e1:	75 15                	jne    3044f8 <__umoddi3+0x38>
  3044e3:	39 dd                	cmp    %ebx,%ebp
  3044e5:	76 39                	jbe    304520 <__umoddi3+0x60>
  3044e7:	f7 f5                	div    %ebp
  3044e9:	89 d0                	mov    %edx,%eax
  3044eb:	31 d2                	xor    %edx,%edx
  3044ed:	83 c4 1c             	add    $0x1c,%esp
  3044f0:	5b                   	pop    %ebx
  3044f1:	5e                   	pop    %esi
  3044f2:	5f                   	pop    %edi
  3044f3:	5d                   	pop    %ebp
  3044f4:	c3                   	ret    
  3044f5:	8d 76 00             	lea    0x0(%esi),%esi
  3044f8:	39 df                	cmp    %ebx,%edi
  3044fa:	77 f1                	ja     3044ed <__umoddi3+0x2d>
  3044fc:	0f bd cf             	bsr    %edi,%ecx
  3044ff:	83 f1 1f             	xor    $0x1f,%ecx
  304502:	89 4c 24 04          	mov    %ecx,0x4(%esp)
  304506:	75 40                	jne    304548 <__umoddi3+0x88>
  304508:	39 df                	cmp    %ebx,%edi
  30450a:	72 04                	jb     304510 <__umoddi3+0x50>
  30450c:	39 f5                	cmp    %esi,%ebp
  30450e:	77 dd                	ja     3044ed <__umoddi3+0x2d>
  304510:	89 da                	mov    %ebx,%edx
  304512:	89 f0                	mov    %esi,%eax
  304514:	29 e8                	sub    %ebp,%eax
  304516:	19 fa                	sbb    %edi,%edx
  304518:	eb d3                	jmp    3044ed <__umoddi3+0x2d>
  30451a:	8d b6 00 00 00 00    	lea    0x0(%esi),%esi
  304520:	89 e9                	mov    %ebp,%ecx
  304522:	85 ed                	test   %ebp,%ebp
  304524:	75 0b                	jne    304531 <__umoddi3+0x71>
  304526:	b8 01 00 00 00       	mov    $0x1,%eax
  30452b:	31 d2                	xor    %edx,%edx
  30452d:	f7 f5                	div    %ebp
  30452f:	89 c1                	mov    %eax,%ecx
  304531:	89 d8                	mov    %ebx,%eax
  304533:	31 d2                	xor    %edx,%edx
  304535:	f7 f1                	div    %ecx
  304537:	89 f0                	mov    %esi,%eax
  304539:	f7 f1                	div    %ecx
  30453b:	89 d0                	mov    %edx,%eax
  30453d:	31 d2                	xor    %edx,%edx
  30453f:	eb ac                	jmp    3044ed <__umoddi3+0x2d>
  304541:	8d b4 26 00 00 00 00 	lea    0x0(%esi,%eiz,1),%esi
  304548:	8b 44 24 04          	mov    0x4(%esp),%eax
  30454c:	ba 20 00 00 00       	mov    $0x20,%edx
  304551:	29 c2                	sub    %eax,%edx
  304553:	89 c1                	mov    %eax,%ecx
  304555:	89 e8                	mov    %ebp,%eax
  304557:	d3 e7                	shl    %cl,%edi
  304559:	89 d1                	mov    %edx,%ecx
  30455b:	89 54 24 0c          	mov    %edx,0xc(%esp)
  30455f:	d3 e8                	shr    %cl,%eax
  304561:	89 c1                	mov    %eax,%ecx
  304563:	8b 44 24 04          	mov    0x4(%esp),%eax
  304567:	09 f9                	or     %edi,%ecx
  304569:	89 df                	mov    %ebx,%edi
  30456b:	89 4c 24 08          	mov    %ecx,0x8(%esp)
  30456f:	89 c1                	mov    %eax,%ecx
  304571:	d3 e5                	shl    %cl,%ebp
  304573:	89 d1                	mov    %edx,%ecx
  304575:	d3 ef                	shr    %cl,%edi
  304577:	89 c1                	mov    %eax,%ecx
  304579:	89 f0                	mov    %esi,%eax
  30457b:	d3 e3                	shl    %cl,%ebx
  30457d:	89 d1                	mov    %edx,%ecx
  30457f:	89 fa                	mov    %edi,%edx
  304581:	d3 e8                	shr    %cl,%eax
  304583:	0f b6 4c 24 04       	movzbl 0x4(%esp),%ecx
  304588:	09 d8                	or     %ebx,%eax
  30458a:	f7 74 24 08          	divl   0x8(%esp)
  30458e:	89 d3                	mov    %edx,%ebx
  304590:	d3 e6                	shl    %cl,%esi
  304592:	f7 e5                	mul    %ebp
  304594:	89 c7                	mov    %eax,%edi
  304596:	89 d1                	mov    %edx,%ecx
  304598:	39 d3                	cmp    %edx,%ebx
  30459a:	72 06                	jb     3045a2 <__umoddi3+0xe2>
  30459c:	75 0e                	jne    3045ac <__umoddi3+0xec>
  30459e:	39 c6                	cmp    %eax,%esi
  3045a0:	73 0a                	jae    3045ac <__umoddi3+0xec>
  3045a2:	29 e8                	sub    %ebp,%eax
  3045a4:	1b 54 24 08          	sbb    0x8(%esp),%edx
  3045a8:	89 d1                	mov    %edx,%ecx
  3045aa:	89 c7                	mov    %eax,%edi
  3045ac:	89 f5                	mov    %esi,%ebp
  3045ae:	8b 74 24 04          	mov    0x4(%esp),%esi
  3045b2:	29 fd                	sub    %edi,%ebp
  3045b4:	19 cb                	sbb    %ecx,%ebx
  3045b6:	0f b6 4c 24 0c       	movzbl 0xc(%esp),%ecx
  3045bb:	89 d8                	mov    %ebx,%eax
  3045bd:	d3 e0                	shl    %cl,%eax
  3045bf:	89 f1                	mov    %esi,%ecx
  3045c1:	d3 ed                	shr    %cl,%ebp
  3045c3:	d3 eb                	shr    %cl,%ebx
  3045c5:	09 e8                	or     %ebp,%eax
  3045c7:	89 da                	mov    %ebx,%edx
  3045c9:	83 c4 1c             	add    $0x1c,%esp
  3045cc:	5b                   	pop    %ebx
  3045cd:	5e                   	pop    %esi
  3045ce:	5f                   	pop    %edi
  3045cf:	5d                   	pop    %ebp
  3045d0:	c3                   	ret    

Déassemblage de la section .rodata :

003045d4 <.rodata>:
  3045d4:	0a 73 65             	or     0x65(%ebx),%dh
  3045d7:	63 6f 73             	arpl   %bp,0x73(%edi)
  3045da:	2d 33 65 30 38       	sub    $0x38306533,%eax
  3045df:	61                   	popa   
  3045e0:	39 33                	cmp    %esi,(%ebx)
  3045e2:	2d 37 62 63 62       	sub    $0x62636237,%eax
  3045e7:	32 61 65             	xor    0x65(%ecx),%ah
  3045ea:	20 28                	and    %ch,(%eax)
  3045ec:	63 29                	arpl   %bp,(%ecx)
  3045ee:	20 41 69             	and    %al,0x69(%ecx)
  3045f1:	72 62                	jb     304655 <__umoddi3+0x195>
  3045f3:	75 73                	jne    304668 <__umoddi3+0x1a8>
  3045f5:	0a 00                	or     (%eax),%al
  3045f7:	68 61 6c 74 65       	push   $0x65746c61
  3045fc:	64 20 21             	and    %ah,%fs:(%ecx)
  3045ff:	00 30                	add    %dh,(%eax)
  304601:	78 00                	js     304603 <__umoddi3+0x143>
  304603:	75 6e                	jne    304673 <__umoddi3+0x1b3>
  304605:	73 75                	jae    30467c <__umoddi3+0x1bc>
  304607:	70 70                	jo     304679 <__umoddi3+0x1b9>
  304609:	6f                   	outsl  %ds:(%esi),(%dx)
  30460a:	72 74                	jb     304680 <__umoddi3+0x1c0>
  30460c:	65 64 20 66 6f       	gs and %ah,%fs:0x6f(%esi)
  304611:	72 6d                	jb     304680 <__umoddi3+0x1c0>
  304613:	61                   	popa   
  304614:	74 20                	je     304636 <__umoddi3+0x176>
  304616:	61                   	popa   
  304617:	72 67                	jb     304680 <__umoddi3+0x1c0>
  304619:	20 27                	and    %ah,(%edi)
  30461b:	25 63 27 0a 00       	and    $0xa2763,%eax
  304620:	0a 49 44             	or     0x44(%ecx),%cl
  304623:	54                   	push   %esp
  304624:	20 65 76             	and    %ah,0x76(%ebp)
  304627:	65 6e                	outsb  %gs:(%esi),(%dx)
  304629:	74 0a                	je     304635 <__umoddi3+0x175>
  30462b:	20 2e                	and    %ch,(%esi)
  30462d:	20 69 6e             	and    %ch,0x6e(%ecx)
  304630:	74 20                	je     304652 <__umoddi3+0x192>
  304632:	20 20                	and    %ah,(%eax)
  304634:	20 23                	and    %ah,(%ebx)
  304636:	25 64 0a 20 2e       	and    $0x2e200a64,%eax
  30463b:	20 65 72             	and    %ah,0x72(%ebp)
  30463e:	72 6f                	jb     3046af <__umoddi3+0x1ef>
  304640:	72 20                	jb     304662 <__umoddi3+0x1a2>
  304642:	20 30                	and    %dh,(%eax)
  304644:	78 25                	js     30466b <__umoddi3+0x1ab>
  304646:	78 0a                	js     304652 <__umoddi3+0x192>
  304648:	20 2e                	and    %ch,(%esi)
  30464a:	20 63 73             	and    %ah,0x73(%ebx)
  30464d:	3a 65 69             	cmp    0x69(%ebp),%ah
  304650:	70 20                	jo     304672 <__umoddi3+0x1b2>
  304652:	30 78 25             	xor    %bh,0x25(%eax)
  304655:	78 3a                	js     304691 <__umoddi3+0x1d1>
  304657:	30 78 25             	xor    %bh,0x25(%eax)
  30465a:	78 0a                	js     304666 <__umoddi3+0x1a6>
  30465c:	20 2e                	and    %ch,(%esi)
  30465e:	20 73 73             	and    %dh,0x73(%ebx)
  304661:	3a 65 73             	cmp    0x73(%ebp),%ah
  304664:	70 20                	jo     304686 <__umoddi3+0x1c6>
  304666:	30 78 25             	xor    %bh,0x25(%eax)
  304669:	78 3a                	js     3046a5 <__umoddi3+0x1e5>
  30466b:	30 78 25             	xor    %bh,0x25(%eax)
  30466e:	78 0a                	js     30467a <__umoddi3+0x1ba>
  304670:	20 2e                	and    %ch,(%esi)
  304672:	20 65 66             	and    %ah,0x66(%ebp)
  304675:	6c                   	insb   (%dx),%es:(%edi)
  304676:	61                   	popa   
  304677:	67 73 20             	addr16 jae 30469a <__umoddi3+0x1da>
  30467a:	30 78 25             	xor    %bh,0x25(%eax)
  30467d:	78 0a                	js     304689 <__umoddi3+0x1c9>
  30467f:	0a 2d 20 47 50 52    	or     0x52504720,%ch
  304685:	0a 65 61             	or     0x61(%ebp),%ah
  304688:	78 20                	js     3046aa <__umoddi3+0x1ea>
  30468a:	20 20                	and    %ah,(%eax)
  30468c:	20 20                	and    %ah,(%eax)
  30468e:	3a 20                	cmp    (%eax),%ah
  304690:	30 78 25             	xor    %bh,0x25(%eax)
  304693:	78 0a                	js     30469f <__umoddi3+0x1df>
  304695:	65 63 78 20          	arpl   %di,%gs:0x20(%eax)
  304699:	20 20                	and    %ah,(%eax)
  30469b:	20 20                	and    %ah,(%eax)
  30469d:	3a 20                	cmp    (%eax),%ah
  30469f:	30 78 25             	xor    %bh,0x25(%eax)
  3046a2:	78 0a                	js     3046ae <__umoddi3+0x1ee>
  3046a4:	65 64 78 20          	gs fs js 3046c8 <__umoddi3+0x208>
  3046a8:	20 20                	and    %ah,(%eax)
  3046aa:	20 20                	and    %ah,(%eax)
  3046ac:	3a 20                	cmp    (%eax),%ah
  3046ae:	30 78 25             	xor    %bh,0x25(%eax)
  3046b1:	78 0a                	js     3046bd <__umoddi3+0x1fd>
  3046b3:	65 62 78 20          	bound  %edi,%gs:0x20(%eax)
  3046b7:	20 20                	and    %ah,(%eax)
  3046b9:	20 20                	and    %ah,(%eax)
  3046bb:	3a 20                	cmp    (%eax),%ah
  3046bd:	30 78 25             	xor    %bh,0x25(%eax)
  3046c0:	78 0a                	js     3046cc <__umoddi3+0x20c>
  3046c2:	65 73 70             	gs jae 304735 <__umoddi3+0x275>
  3046c5:	20 20                	and    %ah,(%eax)
  3046c7:	20 20                	and    %ah,(%eax)
  3046c9:	20 3a                	and    %bh,(%edx)
  3046cb:	20 30                	and    %dh,(%eax)
  3046cd:	78 25                	js     3046f4 <__umoddi3+0x234>
  3046cf:	78 0a                	js     3046db <__umoddi3+0x21b>
  3046d1:	65 62 70 20          	bound  %esi,%gs:0x20(%eax)
  3046d5:	20 20                	and    %ah,(%eax)
  3046d7:	20 20                	and    %ah,(%eax)
  3046d9:	3a 20                	cmp    (%eax),%ah
  3046db:	30 78 25             	xor    %bh,0x25(%eax)
  3046de:	78 0a                	js     3046ea <__umoddi3+0x22a>
  3046e0:	65 73 69             	gs jae 30474c <__umoddi3+0x28c>
  3046e3:	20 20                	and    %ah,(%eax)
  3046e5:	20 20                	and    %ah,(%eax)
  3046e7:	20 3a                	and    %bh,(%edx)
  3046e9:	20 30                	and    %dh,(%eax)
  3046eb:	78 25                	js     304712 <__umoddi3+0x252>
  3046ed:	78 0a                	js     3046f9 <__umoddi3+0x239>
  3046ef:	65 64 69 20 20 20 20 	gs imul $0x20202020,%fs:(%eax),%esp
  3046f6:	20 
  3046f7:	3a 20                	cmp    (%eax),%ah
  3046f9:	30 78 25             	xor    %bh,0x25(%eax)
  3046fc:	78 0a                	js     304708 <__umoddi3+0x248>
  3046fe:	00 69 67             	add    %ch,0x67(%ecx)
  304701:	6e                   	outsb  %ds:(%esi),(%dx)
  304702:	6f                   	outsl  %ds:(%esi),(%dx)
  304703:	72 65                	jb     30476a <__umoddi3+0x2aa>
  304705:	20 49 52             	and    %cl,0x52(%ecx)
  304708:	51                   	push   %ecx
  304709:	20 25 64 0a 00 00    	and    %ah,0xa64
  30470f:	00 44 69 76          	add    %al,0x76(%ecx,%ebp,2)
  304713:	69 64 65 20 62 79 20 	imul   $0x7a207962,0x20(%ebp,%eiz,2),%esp
  30471a:	7a 
  30471b:	65 72 6f             	gs jb  30478d <__umoddi3+0x2cd>
  30471e:	00 44 65 62          	add    %al,0x62(%ebp,%eiz,2)
  304722:	75 67                	jne    30478b <__umoddi3+0x2cb>
  304724:	00 4e 4d             	add    %cl,0x4d(%esi)
  304727:	49                   	dec    %ecx
  304728:	20 69 6e             	and    %ch,0x6e(%ecx)
  30472b:	74 65                	je     304792 <__umoddi3+0x2d2>
  30472d:	72 72                	jb     3047a1 <__umoddi3+0x2e1>
  30472f:	75 70                	jne    3047a1 <__umoddi3+0x2e1>
  304731:	74 00                	je     304733 <__umoddi3+0x273>
  304733:	42                   	inc    %edx
  304734:	72 65                	jb     30479b <__umoddi3+0x2db>
  304736:	61                   	popa   
  304737:	6b 70 6f 69          	imul   $0x69,0x6f(%eax),%esi
  30473b:	6e                   	outsb  %ds:(%esi),(%dx)
  30473c:	74 00                	je     30473e <__umoddi3+0x27e>
  30473e:	4f                   	dec    %edi
  30473f:	76 65                	jbe    3047a6 <__umoddi3+0x2e6>
  304741:	72 66                	jb     3047a9 <__umoddi3+0x2e9>
  304743:	6c                   	insb   (%dx),%es:(%edi)
  304744:	6f                   	outsl  %ds:(%esi),(%dx)
  304745:	77 00                	ja     304747 <__umoddi3+0x287>
  304747:	42                   	inc    %edx
  304748:	4f                   	dec    %edi
  304749:	55                   	push   %ebp
  30474a:	4e                   	dec    %esi
  30474b:	44                   	inc    %esp
  30474c:	20 72 61             	and    %dh,0x61(%edx)
  30474f:	6e                   	outsb  %ds:(%esi),(%dx)
  304750:	67 65 20 65 78       	and    %ah,%gs:0x78(%di)
  304755:	63 65 65             	arpl   %sp,0x65(%ebp)
  304758:	64 65 64 00 49 6e    	fs gs add %cl,%fs:0x6e(%ecx)
  30475e:	76 61                	jbe    3047c1 <__umoddi3+0x301>
  304760:	6c                   	insb   (%dx),%es:(%edi)
  304761:	69 64 20 4f 70 63 6f 	imul   $0x646f6370,0x4f(%eax,%eiz,1),%esp
  304768:	64 
  304769:	65 00 44 65 76       	add    %al,%gs:0x76(%ebp,%eiz,2)
  30476e:	69 63 65 20 6e 6f 74 	imul   $0x746f6e20,0x65(%ebx),%esp
  304775:	20 61 76             	and    %ah,0x76(%ecx)
  304778:	61                   	popa   
  304779:	69 6c 61 62 6c 65 00 	imul   $0x4400656c,0x62(%ecx,%eiz,2),%ebp
  304780:	44 
  304781:	6f                   	outsl  %ds:(%esi),(%dx)
  304782:	75 62                	jne    3047e6 <__umoddi3+0x326>
  304784:	6c                   	insb   (%dx),%es:(%edi)
  304785:	65 20 66 61          	and    %ah,%gs:0x61(%esi)
  304789:	75 6c                	jne    3047f7 <__umoddi3+0x337>
  30478b:	74 00                	je     30478d <__umoddi3+0x2cd>
  30478d:	43                   	inc    %ebx
  30478e:	6f                   	outsl  %ds:(%esi),(%dx)
  30478f:	70 72                	jo     304803 <__umoddi3+0x343>
  304791:	6f                   	outsl  %ds:(%esi),(%dx)
  304792:	63 65 73             	arpl   %sp,0x73(%ebp)
  304795:	73 6f                	jae    304806 <__umoddi3+0x346>
  304797:	72 20                	jb     3047b9 <__umoddi3+0x2f9>
  304799:	73 65                	jae    304800 <__umoddi3+0x340>
  30479b:	67 6d                	insl   (%dx),%es:(%di)
  30479d:	65 6e                	outsb  %gs:(%esi),(%dx)
  30479f:	74 20                	je     3047c1 <__umoddi3+0x301>
  3047a1:	6f                   	outsl  %ds:(%esi),(%dx)
  3047a2:	76 65                	jbe    304809 <__umoddi3+0x349>
  3047a4:	72 72                	jb     304818 <__umoddi3+0x358>
  3047a6:	75 6e                	jne    304816 <__umoddi3+0x356>
  3047a8:	00 49 6e             	add    %cl,0x6e(%ecx)
  3047ab:	76 61                	jbe    30480e <__umoddi3+0x34e>
  3047ad:	6c                   	insb   (%dx),%es:(%edi)
  3047ae:	69 64 20 54 53 53 00 	imul   $0x53005353,0x54(%eax,%eiz,1),%esp
  3047b5:	53 
  3047b6:	65 67 6d             	gs insl (%dx),%es:(%di)
  3047b9:	65 6e                	outsb  %gs:(%esi),(%dx)
  3047bb:	74 20                	je     3047dd <__umoddi3+0x31d>
  3047bd:	6e                   	outsb  %ds:(%esi),(%dx)
  3047be:	6f                   	outsl  %ds:(%esi),(%dx)
  3047bf:	74 20                	je     3047e1 <__umoddi3+0x321>
  3047c1:	70 72                	jo     304835 <__umoddi3+0x375>
  3047c3:	65 73 65             	gs jae 30482b <__umoddi3+0x36b>
  3047c6:	6e                   	outsb  %ds:(%esi),(%dx)
  3047c7:	74 00                	je     3047c9 <__umoddi3+0x309>
  3047c9:	53                   	push   %ebx
  3047ca:	74 61                	je     30482d <__umoddi3+0x36d>
  3047cc:	63 6b 20             	arpl   %bp,0x20(%ebx)
  3047cf:	66 61                	popaw  
  3047d1:	75 6c                	jne    30483f <__umoddi3+0x37f>
  3047d3:	74 00                	je     3047d5 <__umoddi3+0x315>
  3047d5:	47                   	inc    %edi
  3047d6:	65 6e                	outsb  %gs:(%esi),(%dx)
  3047d8:	65 72 61             	gs jb  30483c <__umoddi3+0x37c>
  3047db:	6c                   	insb   (%dx),%es:(%edi)
  3047dc:	20 70 72             	and    %dh,0x72(%eax)
  3047df:	6f                   	outsl  %ds:(%esi),(%dx)
  3047e0:	74 65                	je     304847 <__umoddi3+0x387>
  3047e2:	63 74 69 6f          	arpl   %si,0x6f(%ecx,%ebp,2)
  3047e6:	6e                   	outsb  %ds:(%esi),(%dx)
  3047e7:	00 50 61             	add    %dl,0x61(%eax)
  3047ea:	67 65 20 66 61       	and    %ah,%gs:0x61(%bp)
  3047ef:	75 6c                	jne    30485d <__umoddi3+0x39d>
  3047f1:	74 00                	je     3047f3 <__umoddi3+0x333>
  3047f3:	49                   	dec    %ecx
  3047f4:	6e                   	outsb  %ds:(%esi),(%dx)
  3047f5:	74 65                	je     30485c <__umoddi3+0x39c>
  3047f7:	6c                   	insb   (%dx),%es:(%edi)
  3047f8:	20 52 65             	and    %dl,0x65(%edx)
  3047fb:	73 65                	jae    304862 <__umoddi3+0x3a2>
  3047fd:	72 76                	jb     304875 <__umoddi3+0x3b5>
  3047ff:	65 64 00 46 6c       	gs add %al,%fs:0x6c(%esi)
  304804:	6f                   	outsl  %ds:(%esi),(%dx)
  304805:	61                   	popa   
  304806:	74 69                	je     304871 <__umoddi3+0x3b1>
  304808:	6e                   	outsb  %ds:(%esi),(%dx)
  304809:	67 20 70 6f          	and    %dh,0x6f(%bx,%si)
  30480d:	69 6e 74 20 65 72 72 	imul   $0x72726520,0x74(%esi),%ebp
  304814:	6f                   	outsl  %ds:(%esi),(%dx)
  304815:	72 00                	jb     304817 <__umoddi3+0x357>
  304817:	41                   	inc    %ecx
  304818:	6c                   	insb   (%dx),%es:(%edi)
  304819:	69 67 6e 6d 65 6e 74 	imul   $0x746e656d,0x6e(%edi),%esp
  304820:	20 63 68             	and    %ah,0x68(%ebx)
  304823:	65 63 6b 00          	arpl   %bp,%gs:0x0(%ebx)
  304827:	4d                   	dec    %ebp
  304828:	61                   	popa   
  304829:	63 68 69             	arpl   %bp,0x69(%eax)
  30482c:	6e                   	outsb  %ds:(%esi),(%dx)
  30482d:	65 20 63 68          	and    %ah,%gs:0x68(%ebx)
  304831:	65 63 6b 00          	arpl   %bp,%gs:0x0(%ebx)
  304835:	53                   	push   %ebx
  304836:	49                   	dec    %ecx
  304837:	4d                   	dec    %ebp
  304838:	44                   	inc    %esp
  304839:	20 66 6c             	and    %ah,0x6c(%esi)
  30483c:	6f                   	outsl  %ds:(%esi),(%dx)
  30483d:	61                   	popa   
  30483e:	74 69                	je     3048a9 <__umoddi3+0x3e9>
  304840:	6e                   	outsb  %ds:(%esi),(%dx)
  304841:	67 20 70 6f          	and    %dh,0x6f(%bx,%si)
  304845:	69 6e 74 00 0a 45 78 	imul   $0x78450a00,0x74(%esi),%ebp
  30484c:	63 65 70             	arpl   %sp,0x70(%ebp)
  30484f:	74 69                	je     3048ba <__umoddi3+0x3fa>
  304851:	6f                   	outsl  %ds:(%esi),(%dx)
  304852:	6e                   	outsb  %ds:(%esi),(%dx)
  304853:	3a 20                	cmp    (%eax),%ah
  304855:	25 73 0a 00 23       	and    $0x23000a73,%eax
  30485a:	4e                   	dec    %esi
  30485b:	4d                   	dec    %ebp
  30485c:	49                   	dec    %ecx
  30485d:	20 28                	and    %ch,(%eax)
  30485f:	69 67 6e 6f 72 65 64 	imul   $0x6465726f,0x6e(%edi),%esp
  304866:	29 0a                	sub    %ecx,(%edx)
  304868:	00 00                	add    %al,(%eax)
  30486a:	00 00                	add    %al,(%eax)
  30486c:	23 50 46             	and    0x46(%eax),%edx
  30486f:	20 64 65 74          	and    %ah,0x74(%ebp,%eiz,2)
  304873:	61                   	popa   
  304874:	69 6c 73 3a 20 70 3a 	imul   $0x253a7020,0x3a(%ebx,%esi,2),%ebp
  30487b:	25 
  30487c:	64 20 77 72          	and    %dh,%fs:0x72(%edi)
  304880:	3a 25 64 20 75 73    	cmp    0x73752064,%ah
  304886:	3a 25 64 20 69 64    	cmp    0x64692064,%ah
  30488c:	3a 25 64 20 61 64    	cmp    0x64612064,%ah
  304892:	64 72 20             	fs jb  3048b5 <__umoddi3+0x3f5>
  304895:	30 78 25             	xor    %bh,0x25(%eax)
  304898:	78 0a                	js     3048a4 <__umoddi3+0x3e4>
  30489a:	00 00                	add    %al,(%eax)
  30489c:	23 47 50             	and    0x50(%edi),%eax
  30489f:	20 64 65 74          	and    %ah,0x74(%ebp,%eiz,2)
  3048a3:	61                   	popa   
  3048a4:	69 6c 73 3a 20 65 78 	imul   $0x74786520,0x3a(%ebx,%esi,2),%ebp
  3048ab:	74 
  3048ac:	3a 25 64 20 69 64    	cmp    0x64692064,%ah
  3048b2:	74 3a                	je     3048ee <__umoddi3+0x42e>
  3048b4:	25 64 20 74 69       	and    $0x69742064,%eax
  3048b9:	3a 25 64 20 69 6e    	cmp    0x6e692064,%ah
  3048bf:	64 65 78 3a          	fs gs js 3048fd <__umoddi3+0x43d>
  3048c3:	25 64 0a 00 63       	and    $0x63000a64,%eax
  3048c8:	72 30                	jb     3048fa <__umoddi3+0x43a>
  3048ca:	20 3d 20 25 70 0a    	and    %bh,0xa702520
  3048d0:	00 63 72             	add    %ah,0x72(%ebx)
  3048d3:	34 20                	xor    $0x20,%al
  3048d5:	3d 20 25 70 0a       	cmp    $0xa702520,%eax
  3048da:	00 66 61             	add    %ah,0x61(%esi)
  3048dd:	74 61                	je     304940 <__umoddi3+0x480>
  3048df:	6c                   	insb   (%dx),%es:(%edi)
  3048e0:	20 65 78             	and    %ah,0x78(%ebp)
  3048e3:	63 65 70             	arpl   %sp,0x70(%ebp)
  3048e6:	74 69                	je     304951 <__umoddi3+0x491>
  3048e8:	6f                   	outsl  %ds:(%esi),(%dx)
  3048e9:	6e                   	outsb  %ds:(%esi),(%dx)
  3048ea:	20 21                	and    %ah,(%ecx)
  3048ec:	0a 00                	or     (%eax),%al
  3048ee:	0a 2d 3d 20 53 74    	or     0x7453203d,%ch
  3048f4:	61                   	popa   
  3048f5:	63 6b 20             	arpl   %bp,0x20(%ebx)
  3048f8:	54                   	push   %esp
  3048f9:	72 61                	jb     30495c <__umoddi3+0x49c>
  3048fb:	63 65 20             	arpl   %sp,0x20(%ebp)
  3048fe:	3d 2d 0a 00 25       	cmp    $0x25000a2d,%eax
  304903:	70 0a                	jo     30490f <__umoddi3+0x44f>
  304905:	00 57 4f             	add    %dl,0x4f(%edi)
  304908:	57                   	push   %edi
  304909:	20 42 50             	and    %al,0x50(%edx)
  30490c:	20 42 50             	and    %al,0x50(%edx)
  30490f:	00 25 78 0a 00 49    	add    %ah,0x49000a78
  304915:	44                   	inc    %esp
  304916:	54                   	push   %esp
  304917:	20 41 64             	and    %al,0x64(%ecx)
  30491a:	64 20 30             	and    %dh,%fs:(%eax)
  30491d:	78 25                	js     304944 <__umoddi3+0x484>
  30491f:	78 0a                	js     30492b <__umoddi3+0x46b>
  304921:	00 42 50             	add    %al,0x50(%edx)
  304924:	48                   	dec    %eax
  304925:	61                   	popa   
  304926:	6e                   	outsb  %ds:(%esi),(%dx)
  304927:	64 6c                	fs insb (%dx),%es:(%edi)
  304929:	65 72 20             	gs jb  30494c <__umoddi3+0x48c>
  30492c:	41                   	inc    %ecx
  30492d:	64 64 20 30          	fs and %dh,%fs:(%eax)
  304931:	78 25                	js     304958 <__umoddi3+0x498>
  304933:	78 0a                	js     30493f <__umoddi3+0x47f>
  304935:	00 42 69             	add    %al,0x69(%edx)
  304938:	65 6e                	outsb  %gs:(%esi),(%dx)
  30493a:	20 72 65             	and    %dh,0x65(%edx)
  30493d:	76 65                	jbe    3049a4 <exception_names+0x24>
  30493f:	6e                   	outsb  %ds:(%esi),(%dx)
  304940:	75 00                	jne    304942 <__umoddi3+0x482>

Déassemblage de la section .data :

00304960 <info>:
  304960:	e0 49                	loopne 3049ab <exception_names+0x2b>
  304962:	30 00                	xor    %al,(%eax)

00304964 <__hextable>:
  304964:	30 31                	xor    %dh,(%ecx)
  304966:	32 33                	xor    (%ebx),%dh
  304968:	34 35                	xor    $0x35,%al
  30496a:	36 37                	ss aaa 
  30496c:	38 39                	cmp    %bh,(%ecx)
  30496e:	61                   	popa   
  30496f:	62 63 64             	bound  %esp,0x64(%ebx)
  304972:	65 66 00 00          	data16 add %al,%gs:(%eax)
	...

00304980 <exception_names>:
  304980:	10 47 30             	adc    %al,0x30(%edi)
  304983:	00 1f                	add    %bl,(%edi)
  304985:	47                   	inc    %edi
  304986:	30 00                	xor    %al,(%eax)
  304988:	25 47 30 00 33       	and    $0x33003047,%eax
  30498d:	47                   	inc    %edi
  30498e:	30 00                	xor    %al,(%eax)
  304990:	3e 47                	ds inc %edi
  304992:	30 00                	xor    %al,(%eax)
  304994:	47                   	inc    %edi
  304995:	47                   	inc    %edi
  304996:	30 00                	xor    %al,(%eax)
  304998:	5c                   	pop    %esp
  304999:	47                   	inc    %edi
  30499a:	30 00                	xor    %al,(%eax)
  30499c:	6b 47 30 00          	imul   $0x0,0x30(%edi),%eax
  3049a0:	80 47 30 00          	addb   $0x0,0x30(%edi)
  3049a4:	8d 47 30             	lea    0x30(%edi),%eax
  3049a7:	00 a9 47 30 00 b5    	add    %ch,-0x4affcfb9(%ecx)
  3049ad:	47                   	inc    %edi
  3049ae:	30 00                	xor    %al,(%eax)
  3049b0:	c9                   	leave  
  3049b1:	47                   	inc    %edi
  3049b2:	30 00                	xor    %al,(%eax)
  3049b4:	d5 47                	aad    $0x47
  3049b6:	30 00                	xor    %al,(%eax)
  3049b8:	e8 47 30 00 f3       	call   f3307a04 <__kernel_end__+0xf3002404>
  3049bd:	47                   	inc    %edi
  3049be:	30 00                	xor    %al,(%eax)
  3049c0:	02 48 30             	add    0x30(%eax),%cl
  3049c3:	00 17                	add    %dl,(%edi)
  3049c5:	48                   	dec    %eax
  3049c6:	30 00                	xor    %al,(%eax)
  3049c8:	27                   	daa    
  3049c9:	48                   	dec    %eax
  3049ca:	30 00                	xor    %al,(%eax)
  3049cc:	35                   	.byte 0x35
  3049cd:	48                   	dec    %eax
  3049ce:	30 00                	xor    %al,(%eax)

Déassemblage de la section .bss :

003049e0 <__info>:
	...

00304a00 <vprint_buffer>:
	...

00304e00 <IDT>:
	...

Déassemblage de la section .debug_line :

00000000 <.debug_line>:
   0:	4c                   	dec    %esp
   1:	00 00                	add    %al,(%eax)
   3:	00 05 00 04 00 2e    	add    %al,0x2e000400
   9:	00 00                	add    %al,(%eax)
   b:	00 01                	add    %al,(%ecx)
   d:	01 01                	add    %eax,(%ecx)
   f:	fb                   	sti    
  10:	0e                   	push   %cs
  11:	0d 00 01 01 01       	or     $0x1010100,%eax
  16:	01 00                	add    %eax,(%eax)
  18:	00 00                	add    %al,(%eax)
  1a:	01 00                	add    %eax,(%eax)
  1c:	00 01                	add    %al,(%ecx)
  1e:	01 01                	add    %eax,(%ecx)
  20:	1f                   	pop    %ds
  21:	02 00                	add    (%eax),%al
  23:	00 00                	add    %al,(%eax)
  25:	00 13                	add    %dl,(%ebx)
  27:	00 00                	add    %al,(%eax)
  29:	00 02                	add    %al,(%edx)
  2b:	01 1f                	add    %ebx,(%edi)
  2d:	02 0f                	add    (%edi),%cl
  2f:	02 22                	add    (%edx),%ah
  31:	00 00                	add    %al,(%eax)
  33:	00 01                	add    %al,(%ecx)
  35:	22 00                	and    (%eax),%al
  37:	00 00                	add    %al,(%eax)
  39:	01 00                	add    %eax,(%eax)
  3b:	05 02 10 30 30       	add    $0x30301002,%eax
  40:	00 03                	add    %al,(%ebx)
  42:	0a 01                	or     (%ecx),%al
  44:	21 59 2f             	and    %ebx,0x2f(%ecx)
  47:	21 2f                	and    %ebp,(%edi)
  49:	5b                   	pop    %ebx
  4a:	21 02                	and    %eax,(%edx)
  4c:	02 00                	add    (%eax),%al
  4e:	01 01                	add    %eax,(%ecx)
  50:	89 00                	mov    %eax,(%eax)
  52:	00 00                	add    %al,(%eax)
  54:	05 00 04 00 5f       	add    $0x5f000400,%eax
  59:	00 00                	add    %al,(%eax)
  5b:	00 01                	add    %al,(%ecx)
  5d:	01 01                	add    %eax,(%ecx)
  5f:	fb                   	sti    
  60:	0e                   	push   %cs
  61:	0d 00 01 01 01       	or     $0x1010100,%eax
  66:	01 00                	add    %eax,(%eax)
  68:	00 00                	add    %al,(%eax)
  6a:	01 00                	add    %eax,(%eax)
  6c:	00 01                	add    %al,(%ecx)
  6e:	01 01                	add    %eax,(%ecx)
  70:	1f                   	pop    %ds
  71:	03 00                	add    (%eax),%eax
  73:	00 00                	add    %al,(%eax)
  75:	00 13                	add    %dl,(%ebx)
  77:	00 00                	add    %al,(%eax)
  79:	00 41 00             	add    %al,0x0(%ecx)
  7c:	00 00                	add    %al,(%eax)
  7e:	02 01                	add    (%ecx),%al
  80:	1f                   	pop    %ds
  81:	02 0f                	add    (%edi),%cl
  83:	0b 39                	or     (%ecx),%edi
  85:	00 00                	add    %al,(%eax)
  87:	00 01                	add    %al,(%ecx)
  89:	39 00                	cmp    %eax,(%eax)
  8b:	00 00                	add    %al,(%eax)
  8d:	01 53 00             	add    %edx,0x0(%ebx)
  90:	00 00                	add    %al,(%eax)
  92:	02 5b 00             	add    0x0(%ebx),%bl
  95:	00 00                	add    %al,(%eax)
  97:	02 60 00             	add    0x0(%eax),%ah
  9a:	00 00                	add    %al,(%eax)
  9c:	02 66 00             	add    0x0(%esi),%ah
  9f:	00 00                	add    %al,(%eax)
  a1:	02 6d 00             	add    0x0(%ebp),%ch
  a4:	00 00                	add    %al,(%eax)
  a6:	02 74 00 00          	add    0x0(%eax,%eax,1),%dh
  aa:	00 02                	add    %al,(%edx)
  ac:	7b 00                	jnp    ae <mbh-0x2fff52>
  ae:	00 00                	add    %al,(%eax)
  b0:	02 81 00 00 00 02    	add    0x2000000(%ecx),%al
  b6:	89 00                	mov    %eax,(%eax)
  b8:	00 00                	add    %al,(%eax)
  ba:	02 05 01 00 05 02    	add    0x2050001,%al
  c0:	23 30                	and    (%eax),%esi
  c2:	30 00                	xor    %al,(%eax)
  c4:	03 12                	add    (%edx),%edx
  c6:	01 05 08 91 05 0e    	add    %eax,0xe059108
  cc:	58                   	pop    %eax
  cd:	05 04 5a 59 59       	add    $0x59595a04,%eax
  d2:	59                   	pop    %ecx
  d3:	f4                   	hlt    
  d4:	5a                   	pop    %edx
  d5:	05 01 f3 02 03       	add    $0x302f301,%eax
  da:	00 01                	add    %al,(%ecx)
  dc:	01 72 03             	add    %esi,0x3(%edx)
  df:	00 00                	add    %al,(%eax)
  e1:	05 00 04 00 46       	add    $0x46000400,%eax
  e6:	00 00                	add    %al,(%eax)
  e8:	00 01                	add    %al,(%ecx)
  ea:	01 01                	add    %eax,(%ecx)
  ec:	fb                   	sti    
  ed:	0e                   	push   %cs
  ee:	0d 00 01 01 01       	or     $0x1010100,%eax
  f3:	01 00                	add    %eax,(%eax)
  f5:	00 00                	add    %al,(%eax)
  f7:	01 00                	add    %eax,(%eax)
  f9:	00 01                	add    %al,(%ecx)
  fb:	01 01                	add    %eax,(%ecx)
  fd:	1f                   	pop    %ds
  fe:	03 00                	add    (%eax),%eax
 100:	00 00                	add    %al,(%eax)
 102:	00 13                	add    %dl,(%ebx)
 104:	00 00                	add    %al,(%eax)
 106:	00 41 00             	add    %al,0x0(%ecx)
 109:	00 00                	add    %al,(%eax)
 10b:	02 01                	add    (%ecx),%al
 10d:	1f                   	pop    %ds
 10e:	02 0f                	add    (%edi),%cl
 110:	06                   	push   %es
 111:	a0 00 00 00 01       	mov    0x1000000,%al
 116:	a8 00                	test   $0x0,%al
 118:	00 00                	add    %al,(%eax)
 11a:	02 a0 00 00 00 01    	add    0x1000000(%eax),%ah
 120:	53                   	push   %ebx
 121:	00 00                	add    %al,(%eax)
 123:	00 02                	add    %al,(%edx)
 125:	81 00 00 00 02 74    	addl   $0x74020000,(%eax)
 12b:	00 00                	add    %al,(%eax)
 12d:	00 02                	add    %al,(%edx)
 12f:	05 01 00 05 02       	add    $0x2050001,%eax
 134:	6d                   	insl   (%dx),%es:(%edi)
 135:	30 30                	xor    %dh,(%eax)
 137:	00 03                	add    %al,(%ebx)
 139:	fc                   	cld    
 13a:	00 01                	add    %al,(%ecx)
 13c:	05 0a c9 05 06       	add    $0x605c90a,%eax
 141:	66 05 10 59          	add    $0x5910,%ax
 145:	05 18 58 05 1c       	add    $0x1c055818,%eax
 14a:	66 05 14 90          	add    $0x9014,%ax
 14e:	05 20 3c 05 01       	add    $0x1053c20,%eax
 153:	67 04 02             	addr16 add $0x2,%al
 156:	03 8a 7f 66 05 04    	add    0x405667f(%edx),%ecx
 15c:	69 22 67 08 23 05    	imul   $0x5230867,(%edx),%esp
 162:	0e                   	push   %cs
 163:	00 02                	add    %al,(%edx)
 165:	04 01                	add    $0x1,%al
 167:	59                   	pop    %ecx
 168:	05 01 4f 05 04       	add    $0x4054f01,%eax
 16d:	6a 05                	push   $0x5
 16f:	0d 67 05 0b 08       	or     $0x80b0567,%eax
 174:	4d                   	dec    %ebp
 175:	05 01 3d 31 05       	add    $0x5313d01,%eax
 17a:	04 6a                	add    $0x6a,%al
 17c:	05 0d 67 05 0b       	add    $0xb05670d,%eax
 181:	08 77 05             	or     %dh,0x5(%edi)
 184:	01 3d 31 05 0d 69    	add    %edi,0x690d0531
 18a:	05 04 08 9f 05       	add    $0x59f0804,%eax
 18f:	0b 08                	or     (%eax),%ecx
 191:	67 05 01 3d 31 05    	addr16 add $0x5313d01,%eax
 197:	09 3d 05 1d 2f 05    	or     %edi,0x52f1d05
 19d:	1b 90 05 07 3c 05    	sbb    0x53c0705(%eax),%edx
 1a3:	0a 08                	or     (%eax),%cl
 1a5:	1f                   	pop    %ds
 1a6:	05 01 a0 4d 05       	add    $0x54da001,%eax
 1ab:	18 3d 05 04 3c 05    	sbb    %bh,0x53c0405
 1b1:	01 08                	add    %ecx,(%eax)
 1b3:	21 40 05             	and    %eax,0x5(%eax)
 1b6:	09 08                	or     %ecx,(%eax)
 1b8:	23 05 04 74 05 19    	and    0x19057404,%eax
 1be:	30 05 1b 66 05 14    	xor    %al,0x1405661b
 1c4:	3c 05                	cmp    $0x5,%al
 1c6:	0b 08                	or     (%eax),%ecx
 1c8:	3c 05                	cmp    $0x5,%al
 1ca:	07                   	pop    %es
 1cb:	67 00 02             	add    %al,(%bp,%si)
 1ce:	04 01                	add    $0x1,%al
 1d0:	06                   	push   %es
 1d1:	66 00 02             	data16 add %al,(%edx)
 1d4:	04 02                	add    $0x2,%al
 1d6:	74 00                	je     1d8 <mbh-0x2ffe28>
 1d8:	02 04 04             	add    (%esp,%eax,1),%al
 1db:	58                   	pop    %eax
 1dc:	05 15 00 02 04       	add    $0x4020015,%eax
 1e1:	04 06                	add    $0x6,%al
 1e3:	e1 05                	loope  1ea <mbh-0x2ffe16>
 1e5:	0f 00 02             	sldt   (%edx)
 1e8:	04 02                	add    $0x2,%al
 1ea:	4a                   	dec    %edx
 1eb:	05 01 87 4d 05       	add    $0x54d8701,%eax
 1f0:	06                   	push   %es
 1f1:	08 4e 05             	or     %cl,0x5(%esi)
 1f4:	0e                   	push   %cs
 1f5:	08 59 05             	or     %bl,0x5(%ecx)
 1f8:	11 08                	adc    %ecx,(%eax)
 1fa:	4c                   	dec    %esp
 1fb:	05 0b 67 05 06       	add    $0x605670b,%eax
 200:	76 05                	jbe    207 <mbh-0x2ffdf9>
 202:	07                   	pop    %es
 203:	68 05 0d f3 05       	push   $0x5f30d05
 208:	09 a1 05 26 30 05    	or     %esp,0x5302605(%ecx)
 20e:	2b 08                	sub    (%eax),%ecx
 210:	3c 05                	cmp    $0x5,%al
 212:	0f 3c                	(bad)  
 214:	05 17 3c 05 1a       	add    $0x1a053c17,%eax
 219:	3c 05                	cmp    $0x5,%al
 21b:	13 66 05             	adc    0x5(%esi),%esp
 21e:	2b 2e                	sub    (%esi),%ebp
 220:	05 1e 2e 05 0d       	add    $0xd052e1e,%eax
 225:	2f                   	das    
 226:	05 0a 08 8d 05       	add    $0x58d080a,%eax
 22b:	09 08                	or     %ecx,(%eax)
 22d:	7a 05                	jp     234 <mbh-0x2ffdcc>
 22f:	23 2f                	and    (%edi),%ebp
 231:	05 2b 3c 05 27       	add    $0x27053c2b,%eax
 236:	3c 05                	cmp    $0x5,%al
 238:	07                   	pop    %es
 239:	58                   	pop    %eax
 23a:	05 0d 08 49 05       	add    $0x549080d,%eax
 23f:	10 3c 05 0a 66 05 01 	adc    %bh,0x105660a(,%eax,1)
 246:	4c                   	dec    %esp
 247:	85 05 06 08 4e 05    	test   %eax,0x54e0806
 24d:	0e                   	push   %cs
 24e:	08 59 05             	or     %bl,0x5(%ecx)
 251:	11 08                	adc    %ecx,(%eax)
 253:	4c                   	dec    %esp
 254:	05 0b 67 05 09       	add    $0x905670b,%eax
 259:	76 05                	jbe    260 <mbh-0x2ffda0>
 25b:	26 30 05 2b 08 3c 05 	xor    %al,%es:0x53c082b
 262:	0f 3c                	(bad)  
 264:	05 17 3c 05 1a       	add    $0x1a053c17,%eax
 269:	3c 05                	cmp    $0x5,%al
 26b:	13 66 05             	adc    0x5(%esi),%esp
 26e:	2b 2e                	sub    (%esi),%ebp
 270:	05 1e 2e 05 0d       	add    $0xd052e1e,%eax
 275:	2f                   	das    
 276:	05 0a 08 8d 05       	add    $0x58d080a,%eax
 27b:	09 08                	or     %ecx,(%eax)
 27d:	7a 05                	jp     284 <mbh-0x2ffd7c>
 27f:	23 2f                	and    (%edi),%ebp
 281:	05 2b 3c 05 27       	add    $0x27053c2b,%eax
 286:	3c 05                	cmp    $0x5,%al
 288:	07                   	pop    %es
 289:	58                   	pop    %eax
 28a:	05 0d 08 49 05       	add    $0x549080d,%eax
 28f:	10 3c 05 0a 66 05 01 	adc    %bh,0x105660a(,%eax,1)
 296:	4c                   	dec    %esp
 297:	8a 05 0f 08 4c 05    	mov    0x54c080f,%al
 29d:	06                   	push   %es
 29e:	76 05                	jbe    2a5 <mbh-0x2ffd5b>
 2a0:	12 00                	adc    (%eax),%al
 2a2:	02 04 01             	add    (%ecx,%eax,1),%al
 2a5:	66 05 11 67          	add    $0x6711,%ax
 2a9:	05 09 76 05 23       	add    $0x23057609,%eax
 2ae:	30 05 1c f2 05 10    	xor    %al,0x1005f21c
 2b4:	90                   	nop
 2b5:	05 0d d7 05 0a       	add    $0xa05d70d,%eax
 2ba:	08 2f                	or     %ch,(%edi)
 2bc:	05 10 4b 05 14       	add    $0x14054b10,%eax
 2c1:	45                   	inc    %ebp
 2c2:	00 02                	add    %al,(%edx)
 2c4:	04 01                	add    $0x1,%al
 2c6:	06                   	push   %es
 2c7:	66 05 28 00          	add    $0x28,%ax
 2cb:	02 04 02             	add    (%edx,%eax,1),%al
 2ce:	06                   	push   %es
 2cf:	66 05 17 00          	add    $0x17,%ax
 2d3:	02 04 03             	add    (%ebx,%eax,1),%al
 2d6:	08 74 05 07          	or     %dh,0x7(%ebp,%eax,1)
 2da:	6e                   	outsb  %ds:(%esi),(%dx)
 2db:	05 09 67 05 1e       	add    $0x1e056709,%eax
 2e0:	2f                   	das    
 2e1:	05 07 ac 05 0d       	add    $0xd05ac07,%eax
 2e6:	08 1f                	or     %bl,(%edi)
 2e8:	05 0a 90 05 0b       	add    $0xb05900a,%eax
 2ed:	4d                   	dec    %ebp
 2ee:	05 01 3d 86 05       	add    $0x5863d01,%eax
 2f3:	04 08                	add    $0x8,%al
 2f5:	21 05 01 08 91 40    	and    %eax,0x40910801
 2fb:	05 11 6c 05 0b       	add    $0xb056c11,%eax
 300:	67 75 05             	addr16 jne 308 <mbh-0x2ffcf8>
 303:	08 75 05             	or     %dh,0x5(%ebp)
 306:	09 75 05             	or     %esi,0x5(%ebp)
 309:	06                   	push   %es
 30a:	76 05                	jbe    311 <mbh-0x2ffcef>
 30c:	0f 00 02             	sldt   (%edx)
 30f:	04 01                	add    $0x1,%al
 311:	9e                   	sahf   
 312:	05 09 00 02 04       	add    $0x4020009,%eax
 317:	01 4c 05 12          	add    %ecx,0x12(%ebp,%eax,1)
 31b:	5a                   	pop    %edx
 31c:	05 09 90 68 05       	add    $0x5689009,%eax
 321:	0c a1                	or     $0xa1,%al
 323:	05 0f 67 05 15       	add    $0x1505670f,%eax
 328:	67 05 14 bc 05 0d    	addr16 add $0xd05bc14,%eax
 32e:	75 05                	jne    335 <mbh-0x2ffccb>
 330:	13 59 05             	adc    0x5(%ecx),%ebx
 333:	12 00                	adc    (%eax),%al
 335:	02 04 01             	add    (%ecx,%eax,1),%al
 338:	67 05 0d 00 02 04    	addr16 add $0x402000d,%eax
 33e:	01 83 05 0c 5c 05    	add    %eax,0x55c0c05(%ebx)
 344:	13 67 05             	adc    0x5(%edi),%esp
 347:	0d d7 05 13 08       	or     $0x81305d7,%eax
 34c:	67 05 11 67 05 0d    	addr16 add $0xd056711,%eax
 352:	d7                   	xlat   %ds:(%ebx)
 353:	05 13 08 67 05       	add    $0x5670813,%eax
 358:	1e                   	push   %ds
 359:	67 05 16 ac 05 0d    	addr16 add $0xd05ac16,%eax
 35f:	9f                   	lahf   
 360:	05 13 08 d7 05       	add    $0x5d70813,%eax
 365:	16                   	push   %ss
 366:	67 05 0d 08 3d 05    	addr16 add $0x53d080d,%eax
 36c:	13 08                	adc    (%eax),%ecx
 36e:	d9 05 1d 00 02 04    	flds   0x402001d
 374:	01 66 05             	add    %esp,0x5(%esi)
 377:	0f a1                	pop    %fs
 379:	05 16 67 05 14       	add    $0x14056716,%eax
 37e:	08 59 05             	or     %bl,0x5(%ecx)
 381:	18 67 05             	sbb    %ah,0x5(%edi)
 384:	16                   	push   %ss
 385:	ac                   	lods   %ds:(%esi),%al
 386:	05 14 91 05 22       	add    $0x22059114,%eax
 38b:	67 05 16 ac 05 21    	addr16 add $0x2105ac16,%eax
 391:	a0 05 16 ac 05       	mov    0x5ac1605,%al
 396:	0d a0 05 29 03       	or     $0x32905a0,%eax
 39b:	74 08                	je     3a5 <mbh-0x2ffc5b>
 39d:	4a                   	dec    %edx
 39e:	05 13 03 0e 58       	add    $0x580e0313,%eax
 3a3:	05 1d 00 02 04       	add    $0x402001d,%eax
 3a8:	01 66 05             	add    %esp,0x5(%esi)
 3ab:	0f a1                	pop    %fs
 3ad:	05 16 67 05 14       	add    $0x14056716,%eax
 3b2:	08 59 05             	or     %bl,0x5(%ecx)
 3b5:	18 67 05             	sbb    %ah,0x5(%edi)
 3b8:	16                   	push   %ss
 3b9:	ac                   	lods   %ds:(%esi),%al
 3ba:	05 14 bb 05 22       	add    $0x2205bb14,%eax
 3bf:	67 05 16 ac 05 21    	addr16 add $0x2105ac16,%eax
 3c5:	e6 05                	out    %al,$0x5
 3c7:	16                   	push   %ss
 3c8:	ac                   	lods   %ds:(%esi),%al
 3c9:	05 0f ca 05 10       	add    $0x1005ca0f,%eax
 3ce:	67 05 29 03 73 08    	addr16 add $0x8730329,%eax
 3d4:	4a                   	dec    %edx
 3d5:	05 10 03 0f 58       	add    $0x580f0310,%eax
 3da:	05 29 03 71 08       	add    $0x8710329,%eax
 3df:	90                   	nop
 3e0:	05 13 03 12 58       	add    $0x58120313,%eax
 3e5:	05 16 67 05 0d       	add    $0xd056716,%eax
 3ea:	08 3d 05 13 08 91    	or     %bh,0x91081305
 3f0:	05 16 67 05 0d       	add    $0xd056716,%eax
 3f5:	08 3d 05 13 08 d9    	or     %bh,0xd9081305
 3fb:	05 1e 67 05 16       	add    $0x1605671e,%eax
 400:	ac                   	lods   %ds:(%esi),%al
 401:	05 0d 9f 08 67       	add    $0x67089f0d,%eax
 406:	05 14 08 af 05       	add    $0x5af0814,%eax
 40b:	1e                   	push   %ds
 40c:	00 02                	add    %al,(%edx)
 40e:	04 01                	add    $0x1,%al
 410:	66 05 0d 00          	add    $0xd,%ax
 414:	02 04 02             	add    (%edx,%eax,1),%al
 417:	67 05 14 31 05 0d    	addr16 add $0xd053114,%eax
 41d:	67 08 86 05 11       	or     %al,0x1105(%bp)
 422:	08 4d 05             	or     %cl,0x5(%ebp)
 425:	0e                   	push   %cs
 426:	75 92                	jne    3ba <mbh-0x2ffc46>
 428:	05 11 68 05 0f       	add    $0xf056811,%eax
 42d:	75 05                	jne    434 <mbh-0x2ffbcc>
 42f:	0a 93 03 9c 7f 08    	or     0x87f9c03(%ebx),%dl
 435:	66 05 0c 03          	add    $0x30c,%ax
 439:	e7 00                	out    %eax,$0x0
 43b:	d6                   	(bad)  
 43c:	05 14 3c 05 17       	add    $0x17053c14,%eax
 441:	3c 05                	cmp    $0x5,%al
 443:	10 66 05             	adc    %ah,0x5(%esi)
 446:	1b 2e                	sbb    (%esi),%ebp
 448:	05 0e 3d 05 01       	add    $0x1053d0e,%eax
 44d:	3d 02 02 00 01       	cmp    $0x1000202,%eax
 452:	01 30                	add    %esi,(%eax)
 454:	01 00                	add    %eax,(%eax)
 456:	00 05 00 04 00 3c    	add    %al,0x3c000400
 45c:	00 00                	add    %al,(%eax)
 45e:	00 01                	add    %al,(%ecx)
 460:	01 01                	add    %eax,(%ecx)
 462:	fb                   	sti    
 463:	0e                   	push   %cs
 464:	0d 00 01 01 01       	or     $0x1010100,%eax
 469:	01 00                	add    %eax,(%eax)
 46b:	00 00                	add    %al,(%eax)
 46d:	01 00                	add    %eax,(%eax)
 46f:	00 01                	add    %al,(%ecx)
 471:	01 01                	add    %eax,(%ecx)
 473:	1f                   	pop    %ds
 474:	03 00                	add    (%eax),%eax
 476:	00 00                	add    %al,(%eax)
 478:	00 13                	add    %dl,(%ebx)
 47a:	00 00                	add    %al,(%eax)
 47c:	00 41 00             	add    %al,0x0(%ecx)
 47f:	00 00                	add    %al,(%eax)
 481:	02 01                	add    (%ecx),%al
 483:	1f                   	pop    %ds
 484:	02 0f                	add    (%edi),%cl
 486:	04 c0                	add    $0xc0,%al
 488:	00 00                	add    %al,(%eax)
 48a:	00 01                	add    %al,(%ecx)
 48c:	c0 00 00             	rolb   $0x0,(%eax)
 48f:	00 01                	add    %al,(%ecx)
 491:	53                   	push   %ebx
 492:	00 00                	add    %al,(%eax)
 494:	00 02                	add    %al,(%edx)
 496:	74 00                	je     498 <mbh-0x2ffb68>
 498:	00 00                	add    %al,(%eax)
 49a:	02 05 01 00 05 02    	add    0x2050001,%al
 4a0:	04 39                	add    $0x39,%al
 4a2:	30 00                	xor    %al,(%eax)
 4a4:	16                   	push   %ss
 4a5:	05 09 c9 05 07       	add    $0x705c909,%eax
 4aa:	2f                   	das    
 4ab:	05 0a 9d 05 01       	add    $0x1059d0a,%eax
 4b0:	08 a0 4d 05 04 cc    	or     %ah,-0x33fbfab3(%eax)
 4b6:	05 0c c9 4b 05       	add    $0x54bc90c,%eax
 4bb:	04 9f                	add    $0x9f,%al
 4bd:	05 0f bc 05 0c       	add    $0xc05bc0f,%eax
 4c2:	9f                   	lahf   
 4c3:	05 04 9f bc 05       	add    $0x5bc9f04,%eax
 4c8:	0c ca                	or     $0xca,%al
 4ca:	05 0e 4b 9f 05       	add    $0x59f4b0e,%eax
 4cf:	04 9f                	add    $0x9f,%al
 4d1:	05 01 bb 3f 05       	add    $0x53fbb01,%eax
 4d6:	04 ce                	add    $0xce,%al
 4d8:	c9                   	leave  
 4d9:	9f                   	lahf   
 4da:	05 0c cb 05 11       	add    $0x1105cb0c,%eax
 4df:	4b                   	dec    %ebx
 4e0:	05 04 9f 05 0c       	add    $0xc059f04,%eax
 4e5:	03 0b                	add    (%ebx),%ecx
 4e7:	ba 05 04 4c bd       	mov    $0xbd4c0405,%edx
 4ec:	05 01 c9 3f 05       	add    $0x53fc901,%eax
 4f1:	04 3d                	add    $0x3d,%al
 4f3:	c9                   	leave  
 4f4:	05 01 c9 3f 05       	add    $0x53fc901,%eax
 4f9:	09 c9                	or     %ecx,%ecx
 4fb:	05 1f 30 05 10       	add    $0x1005301f,%eax
 500:	d6                   	(bad)  
 501:	05 17 58 05 13       	add    $0x13055817,%eax
 506:	66 05 1d 2e          	add    $0x2e1d,%ax
 50a:	05 0a 2f 05 0e       	add    $0xe052f0a,%eax
 50f:	66 05 0a 8d          	add    $0x8d0a,%ax
 513:	05 20 08 66 05       	add    $0x5660820,%eax
 518:	26 00 02             	add    %al,%es:(%edx)
 51b:	04 01                	add    $0x1,%al
 51d:	4a                   	dec    %edx
 51e:	05 20 00 02 04       	add    $0x4020020,%eax
 523:	01 66 05             	add    %esp,0x5(%esi)
 526:	01 5d 3f             	add    %ebx,0x3f(%ebp)
 529:	05 09 c9 05 0a       	add    $0xa05c909,%eax
 52e:	30 05 09 08 66 05    	xor    %al,0x5660809
 534:	0a 4c 05 0d          	or     0xd(%ebp,%eax,1),%cl
 538:	08 4b 05             	or     %cl,0x5(%ebx)
 53b:	11 66 05             	adc    %esp,0x5(%esi)
 53e:	0d 8b 05 12 66       	or     $0x6612058b,%eax
 543:	05 01 60 4d 05       	add    $0x54d6001,%eax
 548:	10 69 05             	adc    %ch,0x5(%ecx)
 54b:	0b 67 05             	or     0x5(%edi),%esp
 54e:	04 76                	add    $0x76,%al
 550:	05 0e 08 3d 05       	add    $0x53d080e,%eax
 555:	01 3d 31 05 10 69    	add    %edi,0x69100531
 55b:	05 0b 67 05 04       	add    $0x405670b,%eax
 560:	76 05                	jbe    567 <mbh-0x2ffa99>
 562:	0e                   	push   %cs
 563:	08 3d 05 01 3d 31    	or     %bh,0x313d0105
 569:	05 0b 67 05 09       	add    $0x905670b,%eax
 56e:	76 05                	jbe    575 <mbh-0x2ffa8b>
 570:	0a 2f                	or     (%edi),%ch
 572:	05 09 08 4a 05       	add    $0x54a0809,%eax
 577:	0a 4c 05 0b          	or     0xb(%ebp,%eax,1),%cl
 57b:	ad                   	lods   %ds:(%esi),%eax
 57c:	05 0a 46 05 01       	add    $0x105460a,%eax
 581:	6c                   	insb   (%dx),%es:(%edi)
 582:	02 04 00             	add    (%eax,%eax,1),%al
 585:	01 01                	add    %eax,(%ecx)
 587:	86 00                	xchg   %al,(%eax)
 589:	00 00                	add    %al,(%eax)
 58b:	05 00 04 00 3c       	add    $0x3c000400,%eax
 590:	00 00                	add    %al,(%eax)
 592:	00 01                	add    %al,(%ecx)
 594:	01 01                	add    %eax,(%ecx)
 596:	fb                   	sti    
 597:	0e                   	push   %cs
 598:	0d 00 01 01 01       	or     $0x1010100,%eax
 59d:	01 00                	add    %eax,(%eax)
 59f:	00 00                	add    %al,(%eax)
 5a1:	01 00                	add    %eax,(%eax)
 5a3:	00 01                	add    %al,(%ecx)
 5a5:	01 01                	add    %eax,(%ecx)
 5a7:	1f                   	pop    %ds
 5a8:	03 00                	add    (%eax),%eax
 5aa:	00 00                	add    %al,(%eax)
 5ac:	00 13                	add    %dl,(%ebx)
 5ae:	00 00                	add    %al,(%eax)
 5b0:	00 41 00             	add    %al,0x0(%ecx)
 5b3:	00 00                	add    %al,(%eax)
 5b5:	02 01                	add    (%ecx),%al
 5b7:	1f                   	pop    %ds
 5b8:	02 0f                	add    (%edi),%cl
 5ba:	04 d6                	add    $0xd6,%al
 5bc:	00 00                	add    %al,(%eax)
 5be:	00 01                	add    %al,(%ecx)
 5c0:	d6                   	(bad)  
 5c1:	00 00                	add    %al,(%eax)
 5c3:	00 01                	add    %al,(%ecx)
 5c5:	7b 00                	jnp    5c7 <mbh-0x2ffa39>
 5c7:	00 00                	add    %al,(%eax)
 5c9:	02 53 00             	add    0x0(%ebx),%dl
 5cc:	00 00                	add    %al,(%eax)
 5ce:	02 05 01 00 05 02    	add    0x2050001,%al
 5d4:	a9 3b 30 00 16       	test   $0x1600303b,%eax
 5d9:	05 0d 03 0b 66       	add    $0x660b030d,%eax
 5de:	05 04 4b 9f 05       	add    $0x59f4b04,%eax
 5e3:	0d a5 05 04 4b       	or     $0x4b0405a5,%eax
 5e8:	05 0d a0 05 04       	add    $0x405a00d,%eax
 5ed:	4b                   	dec    %ebx
 5ee:	05 0d a5 05 15       	add    $0x1505a50d,%eax
 5f3:	4b                   	dec    %ebx
 5f4:	05 04 9f 05 0d       	add    $0xd059f04,%eax
 5f9:	a0 05 12 4b 05       	mov    0x54b1205,%al
 5fe:	04 c9                	add    $0xc9,%al
 600:	05 0d 03 09 9e       	add    $0x9e09030d,%eax
 605:	05 04 4b 9f 05       	add    $0x59f4b04,%eax
 60a:	01 9f 02 03 00 01    	add    %ebx,0x1000302(%edi)
 610:	01 b0 00 00 00 05    	add    %esi,0x5000000(%eax)
 616:	00 04 00             	add    %al,(%eax,%eax,1)
 619:	4b                   	dec    %ebx
 61a:	00 00                	add    %al,(%eax)
 61c:	00 01                	add    %al,(%ecx)
 61e:	01 01                	add    %eax,(%ecx)
 620:	fb                   	sti    
 621:	0e                   	push   %cs
 622:	0d 00 01 01 01       	or     $0x1010100,%eax
 627:	01 00                	add    %eax,(%eax)
 629:	00 00                	add    %al,(%eax)
 62b:	01 00                	add    %eax,(%eax)
 62d:	00 01                	add    %al,(%ecx)
 62f:	01 01                	add    %eax,(%ecx)
 631:	1f                   	pop    %ds
 632:	03 00                	add    (%eax),%eax
 634:	00 00                	add    %al,(%eax)
 636:	00 13                	add    %dl,(%ebx)
 638:	00 00                	add    %al,(%eax)
 63a:	00 41 00             	add    %al,0x0(%ecx)
 63d:	00 00                	add    %al,(%eax)
 63f:	02 01                	add    (%ecx),%al
 641:	1f                   	pop    %ds
 642:	02 0f                	add    (%edi),%cl
 644:	07                   	pop    %es
 645:	eb 00                	jmp    647 <mbh-0x2ff9b9>
 647:	00 00                	add    %al,(%eax)
 649:	01 eb                	add    %ebp,%ebx
 64b:	00 00                	add    %al,(%eax)
 64d:	00 01                	add    %al,(%ecx)
 64f:	53                   	push   %ebx
 650:	00 00                	add    %al,(%eax)
 652:	00 02                	add    %al,(%edx)
 654:	f2 00 00             	repnz add %al,(%eax)
 657:	00 02                	add    %al,(%edx)
 659:	f8                   	clc    
 65a:	00 00                	add    %al,(%eax)
 65c:	00 02                	add    %al,(%edx)
 65e:	6d                   	insl   (%dx),%es:(%edi)
 65f:	00 00                	add    %al,(%eax)
 661:	00 02                	add    %al,(%edx)
 663:	81 00 00 00 02 05    	addl   $0x5020000,(%eax)
 669:	01 00                	add    %eax,(%eax)
 66b:	05 02 31 3c 30       	add    $0x303c3102,%eax
 670:	00 03                	add    %al,(%ebx)
 672:	0a 01                	or     (%ecx),%al
 674:	05 08 6b 05 09       	add    $0x9056b08,%eax
 679:	77 05                	ja     680 <mbh-0x2ff980>
 67b:	04 74                	add    $0x74,%al
 67d:	05 07 00 02 04       	add    $0x4020007,%eax
 682:	03 59 05             	add    0x5(%ecx),%ebx
 685:	1f                   	pop    %ds
 686:	00 02                	add    %al,(%edx)
 688:	04 03                	add    $0x3,%al
 68a:	02 85 01 11 05 27    	add    0x27051101(%ebp),%al
 690:	00 02                	add    %al,(%edx)
 692:	04 03                	add    $0x3,%al
 694:	4a                   	dec    %edx
 695:	05 0f 00 02 04       	add    $0x402000f,%eax
 69a:	01 4a cb             	add    %ecx,-0x35(%edx)
 69d:	75 05                	jne    6a4 <mbh-0x2ff95c>
 69f:	04 67                	add    $0x67,%al
 6a1:	05 01 4b 3f 05       	add    $0x53f4b01,%eax
 6a6:	04 bb                	add    $0xbb,%al
 6a8:	05 0c 03 1c 02       	add    $0x21c030c,%eax
 6ad:	a2 01 01 05 06       	mov    %al,0x6050101
 6b2:	a0 05 07 67 05       	mov    0x5670705,%al
 6b7:	01 85 05 07 2d 05    	add    %eax,0x52d0705(%ebp)
 6bd:	01 08                	add    %ecx,(%eax)
 6bf:	4b                   	dec    %ebx
 6c0:	02 09                	add    (%ecx),%cl
 6c2:	00 01                	add    %al,(%ecx)
 6c4:	01 a5 00 00 00 05    	add    %esp,0x5000000(%ebp)
 6ca:	00 04 00             	add    %al,(%eax,%eax,1)
 6cd:	2e 00 00             	add    %al,%cs:(%eax)
 6d0:	00 01                	add    %al,(%ecx)
 6d2:	01 01                	add    %eax,(%ecx)
 6d4:	fb                   	sti    
 6d5:	0e                   	push   %cs
 6d6:	0d 00 01 01 01       	or     $0x1010100,%eax
 6db:	01 00                	add    %eax,(%eax)
 6dd:	00 00                	add    %al,(%eax)
 6df:	01 00                	add    %eax,(%eax)
 6e1:	00 01                	add    %al,(%ecx)
 6e3:	01 01                	add    %eax,(%ecx)
 6e5:	1f                   	pop    %ds
 6e6:	02 00                	add    (%eax),%al
 6e8:	00 00                	add    %al,(%eax)
 6ea:	00 13                	add    %dl,(%ebx)
 6ec:	00 00                	add    %al,(%eax)
 6ee:	00 02                	add    %al,(%edx)
 6f0:	01 1f                	add    %ebx,(%edi)
 6f2:	02 0f                	add    (%edi),%cl
 6f4:	02 ff                	add    %bh,%bh
 6f6:	00 00                	add    %al,(%eax)
 6f8:	00 01                	add    %al,(%ecx)
 6fa:	ff 00                	incl   (%eax)
 6fc:	00 00                	add    %al,(%eax)
 6fe:	01 00                	add    %eax,(%eax)
 700:	05 02 de 3d 30       	add    $0x303dde02,%eax
 705:	00 03                	add    %al,(%ebx)
 707:	0d 01 21 2f 2f       	or     $0x2f2f2101,%eax
 70c:	30 21                	xor    %ah,(%ecx)
 70e:	30 2f                	xor    %ch,(%edi)
 710:	03 11                	add    (%ecx),%edx
 712:	20 21                	and    %ah,(%ecx)
 714:	2f                   	das    
 715:	5b                   	pop    %ebx
 716:	21 3d 02 01 00 01    	and    %edi,0x1000102
 71c:	01 00                	add    %eax,(%eax)
 71e:	05 02 10 20 30       	add    $0x30201002,%eax
 723:	00 03                	add    %al,(%ebx)
 725:	38 01                	cmp    %al,(%ecx)
 727:	2f                   	das    
 728:	2f                   	das    
 729:	be 2f 2f be 2f       	mov    $0x2fbe2f2f,%esi
 72e:	2f                   	das    
 72f:	be 2f 2f be 2f       	mov    $0x2fbe2f2f,%esi
 734:	2f                   	das    
 735:	be 2f 2f be 2f       	mov    $0x2fbe2f2f,%esi
 73a:	2f                   	das    
 73b:	be 2f 2f be 2f       	mov    $0x2fbe2f2f,%esi
 740:	da 2f                	fisubrl (%edi)
 742:	2f                   	das    
 743:	be 2f da 2f da       	mov    $0xda2fda2f,%esi
 748:	2f                   	das    
 749:	da 2f                	fisubrl (%edi)
 74b:	da 2f                	fisubrl (%edi)
 74d:	da 2f                	fisubrl (%edi)
 74f:	2f                   	das    
 750:	be 2f 2f be 2f       	mov    $0x2fbe2f2f,%esi
 755:	da 2f                	fisubrl (%edi)
 757:	2f                   	das    
 758:	be 2f 2f c0 02       	mov    $0x2c02f2f,%esi
 75d:	c0 01 1a             	rolb   $0x1a,(%ecx)
 760:	02 80 01 1a 02 80    	add    -0x7ffde5ff(%eax),%al
 766:	01 1a                	add    %ebx,(%edx)
 768:	02 fc                	add    %ah,%bh
 76a:	19 00                	sbb    %eax,(%eax)
 76c:	01 01                	add    %eax,(%ecx)
 76e:	91                   	xchg   %eax,%ecx
 76f:	00 00                	add    %al,(%eax)
 771:	00 05 00 04 00 50    	add    %al,0x50000400
 777:	00 00                	add    %al,(%eax)
 779:	00 01                	add    %al,(%ecx)
 77b:	01 01                	add    %eax,(%ecx)
 77d:	fb                   	sti    
 77e:	0e                   	push   %cs
 77f:	0d 00 01 01 01       	or     $0x1010100,%eax
 784:	01 00                	add    %eax,(%eax)
 786:	00 00                	add    %al,(%eax)
 788:	01 00                	add    %eax,(%eax)
 78a:	00 01                	add    %al,(%ecx)
 78c:	01 01                	add    %eax,(%ecx)
 78e:	1f                   	pop    %ds
 78f:	03 00                	add    (%eax),%eax
 791:	00 00                	add    %al,(%eax)
 793:	00 13                	add    %dl,(%ebx)
 795:	00 00                	add    %al,(%eax)
 797:	00 41 00             	add    %al,0x0(%ecx)
 79a:	00 00                	add    %al,(%eax)
 79c:	02 01                	add    (%ecx),%al
 79e:	1f                   	pop    %ds
 79f:	02 0f                	add    (%edi),%cl
 7a1:	08 14 01             	or     %dl,(%ecx,%eax,1)
 7a4:	00 00                	add    %al,(%eax)
 7a6:	01 14 01             	add    %edx,(%ecx,%eax,1)
 7a9:	00 00                	add    %al,(%eax)
 7ab:	01 53 00             	add    %edx,0x0(%ebx)
 7ae:	00 00                	add    %al,(%eax)
 7b0:	02 f2                	add    %dl,%dh
 7b2:	00 00                	add    %al,(%eax)
 7b4:	00 02                	add    %al,(%edx)
 7b6:	f8                   	clc    
 7b7:	00 00                	add    %al,(%eax)
 7b9:	00 02                	add    %al,(%edx)
 7bb:	6d                   	insl   (%dx),%es:(%edi)
 7bc:	00 00                	add    %al,(%eax)
 7be:	00 02                	add    %al,(%edx)
 7c0:	81 00 00 00 02 1b    	addl   $0x1b020000,(%eax)
 7c6:	01 00                	add    %eax,(%eax)
 7c8:	00 02                	add    %al,(%edx)
 7ca:	05 01 00 05 02       	add    $0x2050001,%eax
 7cf:	f8                   	clc    
 7d0:	3d 30 00 03 20       	cmp    $0x20030030,%eax
 7d5:	01 05 04 ad 05 12    	add    %eax,0x1205ad04
 7db:	02 22                	add    (%edx),%ah
 7dd:	14 05                	adc    $0x5,%al
 7df:	04 9e                	add    $0x9e,%al
 7e1:	05 07 08 bd f3       	add    $0xf3bd0807,%eax
 7e6:	5c                   	pop    %esp
 7e7:	02 5a 18             	add    0x18(%edx),%bl
 7ea:	31 02                	xor    %eax,(%edx)
 7ec:	59                   	pop    %ecx
 7ed:	17                   	pop    %ss
 7ee:	05 04 23 08 91       	add    $0x91082304,%eax
 7f3:	05 1c 08 91 05       	add    $0x591081c,%eax
 7f8:	04 66                	add    $0x66,%al
 7fa:	bb 05 01 f3 02       	mov    $0x2f30105,%ebx
 7ff:	07                   	pop    %es
 800:	00 01                	add    %al,(%ecx)
 802:	01 7c 00 00          	add    %edi,0x0(%eax,%eax,1)
 806:	00 05 00 04 00 3c    	add    %al,0x3c000400
 80c:	00 00                	add    %al,(%eax)
 80e:	00 01                	add    %al,(%ecx)
 810:	01 01                	add    %eax,(%ecx)
 812:	fb                   	sti    
 813:	0e                   	push   %cs
 814:	0d 00 01 01 01       	or     $0x1010100,%eax
 819:	01 00                	add    %eax,(%eax)
 81b:	00 00                	add    %al,(%eax)
 81d:	01 00                	add    %eax,(%eax)
 81f:	00 01                	add    %al,(%ecx)
 821:	01 01                	add    %eax,(%ecx)
 823:	1f                   	pop    %ds
 824:	03 00                	add    (%eax),%eax
 826:	00 00                	add    %al,(%eax)
 828:	00 13                	add    %dl,(%ebx)
 82a:	00 00                	add    %al,(%eax)
 82c:	00 41 00             	add    %al,0x0(%ecx)
 82f:	00 00                	add    %al,(%eax)
 831:	02 01                	add    (%ecx),%al
 833:	1f                   	pop    %ds
 834:	02 0f                	add    (%edi),%cl
 836:	04 32                	add    $0x32,%al
 838:	01 00                	add    %eax,(%eax)
 83a:	00 01                	add    %al,(%ecx)
 83c:	32 01                	xor    (%ecx),%al
 83e:	00 00                	add    %al,(%eax)
 840:	01 53 00             	add    %edx,0x0(%ebx)
 843:	00 00                	add    %al,(%eax)
 845:	02 81 00 00 00 02    	add    0x2000000(%ecx),%al
 84b:	05 01 00 05 02       	add    $0x2050001,%eax
 850:	74 3f                	je     891 <mbh-0x2ff76f>
 852:	30 00                	xor    %al,(%eax)
 854:	1a 05 04 69 05 08    	sbb    0x8056904,%al
 85a:	f4                   	hlt    
 85b:	05 09 67 05 1e       	add    $0x1e056709,%eax
 860:	30 05 19 66 05 0b    	xor    %al,0xb056619
 866:	2e 05 19 3d 05 0b    	cs add $0xb053d19,%eax
 86c:	58                   	pop    %eax
 86d:	05 07 3d 05 0e       	add    $0xe053d07,%eax
 872:	08 2a                	or     %ch,(%edx)
 874:	00 02                	add    %al,(%edx)
 876:	04 01                	add    $0x1,%al
 878:	06                   	push   %es
 879:	66 05 01 06          	add    $0x601,%ax
 87d:	96                   	xchg   %eax,%esi
 87e:	02 03                	add    (%ebx),%al
 880:	00 01                	add    %al,(%ecx)
 882:	01 a0 00 00 00 05    	add    %esp,0x5000000(%eax)
 888:	00 04 00             	add    %al,(%eax,%eax,1)
 88b:	3d 00 00 00 01       	cmp    $0x1000000,%eax
 890:	01 01                	add    %eax,(%ecx)
 892:	fb                   	sti    
 893:	0e                   	push   %cs
 894:	0d 00 01 01 01       	or     $0x1010100,%eax
 899:	01 00                	add    %eax,(%eax)
 89b:	00 00                	add    %al,(%eax)
 89d:	01 00                	add    %eax,(%eax)
 89f:	00 01                	add    %al,(%ecx)
 8a1:	01 01                	add    %eax,(%ecx)
 8a3:	1f                   	pop    %ds
 8a4:	02 00                	add    (%eax),%al
 8a6:	00 00                	add    %al,(%eax)
 8a8:	00 41 00             	add    %al,0x0(%ecx)
 8ab:	00 00                	add    %al,(%eax)
 8ad:	02 01                	add    (%ecx),%al
 8af:	1f                   	pop    %ds
 8b0:	02 0f                	add    (%edi),%cl
 8b2:	05 3a 01 00 00       	add    $0x13a,%eax
 8b7:	00 3a                	add    %bh,(%edx)
 8b9:	01 00                	add    %eax,(%eax)
 8bb:	00 00                	add    %al,(%eax)
 8bd:	53                   	push   %ebx
 8be:	00 00                	add    %al,(%eax)
 8c0:	00 01                	add    %al,(%ecx)
 8c2:	6d                   	insl   (%dx),%es:(%edi)
 8c3:	00 00                	add    %al,(%eax)
 8c5:	00 01                	add    %al,(%ecx)
 8c7:	81 00 00 00 01 05    	addl   $0x5010000,(%eax)
 8cd:	13 00                	adc    (%eax),%eax
 8cf:	05 02 ca 3f 30       	add    $0x303fca02,%eax
 8d4:	00 16                	add    %dl,(%esi)
 8d6:	05 04 67 05 01       	add    $0x1056704,%eax
 8db:	f3 05 13 3e 05 05    	repz add $0x5053e13,%eax
 8e1:	68 05 02 67 08       	push   $0x8670205
 8e6:	2f                   	das    
 8e7:	05 01 21 05 0b       	add    $0xb052101,%eax
 8ec:	3e 05 02 77 4b 08    	ds add $0x84b7702,%eax
 8f2:	3f                   	aas    
 8f3:	4b                   	dec    %ebx
 8f4:	05 11 08 3f 05       	add    $0x53f0811,%eax
 8f9:	02 75 05             	add    0x5(%ebp),%dh
 8fc:	1b 08                	sbb    (%eax),%ecx
 8fe:	30 05 09 58 05 0e    	xor    %al,0xe055809
 904:	3c 05                	cmp    $0x5,%al
 906:	1b 3c 05 1e 02 23 13 	sbb    0x1323021e(,%eax,1),%edi
 90d:	05 3d 58 05 09       	add    $0x905583d,%eax
 912:	58                   	pop    %eax
 913:	05 0e 3c 05 1b       	add    $0x1b053c0e,%eax
 918:	3c 05                	cmp    $0x5,%al
 91a:	02 02                	add    (%edx),%al
 91c:	25 14 5a 05 01       	and    $0x1055a14,%eax
 921:	f7 02 06 00 01 01    	testl  $0x1010006,(%edx)

Déassemblage de la section .debug_line_str :

00000000 <.debug_line_str>:
   0:	2f                   	das    
   1:	72 6f                	jb     72 <mbh-0x2fff8e>
   3:	6f                   	outsl  %ds:(%esi),(%dx)
   4:	74 2f                	je     35 <mbh-0x2fffcb>
   6:	73 65                	jae    6d <mbh-0x2fff93>
   8:	63 6f 73             	arpl   %bp,0x73(%edi)
   b:	2d 6e 67 2f 74       	sub    $0x742f676e,%eax
  10:	70 32                	jo     44 <mbh-0x2fffbc>
  12:	00 2e                	add    %ch,(%esi)
  14:	2e 2f                	cs das 
  16:	6b 65 72 6e          	imul   $0x6e,0x72(%ebp),%esp
  1a:	65 6c                	gs insb (%dx),%es:(%edi)
  1c:	2f                   	das    
  1d:	63 6f 72             	arpl   %bp,0x72(%edi)
  20:	65 00 65 6e          	add    %ah,%gs:0x6e(%ebp)
  24:	74 72                	je     98 <mbh-0x2fff68>
  26:	79 2e                	jns    56 <mbh-0x2fffaa>
  28:	73 00                	jae    2a <mbh-0x2fffd6>
  2a:	2e 2e 2f             	cs cs das 
  2d:	6b 65 72 6e          	imul   $0x6e,0x72(%ebp),%esp
  31:	65 6c                	gs insb (%dx),%es:(%edi)
  33:	2f                   	das    
  34:	63 6f 72             	arpl   %bp,0x72(%edi)
  37:	65 2f                	gs das 
  39:	73 74                	jae    af <mbh-0x2fff51>
  3b:	61                   	popa   
  3c:	72 74                	jb     b2 <mbh-0x2fff4e>
  3e:	2e 63 00             	arpl   %ax,%cs:(%eax)
  41:	2e 2e 2f             	cs cs das 
  44:	6b 65 72 6e          	imul   $0x6e,0x72(%ebp),%esp
  48:	65 6c                	gs insb (%dx),%es:(%edi)
  4a:	2f                   	das    
  4b:	69 6e 63 6c 75 64 65 	imul   $0x6564756c,0x63(%esi),%ebp
  52:	00 74 79 70          	add    %dh,0x70(%ecx,%edi,2)
  56:	65 73 2e             	gs jae 87 <mbh-0x2fff79>
  59:	68 00 67 72 75       	push   $0x75726700
  5e:	62 5f 6d             	bound  %ebx,0x6d(%edi)
  61:	62 69 2e             	bound  %ebp,0x2e(%ecx)
  64:	68 00 69 6e 66       	push   $0x666e6900
  69:	6f                   	outsl  %ds:(%esi),(%dx)
  6a:	2e 68 00 69 6e 74    	cs push $0x746e6900
  70:	72 2e                	jb     a0 <mbh-0x2fff60>
  72:	68 00 75 61 72       	push   $0x72617500
  77:	74 2e                	je     a7 <mbh-0x2fff59>
  79:	68 00 70 69 63       	push   $0x63697000
  7e:	2e 68 00 70 72 69    	cs push $0x69727000
  84:	6e                   	outsb  %ds:(%esi),(%dx)
  85:	74 2e                	je     b5 <mbh-0x2fff4b>
  87:	68 00 73 74 61       	push   $0x61747300
  8c:	72 74                	jb     102 <mbh-0x2ffefe>
  8e:	2e 68 00 2e 2e 2f    	cs push $0x2f2e2e00
  94:	6b 65 72 6e          	imul   $0x6e,0x72(%ebp),%esp
  98:	65 6c                	gs insb (%dx),%es:(%edi)
  9a:	2f                   	das    
  9b:	63 6f 72             	arpl   %bp,0x72(%edi)
  9e:	65 2f                	gs das 
  a0:	70 72                	jo     114 <mbh-0x2ffeec>
  a2:	69 6e 74 2e 63 00 73 	imul   $0x7300632e,0x74(%esi),%ebp
  a9:	74 72                	je     11d <mbh-0x2ffee3>
  ab:	69 6e 67 2e 68 00 2e 	imul   $0x2e00682e,0x67(%esi),%ebp
  b2:	2e 2f                	cs das 
  b4:	6b 65 72 6e          	imul   $0x6e,0x72(%ebp),%esp
  b8:	65 6c                	gs insb (%dx),%es:(%edi)
  ba:	2f                   	das    
  bb:	63 6f 72             	arpl   %bp,0x72(%edi)
  be:	65 2f                	gs das 
  c0:	75 61                	jne    123 <mbh-0x2ffedd>
  c2:	72 74                	jb     138 <mbh-0x2ffec8>
  c4:	2e 63 00             	arpl   %ax,%cs:(%eax)
  c7:	2e 2e 2f             	cs cs das 
  ca:	6b 65 72 6e          	imul   $0x6e,0x72(%ebp),%esp
  ce:	65 6c                	gs insb (%dx),%es:(%edi)
  d0:	2f                   	das    
  d1:	63 6f 72             	arpl   %bp,0x72(%edi)
  d4:	65 2f                	gs das 
  d6:	70 69                	jo     141 <mbh-0x2ffebf>
  d8:	63 2e                	arpl   %bp,(%esi)
  da:	63 00                	arpl   %ax,(%eax)
  dc:	2e 2e 2f             	cs cs das 
  df:	6b 65 72 6e          	imul   $0x6e,0x72(%ebp),%esp
  e3:	65 6c                	gs insb (%dx),%es:(%edi)
  e5:	2f                   	das    
  e6:	63 6f 72             	arpl   %bp,0x72(%edi)
  e9:	65 2f                	gs das 
  eb:	69 6e 74 72 2e 63 00 	imul   $0x632e72,0x74(%esi),%ebp
  f2:	67 70 72             	addr16 jo 167 <mbh-0x2ffe99>
  f5:	2e 68 00 65 78 63    	cs push $0x63786500
  fb:	70 2e                	jo     12b <mbh-0x2ffed5>
  fd:	68 00 69 64 74       	push   $0x74646900
 102:	2e 73 00             	jae,pn 105 <mbh-0x2ffefb>
 105:	2e 2e 2f             	cs cs das 
 108:	6b 65 72 6e          	imul   $0x6e,0x72(%ebp),%esp
 10c:	65 6c                	gs insb (%dx),%es:(%edi)
 10e:	2f                   	das    
 10f:	63 6f 72             	arpl   %bp,0x72(%edi)
 112:	65 2f                	gs das 
 114:	65 78 63             	gs js  17a <mbh-0x2ffe86>
 117:	70 2e                	jo     147 <mbh-0x2ffeb9>
 119:	63 00                	arpl   %ax,(%eax)
 11b:	64 65 62 75 67       	fs bound %esi,%gs:0x67(%ebp)
 120:	2e 68 00 2e 2e 2f    	cs push $0x2f2e2e00
 126:	6b 65 72 6e          	imul   $0x6e,0x72(%ebp),%esp
 12a:	65 6c                	gs insb (%dx),%es:(%edi)
 12c:	2f                   	das    
 12d:	63 6f 72             	arpl   %bp,0x72(%edi)
 130:	65 2f                	gs das 
 132:	73 74                	jae    1a8 <mbh-0x2ffe58>
 134:	61                   	popa   
 135:	63 6b 2e             	arpl   %bp,0x2e(%ebx)
 138:	63 00                	arpl   %ax,(%eax)
 13a:	74 70                	je     1ac <mbh-0x2ffe54>
 13c:	2e 63 00             	arpl   %ax,%cs:(%eax)

Déassemblage de la section .debug_info :

00000000 <.debug_info>:
       0:	20 00                	and    %al,(%eax)
       2:	00 00                	add    %al,(%eax)
       4:	05 00 01 04 00       	add    $0x40100,%eax
       9:	00 00                	add    %al,(%eax)
       b:	00 01                	add    %al,(%ecx)
       d:	00 00                	add    %al,(%eax)
       f:	00 00                	add    %al,(%eax)
      11:	10 30                	adc    %dh,(%eax)
      13:	30 00                	xor    %al,(%eax)
      15:	13 00                	adc    (%eax),%eax
      17:	00 00                	add    %al,(%eax)
      19:	00 17                	add    %dl,(%edi)
      1b:	00 00                	add    %al,(%eax)
      1d:	00 2a                	add    %ch,(%edx)
      1f:	00 00                	add    %al,(%eax)
      21:	00 01                	add    %al,(%ecx)
      23:	80 71 04 00          	xorb   $0x0,0x4(%ecx)
      27:	00 05 00 01 04 14    	add    %al,0x14040100
      2d:	00 00                	add    %al,(%eax)
      2f:	00 10                	add    %dl,(%eax)
      31:	18 04 00             	sbb    %al,(%eax,%eax,1)
      34:	00 1d 2a 00 00 00    	add    %bl,0x2a
      3a:	00 00                	add    %al,(%eax)
      3c:	00 00                	add    %al,(%eax)
      3e:	23 30                	and    (%eax),%esi
      40:	30 00                	xor    %al,(%eax)
      42:	4a                   	dec    %edx
      43:	00 00                	add    %al,(%eax)
      45:	00 50 00             	add    %dl,0x0(%eax)
      48:	00 00                	add    %al,(%eax)
      4a:	03 01                	add    (%ecx),%eax
      4c:	08 c9                	or     %cl,%cl
      4e:	01 00                	add    %eax,(%eax)
      50:	00 03                	add    %al,(%ebx)
      52:	02 07                	add    (%edi),%al
      54:	6b 02 00             	imul   $0x0,(%edx),%eax
      57:	00 02                	add    %al,(%edx)
      59:	92                   	xchg   %eax,%edx
      5a:	00 00                	add    %al,(%eax)
      5c:	00 02                	add    %al,(%edx)
      5e:	1c 20                	sbb    $0x20,%al
      60:	4a                   	dec    %edx
      61:	00 00                	add    %al,(%eax)
      63:	00 06                	add    %al,(%esi)
      65:	34 00                	xor    $0x0,%al
      67:	00 00                	add    %al,(%eax)
      69:	09 40 00             	or     %eax,0x0(%eax)
      6c:	00 00                	add    %al,(%eax)
      6e:	03 04 07             	add    (%edi,%eax,1),%eax
      71:	0d 02 00 00 03       	or     $0x3000002,%eax
      76:	08 07                	or     %al,(%edi)
      78:	03 02                	add    (%edx),%eax
      7a:	00 00                	add    %al,(%eax)
      7c:	03 01                	add    (%ecx),%eax
      7e:	06                   	push   %es
      7f:	cb                   	lret   
      80:	01 00                	add    %eax,(%eax)
      82:	00 03                	add    %al,(%ebx)
      84:	02 05 9b 00 00 00    	add    0x9b,%al
      8a:	11 04 05 69 6e 74 00 	adc    %eax,0x746e69(,%eax,1)
      91:	03 08                	add    (%eax),%ecx
      93:	05 58 01 00 00       	add    $0x158,%eax
      98:	03 01                	add    (%ecx),%eax
      9a:	06                   	push   %es
      9b:	d2 01                	rolb   %cl,(%ecx)
      9d:	00 00                	add    %al,(%eax)
      9f:	06                   	push   %es
      a0:	74 00                	je     a2 <mbh-0x2fff5e>
      a2:	00 00                	add    %al,(%eax)
      a4:	02 a5 00 00 00 02    	add    0x2000000(%ebp),%ah
      aa:	25 20 8c 00 00       	and    $0x8c20,%eax
      af:	00 03                	add    %al,(%ebx)
      b1:	04 07                	add    $0x7,%al
      b3:	08 02                	or     %al,(%edx)
      b5:	00 00                	add    %al,(%eax)
      b7:	02 da                	add    %dl,%bl
      b9:	03 00                	add    (%eax),%eax
      bb:	00 03                	add    %al,(%ebx)
      bd:	60                   	pusha  
      be:	21 26                	and    %esp,(%esi)
      c0:	00 00                	add    %al,(%eax)
      c2:	00 02                	add    %al,(%edx)
      c4:	ff 00                	incl   (%eax)
      c6:	00 00                	add    %al,(%eax)
      c8:	03 61 21             	add    0x21(%ecx),%esp
      cb:	2d 00 00 00 02       	sub    $0x2000000,%eax
      d0:	88 00                	mov    %al,(%eax)
      d2:	00 00                	add    %al,(%eax)
      d4:	03 62 21             	add    0x21(%edx),%esp
      d7:	4a                   	dec    %edx
      d8:	00 00                	add    %al,(%eax)
      da:	00 02                	add    %al,(%edx)
      dc:	7e 02                	jle    e0 <mbh-0x2fff20>
      de:	00 00                	add    %al,(%eax)
      e0:	03 63 21             	add    0x21(%ebx),%esp
      e3:	51                   	push   %ecx
      e4:	00 00                	add    %al,(%eax)
      e6:	00 05 b3 03 00 00    	add    %al,0x3b3
      ec:	10 03                	adc    %al,(%ebx)
      ee:	7f 08                	jg     f8 <mbh-0x2fff08>
      f0:	01 01                	add    %eax,(%ecx)
      f2:	00 00                	add    %al,(%eax)
      f4:	01 2c 03             	add    %ebp,(%ebx,%eax,1)
      f7:	00 00                	add    %al,(%eax)
      f9:	81 16 ab 00 00 00    	adcl   $0xab,(%esi)
      ff:	00 01                	add    %al,(%ecx)
     101:	12 01                	adc    (%ecx),%al
     103:	00 00                	add    %al,(%eax)
     105:	82 16 ab             	adcb   $0xab,(%esi)
     108:	00 00                	add    %al,(%eax)
     10a:	00 04 01             	add    %al,(%ecx,%eax,1)
     10d:	e6 05                	out    %al,$0x5
     10f:	00 00                	add    %al,(%eax)
     111:	83 16 ab             	adcl   $0xffffffab,(%esi)
     114:	00 00                	add    %al,(%eax)
     116:	00 08                	add    %cl,(%eax)
     118:	01 0f                	add    %ecx,(%edi)
     11a:	04 00                	add    $0x0,%al
     11c:	00 84 16 ab 00 00 00 	add    %al,0xab(%esi,%edx,1)
     123:	0c 00                	or     $0x0,%al
     125:	02 fc                	add    %ah,%bh
     127:	02 00                	add    (%eax),%al
     129:	00 03                	add    %al,(%ebx)
     12b:	86 2c c3             	xchg   %ch,(%ebx,%eax,8)
     12e:	00 00                	add    %al,(%eax)
     130:	00 05 b6 02 00 00    	add    %al,0x2b6
     136:	10 03                	adc    %al,(%ebx)
     138:	89 08                	mov    %ecx,(%eax)
     13a:	4c                   	dec    %esp
     13b:	01 00                	add    %eax,(%eax)
     13d:	00 07                	add    %al,(%edi)
     13f:	6e                   	outsb  %ds:(%esi),(%dx)
     140:	75 6d                	jne    1af <mbh-0x2ffe51>
     142:	00 03                	add    %al,(%ebx)
     144:	8b 16                	mov    (%esi),%edx
     146:	ab                   	stos   %eax,%es:(%edi)
     147:	00 00                	add    %al,(%eax)
     149:	00 00                	add    %al,(%eax)
     14b:	01 49 03             	add    %ecx,0x3(%ecx)
     14e:	00 00                	add    %al,(%eax)
     150:	8c 16                	mov    %ss,(%esi)
     152:	ab                   	stos   %eax,%es:(%edi)
     153:	00 00                	add    %al,(%eax)
     155:	00 04 01             	add    %al,(%ecx,%eax,1)
     158:	e6 05                	out    %al,$0x5
     15a:	00 00                	add    %al,(%eax)
     15c:	8d 16                	lea    (%esi),%edx
     15e:	ab                   	stos   %eax,%es:(%edi)
     15f:	00 00                	add    %al,(%eax)
     161:	00 08                	add    %cl,(%eax)
     163:	01 48 01             	add    %ecx,0x1(%eax)
     166:	00 00                	add    %al,(%eax)
     168:	8e 16                	mov    (%esi),%ss
     16a:	ab                   	stos   %eax,%es:(%edi)
     16b:	00 00                	add    %al,(%eax)
     16d:	00 0c 00             	add    %cl,(%eax,%eax,1)
     170:	02 23                	add    (%ebx),%ah
     172:	01 00                	add    %eax,(%eax)
     174:	00 03                	add    %al,(%ebx)
     176:	90                   	nop
     177:	33 0d 01 00 00 0a    	xor    0xa000001,%ecx
     17d:	10 a5 76 01 00 00    	adc    %ah,0x176(%ebp)
     183:	0b ec                	or     %esp,%ebp
     185:	00 00                	add    %al,(%eax)
     187:	00 a7 23 01 01 00    	add    %ah,0x10123(%edi)
     18d:	00 0b                	add    %cl,(%ebx)
     18f:	e8 01 00 00 a8       	call   a8000195 <__kernel_end__+0xa7cfab95>
     194:	2a 4c 01 00          	sub    0x0(%ecx,%eax,1),%cl
     198:	00 00                	add    %al,(%eax)
     19a:	0c 08                	or     $0x8,%al
     19c:	cf                   	iret   
     19d:	96                   	xchg   %eax,%esi
     19e:	01 00                	add    %eax,(%eax)
     1a0:	00 01                	add    %al,(%ecx)
     1a2:	d2 05 00 00 d1 1a    	rolb   %cl,0x1ad10000
     1a8:	ab                   	stos   %eax,%es:(%edi)
     1a9:	00 00                	add    %al,(%eax)
     1ab:	00 00                	add    %al,(%eax)
     1ad:	01 6c 01 00          	add    %ebp,0x0(%ecx,%eax,1)
     1b1:	00 d2                	add    %dl,%dl
     1b3:	1a 9f 00 00 00 04    	sbb    0x4000000(%edi),%bl
     1b9:	00 0c 06             	add    %cl,(%esi,%eax,1)
     1bc:	d4 e6                	aam    $0xe6
     1be:	01 00                	add    %eax,(%eax)
     1c0:	00 01                	add    %al,(%ecx)
     1c2:	ac                   	lods   %ds:(%esi),%al
     1c3:	00 00                	add    %al,(%eax)
     1c5:	00 d6                	add    %dl,%dh
     1c7:	19 93 00 00 00 00    	sbb    %edx,0x0(%ebx)
     1cd:	01 34 03             	add    %esi,(%ebx,%eax,1)
     1d0:	00 00                	add    %al,(%eax)
     1d2:	d7                   	xlat   %ds:(%ebx)
     1d3:	19 93 00 00 00 01    	sbb    %edx,0x1000000(%ebx)
     1d9:	01 38                	add    %edi,(%eax)
     1db:	02 00                	add    (%eax),%al
     1dd:	00 d8                	add    %bl,%al
     1df:	19 93 00 00 00 02    	sbb    %edx,0x2000000(%ebx)
     1e5:	01 73 03             	add    %esi,0x3(%ebx)
     1e8:	00 00                	add    %al,(%eax)
     1ea:	d9 19                	fstps  (%ecx)
     1ec:	93                   	xchg   %eax,%ebx
     1ed:	00 00                	add    %al,(%eax)
     1ef:	00 03                	add    %al,(%ebx)
     1f1:	01 8b 01 00 00 da    	add    %ecx,-0x25ffffff(%ebx)
     1f7:	19 93 00 00 00 04    	sbb    %edx,0x4000000(%ebx)
     1fd:	01 40 00             	add    %eax,0x0(%eax)
     200:	00 00                	add    %al,(%eax)
     202:	db 19                	fistpl (%ecx)
     204:	93                   	xchg   %eax,%ebx
     205:	00 00                	add    %al,(%eax)
     207:	00 05 00 0a 08 cd    	add    %al,0xcd080a00
     20d:	f8                   	clc    
     20e:	01 00                	add    %eax,(%eax)
     210:	00 0d 76 01 00 00    	add    %cl,0x176
     216:	0d 96 01 00 00       	or     $0x196,%eax
     21b:	00 05 a7 02 00 00    	add    %al,0x2a7
     221:	78 03                	js     226 <mbh-0x2ffdda>
     223:	92                   	xchg   %eax,%edx
     224:	08 4f 03             	or     %cl,0x3(%edi)
     227:	00 00                	add    %al,(%eax)
     229:	01 3c 0b             	add    %edi,(%ebx,%ecx,1)
     22c:	00 00                	add    %al,(%eax)
     22e:	95                   	xchg   %eax,%ebp
     22f:	16                   	push   %ss
     230:	ab                   	stos   %eax,%es:(%edi)
     231:	00 00                	add    %al,(%eax)
     233:	00 00                	add    %al,(%eax)
     235:	01 f0                	add    %esi,%eax
     237:	01 00                	add    %eax,(%eax)
     239:	00 98 16 ab 00 00    	add    %bl,0xab16(%eax)
     23f:	00 04 01             	add    %al,(%ecx,%eax,1)
     242:	5c                   	pop    %esp
     243:	03 00                	add    (%eax),%eax
     245:	00 99 16 ab 00 00    	add    %bl,0xab16(%ecx)
     24b:	00 08                	add    %cl,(%eax)
     24d:	01 9b 02 00 00 9c    	add    %ebx,-0x63fffffe(%ebx)
     253:	16                   	push   %ss
     254:	ab                   	stos   %eax,%es:(%edi)
     255:	00 00                	add    %al,(%eax)
     257:	00 0c 01             	add    %cl,(%ecx,%eax,1)
     25a:	de 00                	fiadds (%eax)
     25c:	00 00                	add    %al,(%eax)
     25e:	9f                   	lahf   
     25f:	16                   	push   %ss
     260:	ab                   	stos   %eax,%es:(%edi)
     261:	00 00                	add    %al,(%eax)
     263:	00 10                	add    %dl,(%eax)
     265:	01 cf                	add    %ecx,%edi
     267:	03 00                	add    (%eax),%eax
     269:	00 a2 16 ab 00 00    	add    %ah,0xab16(%edx)
     26f:	00 14 01             	add    %dl,(%ecx,%eax,1)
     272:	f5                   	cmc    
     273:	00 00                	add    %al,(%eax)
     275:	00 a3 16 ab 00 00    	add    %ah,0xab16(%ebx)
     27b:	00 18                	add    %bl,(%eax)
     27d:	07                   	pop    %es
     27e:	75 00                	jne    280 <mbh-0x2ffd80>
     280:	03 a9 05 58 01 00    	add    0x15805(%ecx),%ebp
     286:	00 1c 01             	add    %bl,(%ecx,%eax,1)
     289:	2c 02                	sub    $0x2,%al
     28b:	00 00                	add    %al,(%eax)
     28d:	ac                   	lods   %ds:(%esi),%al
     28e:	16                   	push   %ss
     28f:	ab                   	stos   %eax,%es:(%edi)
     290:	00 00                	add    %al,(%eax)
     292:	00 2c 01             	add    %ch,(%ecx,%eax,1)
     295:	5b                   	pop    %ebx
     296:	00 00                	add    %al,(%eax)
     298:	00 ad 16 ab 00 00    	add    %ch,0xab16(%ebp)
     29e:	00 30                	add    %dh,(%eax)
     2a0:	01 4e 03             	add    %ecx,0x3(%esi)
     2a3:	00 00                	add    %al,(%eax)
     2a5:	b0 16                	mov    $0x16,%al
     2a7:	ab                   	stos   %eax,%es:(%edi)
     2a8:	00 00                	add    %al,(%eax)
     2aa:	00 34 01             	add    %dh,(%ecx,%eax,1)
     2ad:	d2 00                	rolb   %cl,(%eax)
     2af:	00 00                	add    %al,(%eax)
     2b1:	b1 16                	mov    $0x16,%cl
     2b3:	ab                   	stos   %eax,%es:(%edi)
     2b4:	00 00                	add    %al,(%eax)
     2b6:	00 38                	add    %bh,(%eax)
     2b8:	01 66 03             	add    %esp,0x3(%esi)
     2bb:	00 00                	add    %al,(%eax)
     2bd:	b4 16                	mov    $0x16,%ah
     2bf:	ab                   	stos   %eax,%es:(%edi)
     2c0:	00 00                	add    %al,(%eax)
     2c2:	00 3c 01             	add    %bh,(%ecx,%eax,1)
     2c5:	ec                   	in     (%dx),%al
     2c6:	03 00                	add    (%eax),%eax
     2c8:	00 b7 16 ab 00 00    	add    %dh,0xab16(%edi)
     2ce:	00 40 01             	add    %al,0x1(%eax)
     2d1:	4e                   	dec    %esi
     2d2:	01 00                	add    %eax,(%eax)
     2d4:	00 ba 16 ab 00 00    	add    %bh,0xab16(%edx)
     2da:	00 44 01 d7          	add    %al,-0x29(%ecx,%eax,1)
     2de:	01 00                	add    %eax,(%eax)
     2e0:	00 bd 16 ab 00 00    	add    %bh,0xab16(%ebp)
     2e6:	00 48 01             	add    %cl,0x1(%eax)
     2e9:	bb 01 00 00 be       	mov    $0xbe000001,%ebx
     2ee:	16                   	push   %ss
     2ef:	ab                   	stos   %eax,%es:(%edi)
     2f0:	00 00                	add    %al,(%eax)
     2f2:	00 4c 01 fa          	add    %cl,-0x6(%ecx,%eax,1)
     2f6:	01 00                	add    %eax,(%eax)
     2f8:	00 bf 16 9f 00 00    	add    %bh,0x9f16(%edi)
     2fe:	00 50 01             	add    %dl,0x1(%eax)
     301:	fd                   	std    
     302:	03 00                	add    (%eax),%eax
     304:	00 c0                	add    %al,%al
     306:	16                   	push   %ss
     307:	9f                   	lahf   
     308:	00 00                	add    %al,(%eax)
     30a:	00 52 01             	add    %dl,0x1(%edx)
     30d:	76 00                	jbe    30f <mbh-0x2ffcf1>
     30f:	00 00                	add    %al,(%eax)
     311:	c1 16 9f             	rcll   $0x9f,(%esi)
     314:	00 00                	add    %al,(%eax)
     316:	00 54 01 1a          	add    %dl,0x1a(%ecx,%eax,1)
     31a:	03 00                	add    (%eax),%eax
     31c:	00 c2                	add    %al,%dl
     31e:	16                   	push   %ss
     31f:	9f                   	lahf   
     320:	00 00                	add    %al,(%eax)
     322:	00 56 01             	add    %dl,0x1(%esi)
     325:	65 00 00             	add    %al,%gs:(%eax)
     328:	00 c4                	add    %al,%ah
     32a:	16                   	push   %ss
     32b:	b7 00                	mov    $0x0,%bh
     32d:	00 00                	add    %al,(%eax)
     32f:	58                   	pop    %eax
     330:	01 d9                	add    %ebx,%ecx
     332:	02 00                	add    (%eax),%al
     334:	00 c5                	add    %al,%ch
     336:	16                   	push   %ss
     337:	ab                   	stos   %eax,%es:(%edi)
     338:	00 00                	add    %al,(%eax)
     33a:	00 60 01             	add    %ah,0x1(%eax)
     33d:	1a 02                	sbb    (%edx),%al
     33f:	00 00                	add    %al,(%eax)
     341:	c6                   	(bad)  
     342:	16                   	push   %ss
     343:	ab                   	stos   %eax,%es:(%edi)
     344:	00 00                	add    %al,(%eax)
     346:	00 64 01 a0          	add    %ah,-0x60(%ecx,%eax,1)
     34a:	03 00                	add    (%eax),%eax
     34c:	00 c7                	add    %al,%bh
     34e:	16                   	push   %ss
     34f:	ab                   	stos   %eax,%es:(%edi)
     350:	00 00                	add    %al,(%eax)
     352:	00 68 01             	add    %ch,0x1(%eax)
     355:	ab                   	stos   %eax,%es:(%edi)
     356:	01 00                	add    %eax,(%eax)
     358:	00 c8                	add    %cl,%al
     35a:	15 93 00 00 00       	adc    $0x93,%eax
     35f:	6c                   	insb   (%dx),%es:(%edi)
     360:	01 eb                	add    %ebp,%ebx
     362:	02 00                	add    (%eax),%al
     364:	00 cc                	add    %cl,%ah
     366:	15 93 00 00 00       	adc    $0x93,%eax
     36b:	6d                   	insl   (%dx),%es:(%edi)
     36c:	12 e6                	adc    %dh,%ah
     36e:	01 00                	add    %eax,(%eax)
     370:	00 70 00             	add    %dh,0x0(%eax)
     373:	02 8f 03 00 00 03    	add    0x3000003(%edi),%cl
     379:	df 1f                	fistps (%edi)
     37b:	f8                   	clc    
     37c:	01 00                	add    %eax,(%eax)
     37e:	00 02                	add    %al,(%edx)
     380:	66 01 00             	add    %ax,(%eax)
     383:	00 04 08             	add    %al,(%eax,%ecx,1)
     386:	21 4f 03             	and    %ecx,0x3(%edi)
     389:	00 00                	add    %al,(%eax)
     38b:	05 59 02 00 00       	add    $0x259,%eax
     390:	04 05                	add    $0x5,%al
     392:	08 10                	or     %dl,(%eax)
     394:	82 03 00             	addb   $0x0,(%ebx)
     397:	00 07                	add    %al,(%edi)
     399:	6d                   	insl   (%dx),%es:(%edi)
     39a:	62 69 00             	bound  %ebp,0x0(%ecx)
     39d:	05 0a 0b 82 03       	add    $0x3820b0a,%eax
     3a2:	00 00                	add    %al,(%eax)
     3a4:	00 00                	add    %al,(%eax)
     3a6:	08 5b 03             	or     %bl,0x3(%ebx)
     3a9:	00 00                	add    %al,(%eax)
     3ab:	02 99 03 00 00 05    	add    0x5000003(%ecx),%bl
     3b1:	0c 1b                	or     $0x1b,%al
     3b3:	67 03 00             	add    (%bx,%si),%eax
     3b6:	00 13                	add    %dl,(%ebx)
     3b8:	45                   	inc    %ebp
     3b9:	00 00                	add    %al,(%eax)
     3bb:	00 a3 03 00 00 14    	add    %ah,0x14000003(%ebx)
     3c1:	4a                   	dec    %edx
     3c2:	00 00                	add    %al,(%eax)
     3c4:	00 02                	add    %al,(%edx)
     3c6:	00 06                	add    %al,(%esi)
     3c8:	93                   	xchg   %eax,%ebx
     3c9:	03 00                	add    (%eax),%eax
     3cb:	00 09                	add    %cl,(%ecx)
     3cd:	a3 03 00 00 15       	mov    %eax,0x15000003
     3d2:	6d                   	insl   (%dx),%es:(%edi)
     3d3:	62 68 00             	bound  %ebp,0x0(%eax)
     3d6:	01 09                	add    %ecx,(%ecx)
     3d8:	21 a8 03 00 00 04    	and    %ebp,0x4000003(%eax)
     3de:	05 03 00 00 30       	add    $0x30000003,%eax
     3e3:	00 16                	add    %dl,(%esi)
     3e5:	cb                   	lret   
     3e6:	00 00                	add    %al,(%eax)
     3e8:	00 01                	add    %al,(%ecx)
     3ea:	0f                   	(bad)  
     3eb:	0f 87 03 00 00 10    	ja     100003f4 <__kernel_end__+0xfcfadf4>
     3f1:	05 03 e0 49 30       	add    $0x3049e003,%eax
     3f6:	00 17                	add    %dl,(%edi)
     3f8:	cd 00                	int    $0x0
     3fa:	00 00                	add    %al,(%eax)
     3fc:	01 10                	add    %edx,(%eax)
     3fe:	10 e5                	adc    %ah,%ch
     400:	03 00                	add    (%eax),%eax
     402:	00 05 03 60 49 30    	add    %al,0x30496003
     408:	00 08                	add    %cl,(%eax)
     40a:	87 03                	xchg   %eax,(%ebx)
     40c:	00 00                	add    %al,(%eax)
     40e:	18 e6                	sbb    %ah,%dh
     410:	00 00                	add    %al,(%eax)
     412:	00 09                	add    %cl,(%ecx)
     414:	0c 0a                	or     $0xa,%al
     416:	fd                   	std    
     417:	03 00                	add    (%eax),%eax
     419:	00 0e                	add    %cl,(%esi)
     41b:	fd                   	std    
     41c:	03 00                	add    (%eax),%eax
     41e:	00 04 00             	add    %al,(%eax,%eax,1)
     421:	08 7b 00             	or     %bh,0x0(%ebx)
     424:	00 00                	add    %al,(%eax)
     426:	19 74 70 00          	sbb    %esi,0x0(%eax,%esi,2)
     42a:	0a 08                	or     (%eax),%cl
     42c:	0d 0f 04 00 00       	or     $0x40f,%eax
     431:	04 00                	add    $0x0,%al
     433:	1a a2 06 00 00 09    	sbb    0x9000006(%edx),%ah
     439:	0d 0a 80 00 00       	or     $0x800a,%eax
     43e:	00 26                	add    %ah,(%esi)
     440:	04 00                	add    $0x0,%al
     442:	00 0e                	add    %cl,(%esi)
     444:	fd                   	std    
     445:	03 00                	add    (%eax),%eax
     447:	00 04 00             	add    %al,(%eax,%eax,1)
     44a:	1b 91 02 00 00 06    	sbb    0x6000002(%ecx),%edx
     450:	76 06                	jbe    458 <mbh-0x2ffba8>
     452:	34 04                	xor    $0x4,%al
     454:	00 00                	add    %al,(%eax)
     456:	04 00                	add    $0x0,%al
     458:	0f 36                	(bad)  
     45a:	00 00                	add    %al,(%eax)
     45c:	00 07                	add    %al,(%edi)
     45e:	43                   	inc    %ebx
     45f:	01 09                	add    %ecx,(%ecx)
     461:	43                   	inc    %ebx
     462:	04 00                	add    $0x0,%al
     464:	00 04 00             	add    %al,(%eax,%eax,1)
     467:	0f 1a 01             	bndldx (%ecx),%bnd0
     46a:	00 00                	add    %al,(%eax)
     46c:	08 01                	or     %al,(%ecx)
     46e:	01 06                	add    %eax,(%esi)
     470:	52                   	push   %edx
     471:	04 00                	add    $0x0,%al
     473:	00 04 00             	add    %al,(%eax,%eax,1)
     476:	1c 65                	sbb    $0x65,%al
     478:	02 00                	add    (%eax),%al
     47a:	00 01                	add    %al,(%ecx)
     47c:	12 22                	adc    (%edx),%ah
     47e:	23 30                	and    (%eax),%esi
     480:	30 00                	xor    %al,(%eax)
     482:	4a                   	dec    %edx
     483:	00 00                	add    %al,(%eax)
     485:	00 01                	add    %al,(%ecx)
     487:	9c                   	pushf  
     488:	1d 6d 62 69 00       	sbb    $0x69626d,%eax
     48d:	01 12                	add    %edx,(%edx)
     48f:	2f                   	das    
     490:	82 03 00             	addb   $0x0,(%ebx)
     493:	00 02                	add    %al,(%edx)
     495:	91                   	xchg   %eax,%ecx
     496:	6c                   	insb   (%dx),%es:(%edi)
     497:	00 00                	add    %al,(%eax)
     499:	b9 0a 00 00 05       	mov    $0x500000a,%ecx
     49e:	00 01                	add    %al,(%ecx)
     4a0:	04 c5                	add    $0xc5,%al
     4a2:	01 00                	add    %eax,(%eax)
     4a4:	00 19                	add    %bl,(%ecx)
     4a6:	18 04 00             	sbb    %al,(%eax,%eax,1)
     4a9:	00 1d 91 00 00 00    	add    %bl,0x91
     4af:	00 00                	add    %al,(%eax)
     4b1:	00 00                	add    %al,(%eax)
     4b3:	6d                   	insl   (%dx),%es:(%edi)
     4b4:	30 30                	xor    %dh,(%eax)
     4b6:	00 97 08 00 00 dd    	add    %dl,-0x22fffff8(%edi)
     4bc:	00 00                	add    %al,(%eax)
     4be:	00 02                	add    %al,(%edx)
     4c0:	e4 03                	in     $0x3,%al
     4c2:	00 00                	add    %al,(%eax)
     4c4:	03 1a                	add    (%edx),%ebx
     4c6:	20 32                	and    %dh,(%edx)
     4c8:	00 00                	add    %al,(%eax)
     4ca:	00 0a                	add    %cl,(%edx)
     4cc:	01 08                	add    %ecx,(%eax)
     4ce:	c9                   	leave  
     4cf:	01 00                	add    %eax,(%eax)
     4d1:	00 02                	add    %al,(%edx)
     4d3:	09 01                	or     %eax,(%ecx)
     4d5:	00 00                	add    %al,(%eax)
     4d7:	03 1b                	add    (%ebx),%ebx
     4d9:	20 45 00             	and    %al,0x0(%ebp)
     4dc:	00 00                	add    %al,(%eax)
     4de:	0a 02                	or     (%edx),%al
     4e0:	07                   	pop    %es
     4e1:	6b 02 00             	imul   $0x0,(%edx),%eax
     4e4:	00 02                	add    %al,(%edx)
     4e6:	92                   	xchg   %eax,%edx
     4e7:	00 00                	add    %al,(%eax)
     4e9:	00 03                	add    %al,(%ebx)
     4eb:	1c 20                	sbb    $0x20,%al
     4ed:	58                   	pop    %eax
     4ee:	00 00                	add    %al,(%eax)
     4f0:	00 0a                	add    %cl,(%edx)
     4f2:	04 07                	add    $0x7,%al
     4f4:	0d 02 00 00 02       	or     $0x2000002,%eax
     4f9:	88 02                	mov    %al,(%edx)
     4fb:	00 00                	add    %al,(%eax)
     4fd:	03 1d 20 6b 00 00    	add    0x6b20,%ebx
     503:	00 0a                	add    %cl,(%edx)
     505:	08 07                	or     %al,(%edi)
     507:	03 02                	add    (%edx),%eax
     509:	00 00                	add    %al,(%eax)
     50b:	02 f9                	add    %cl,%bh
     50d:	07                   	pop    %es
     50e:	00 00                	add    %al,(%eax)
     510:	03 1f                	add    (%edi),%ebx
     512:	20 7e 00             	and    %bh,0x0(%esi)
     515:	00 00                	add    %al,(%eax)
     517:	0a 01                	or     (%ecx),%al
     519:	06                   	push   %es
     51a:	cb                   	lret   
     51b:	01 00                	add    %eax,(%eax)
     51d:	00 02                	add    %al,(%edx)
     51f:	46                   	inc    %esi
     520:	07                   	pop    %es
     521:	00 00                	add    %al,(%eax)
     523:	03 20                	add    (%eax),%esp
     525:	20 91 00 00 00 0a    	and    %dl,0xa000000(%ecx)
     52b:	02 05 9b 00 00 00    	add    0x9b,%al
     531:	02 fb                	add    %bl,%bh
     533:	05 00 00 03 21       	add    $0x21030000,%eax
     538:	20 a4 00 00 00 1a 04 	and    %ah,0x41a0000(%eax,%eax,1)
     53f:	05 69 6e 74 00       	add    $0x746e69,%eax
     544:	02 dc                	add    %ah,%bl
     546:	06                   	push   %es
     547:	00 00                	add    %al,(%eax)
     549:	03 22                	add    (%edx),%esp
     54b:	20 b7 00 00 00 0a    	and    %dh,0xa000000(%edi)
     551:	08 05 58 01 00 00    	or     %al,0x158
     557:	02 04 06             	add    (%esi,%eax,1),%al
     55a:	00 00                	add    %al,(%eax)
     55c:	03 24 20             	add    (%eax,%eiz,1),%esp
     55f:	ca 00 00             	lret   $0x0
     562:	00 08                	add    %cl,(%eax)
     564:	cf                   	iret   
     565:	00 00                	add    %al,(%eax)
     567:	00 0a                	add    %cl,(%edx)
     569:	01 06                	add    %eax,(%esi)
     56b:	d2 01                	rolb   %cl,(%ecx)
     56d:	00 00                	add    %al,(%eax)
     56f:	1b cf                	sbb    %edi,%ecx
     571:	00 00                	add    %al,(%eax)
     573:	00 02                	add    %al,(%edx)
     575:	a5                   	movsl  %ds:(%esi),%es:(%edi)
     576:	00 00                	add    %al,(%eax)
     578:	00 03                	add    %al,(%ebx)
     57a:	25 20 e7 00 00       	and    $0xe720,%eax
     57f:	00 0a                	add    %cl,(%edx)
     581:	04 07                	add    $0x7,%al
     583:	08 02                	or     %al,(%edx)
     585:	00 00                	add    %al,(%eax)
     587:	02 a6 07 00 00 03    	add    0x3000007(%esi),%ah
     58d:	26 20 e7             	es and %ah,%bh
     590:	00 00                	add    %al,(%eax)
     592:	00 1c 07             	add    %bl,(%edi,%eax,1)
     595:	04 58                	add    $0x58,%al
     597:	00 00                	add    %al,(%eax)
     599:	00 03                	add    %al,(%ebx)
     59b:	29 0e                	sub    %ecx,(%esi)
     59d:	15 01 00 00 17       	adc    $0x17000001,%eax
     5a2:	86 07                	xchg   %al,(%edi)
     5a4:	00 00                	add    %al,(%eax)
     5a6:	00 17                	add    %dl,(%edi)
     5a8:	0f 08                	invd   
     5aa:	00 00                	add    %al,(%eax)
     5ac:	01 00                	add    %eax,(%eax)
     5ae:	02 4a 06             	add    0x6(%edx),%cl
     5b1:	00 00                	add    %al,(%eax)
     5b3:	03 29                	add    (%ecx),%ebp
     5b5:	20 fa                	and    %bh,%dl
     5b7:	00 00                	add    %al,(%eax)
     5b9:	00 0c 02             	add    %cl,(%edx,%eax,1)
     5bc:	4c                   	dec    %esp
     5bd:	04 42                	add    $0x42,%al
     5bf:	01 00                	add    %eax,(%eax)
     5c1:	00 03                	add    %al,(%ebx)
     5c3:	eb 05                	jmp    5ca <mbh-0x2ffa36>
     5c5:	00 00                	add    %al,(%eax)
     5c7:	4e                   	dec    %esi
     5c8:	0f 26 00             	mov    %eax,%tr0
     5cb:	00 00                	add    %al,(%eax)
     5cd:	00 03                	add    %al,(%ebx)
     5cf:	e5 06                	in     $0x6,%eax
     5d1:	00 00                	add    %al,(%eax)
     5d3:	4f                   	dec    %edi
     5d4:	0f 26 00             	mov    %eax,%tr0
     5d7:	00 00                	add    %al,(%eax)
     5d9:	01 00                	add    %eax,(%eax)
     5db:	12 23                	adc    (%ebx),%ah
     5dd:	06                   	push   %es
     5de:	00 00                	add    %al,(%eax)
     5e0:	02 45 74             	add    0x74(%ebp),%al
     5e3:	01 00                	add    %eax,(%eax)
     5e5:	00 06                	add    %al,(%esi)
     5e7:	72 61                	jb     64a <mbh-0x2ff9b6>
     5e9:	77 00                	ja     5eb <mbh-0x2ffa15>
     5eb:	47                   	inc    %edi
     5ec:	0d 39 00 00 00       	or     $0x39,%eax
     5f1:	09 30                	or     %esi,(%eax)
     5f3:	07                   	pop    %es
     5f4:	00 00                	add    %al,(%eax)
     5f6:	48                   	dec    %eax
     5f7:	0d 85 00 00 00       	or     $0x85,%eax
     5fc:	09 a9 06 00 00 49    	or     %ebp,0x49000006(%ecx)
     602:	0d 74 01 00 00       	or     $0x174,%eax
     607:	0b 21                	or     (%ecx),%esp
     609:	01 00                	add    %eax,(%eax)
     60b:	00 00                	add    %al,(%eax)
     60d:	0e                   	push   %cs
     60e:	26 00 00             	add    %al,%es:(%eax)
     611:	00 84 01 00 00 10 58 	add    %al,0x58100000(%ecx,%eax,1)
     618:	00 00                	add    %al,(%eax)
     61a:	00 01                	add    %al,(%ecx)
     61c:	00 02                	add    %al,(%edx)
     61e:	51                   	push   %ecx
     61f:	06                   	push   %es
     620:	00 00                	add    %al,(%eax)
     622:	03 53 1b             	add    0x1b(%ebx),%edx
     625:	42                   	inc    %edx
     626:	01 00                	add    %eax,(%eax)
     628:	00 0c 04             	add    %cl,(%esp,%eax,1)
     62b:	5f                   	pop    %edi
     62c:	04 b1                	add    $0xb1,%al
     62e:	01 00                	add    %eax,(%eax)
     630:	00 03                	add    %al,(%ebx)
     632:	eb 06                	jmp    63a <mbh-0x2ff9c6>
     634:	00 00                	add    %al,(%eax)
     636:	61                   	popa   
     637:	0f 84 01 00 00 00    	je     63e <mbh-0x2ff9c2>
     63d:	03 f2                	add    %edx,%esi
     63f:	07                   	pop    %es
     640:	00 00                	add    %al,(%eax)
     642:	62 0f                	bound  %ecx,(%edi)
     644:	84 01                	test   %al,(%ecx)
     646:	00 00                	add    %al,(%eax)
     648:	02 00                	add    (%eax),%al
     64a:	0c 02                	or     $0x2,%al
     64c:	6b 0a d2             	imul   $0xffffffd2,(%edx),%ecx
     64f:	01 00                	add    %eax,(%eax)
     651:	00 03                	add    %al,(%ebx)
     653:	eb 05                	jmp    65a <mbh-0x2ff9a6>
     655:	00 00                	add    %al,(%eax)
     657:	6d                   	insl   (%dx),%es:(%edi)
     658:	15 26 00 00 00       	adc    $0x26,%eax
     65d:	00 03                	add    %al,(%ebx)
     65f:	e5 06                	in     $0x6,%eax
     661:	00 00                	add    %al,(%eax)
     663:	6e                   	outsb  %ds:(%esi),(%dx)
     664:	15 26 00 00 00       	adc    $0x26,%eax
     669:	01 00                	add    %eax,(%eax)
     66b:	15 02 69 07 eb       	adc    $0xeb076902,%eax
     670:	01 00                	add    %eax,(%eax)
     672:	00 0b                	add    %cl,(%ebx)
     674:	b1 01                	mov    $0x1,%cl
     676:	00 00                	add    %al,(%eax)
     678:	09 ec                	or     %ebp,%esp
     67a:	06                   	push   %es
     67b:	00 00                	add    %al,(%eax)
     67d:	72 13                	jb     692 <mbh-0x2ff96e>
     67f:	39 00                	cmp    %eax,(%eax)
     681:	00 00                	add    %al,(%eax)
     683:	00 0c 04             	add    %cl,(%esp,%eax,1)
     686:	67 04 05             	addr16 add $0x5,%al
     689:	02 00                	add    (%eax),%al
     68b:	00 16                	add    %dl,(%esi)
     68d:	d2 01                	rolb   %cl,(%ecx)
     68f:	00 00                	add    %al,(%eax)
     691:	03 f3                	add    %ebx,%esi
     693:	07                   	pop    %es
     694:	00 00                	add    %al,(%eax)
     696:	76 10                	jbe    6a8 <mbh-0x2ff958>
     698:	39 00                	cmp    %eax,(%eax)
     69a:	00 00                	add    %al,(%eax)
     69c:	02 00                	add    (%eax),%al
     69e:	12 0a                	adc    (%edx),%cl
     6a0:	07                   	pop    %es
     6a1:	00 00                	add    %al,(%eax)
     6a3:	04 58                	add    $0x58,%al
     6a5:	3c 02                	cmp    $0x2,%al
     6a7:	00 00                	add    %al,(%eax)
     6a9:	06                   	push   %es
     6aa:	72 61                	jb     70d <mbh-0x2ff8f3>
     6ac:	77 00                	ja     6ae <mbh-0x2ff952>
     6ae:	5a                   	pop    %edx
     6af:	0d 4c 00 00 00       	or     $0x4c,%eax
     6b4:	09 30                	or     %esi,(%eax)
     6b6:	07                   	pop    %es
     6b7:	00 00                	add    %al,(%eax)
     6b9:	5b                   	pop    %ebx
     6ba:	0d 98 00 00 00       	or     $0x98,%eax
     6bf:	09 a9 06 00 00 5c    	or     %ebp,0x5c000006(%ecx)
     6c5:	0d 3c 02 00 00       	or     $0x23c,%eax
     6ca:	0b 90 01 00 00 0b    	or     0xb000001(%eax),%edx
     6d0:	eb 01                	jmp    6d3 <mbh-0x2ff92d>
     6d2:	00 00                	add    %al,(%eax)
     6d4:	00 0e                	add    %cl,(%esi)
     6d6:	26 00 00             	add    %al,%es:(%eax)
     6d9:	00 4c 02 00          	add    %cl,0x0(%edx,%eax,1)
     6dd:	00 10                	add    %dl,(%eax)
     6df:	58                   	pop    %eax
     6e0:	00 00                	add    %al,(%eax)
     6e2:	00 03                	add    %al,(%ebx)
     6e4:	00 02                	add    %al,(%edx)
     6e6:	74 07                	je     6ef <mbh-0x2ff911>
     6e8:	00 00                	add    %al,(%eax)
     6ea:	03 7a 1b             	add    0x1b(%edx),%edi
     6ed:	05 02 00 00 0c       	add    $0xc000002,%eax
     6f2:	08 86 04 79 02 00    	or     %al,0x27904(%esi)
     6f8:	00 03                	add    %al,(%ebx)
     6fa:	d7                   	xlat   %ds:(%ebx)
     6fb:	06                   	push   %es
     6fc:	00 00                	add    %al,(%eax)
     6fe:	88 0f                	mov    %cl,(%edi)
     700:	4c                   	dec    %esp
     701:	02 00                	add    (%eax),%al
     703:	00 00                	add    %al,(%eax)
     705:	03 2a                	add    (%edx),%ebp
     707:	07                   	pop    %es
     708:	00 00                	add    %al,(%eax)
     70a:	89 0f                	mov    %ecx,(%edi)
     70c:	4c                   	dec    %esp
     70d:	02 00                	add    (%eax),%al
     70f:	00 04 00             	add    %al,(%eax,%eax,1)
     712:	0c 02                	or     $0x2,%al
     714:	96                   	xchg   %eax,%esi
     715:	10 9a 02 00 00 03    	adc    %bl,0x3000002(%edx)
     71b:	eb 05                	jmp    722 <mbh-0x2ff8de>
     71d:	00 00                	add    %al,(%eax)
     71f:	98                   	cwtl   
     720:	1b 26                	sbb    (%esi),%esp
     722:	00 00                	add    %al,(%eax)
     724:	00 00                	add    %al,(%eax)
     726:	03 e5                	add    %ebp,%esp
     728:	06                   	push   %es
     729:	00 00                	add    %al,(%eax)
     72b:	99                   	cltd   
     72c:	1b 26                	sbb    (%esi),%esp
     72e:	00 00                	add    %al,(%eax)
     730:	00 01                	add    %al,(%ecx)
     732:	00 15 02 94 0d b3    	add    %dl,0xb30d9402
     738:	02 00                	add    (%eax),%al
     73a:	00 0b                	add    %cl,(%ebx)
     73c:	79 02                	jns    740 <mbh-0x2ff8c0>
     73e:	00 00                	add    %al,(%eax)
     740:	09 ec                	or     %ebp,%esp
     742:	06                   	push   %es
     743:	00 00                	add    %al,(%eax)
     745:	9d                   	popf   
     746:	19 39                	sbb    %edi,(%ecx)
     748:	00 00                	add    %al,(%eax)
     74a:	00 00                	add    %al,(%eax)
     74c:	0c 04                	or     $0x4,%al
     74e:	92                   	xchg   %eax,%edx
     74f:	0a cd                	or     %ch,%cl
     751:	02 00                	add    (%eax),%al
     753:	00 16                	add    %dl,(%esi)
     755:	9a 02 00 00 03 f3 07 	lcall  $0x7f3,$0x3000002
     75c:	00 00                	add    %al,(%eax)
     75e:	a1 16 39 00 00       	mov    0x3916,%eax
     763:	00 02                	add    %al,(%edx)
     765:	00 15 04 90 07 e6    	add    %dl,0xe6079004
     76b:	02 00                	add    (%eax),%al
     76d:	00 0b                	add    %cl,(%ebx)
     76f:	b3 02                	mov    $0x2,%bl
     771:	00 00                	add    %al,(%eax)
     773:	06                   	push   %es
     774:	6c                   	insb   (%dx),%es:(%edi)
     775:	6f                   	outsl  %ds:(%esi),(%dx)
     776:	77 00                	ja     778 <mbh-0x2ff888>
     778:	a5                   	movsl  %ds:(%esi),%es:(%edi)
     779:	14 4c                	adc    $0x4c,%al
     77b:	00 00                	add    %al,(%eax)
     77d:	00 00                	add    %al,(%eax)
     77f:	0c 08                	or     $0x8,%al
     781:	8e 04 00             	mov    (%eax,%eax,1),%es
     784:	03 00                	add    (%eax),%eax
     786:	00 16                	add    %dl,(%esi)
     788:	cd 02                	int    $0x2
     78a:	00 00                	add    %al,(%eax)
     78c:	03 2b                	add    (%ebx),%ebp
     78e:	07                   	pop    %es
     78f:	00 00                	add    %al,(%eax)
     791:	a9 11 4c 00 00       	test   $0x4c11,%eax
     796:	00 04 00             	add    %al,(%eax,%eax,1)
     799:	12 72 06             	adc    0x6(%edx),%dh
     79c:	00 00                	add    %al,(%eax)
     79e:	08 7f 37             	or     %bh,0x37(%edi)
     7a1:	03 00                	add    (%eax),%eax
     7a3:	00 06                	add    %al,(%esi)
     7a5:	72 61                	jb     808 <mbh-0x2ff7f8>
     7a7:	77 00                	ja     7a9 <mbh-0x2ff857>
     7a9:	81 0d 5f 00 00 00 09 	orl    $0x73009,0x5f
     7b0:	30 07 00 
     7b3:	00 82 0d ab 00 00    	add    %al,0xab0d(%edx)
     7b9:	00 09                	add    %cl,(%ecx)
     7bb:	a9 06 00 00 83       	test   $0x83000006,%eax
     7c0:	0d 37 03 00 00       	or     $0x337,%eax
     7c5:	0b 58 02             	or     0x2(%eax),%ebx
     7c8:	00 00                	add    %al,(%eax)
     7ca:	0b e6                	or     %esi,%esp
     7cc:	02 00                	add    (%eax),%al
     7ce:	00 00                	add    %al,(%eax)
     7d0:	0e                   	push   %cs
     7d1:	26 00 00             	add    %al,%es:(%eax)
     7d4:	00 47 03             	add    %al,0x3(%edi)
     7d7:	00 00                	add    %al,(%eax)
     7d9:	10 58 00             	adc    %bl,0x0(%eax)
     7dc:	00 00                	add    %al,(%eax)
     7de:	07                   	pop    %es
     7df:	00 02                	add    %al,(%edx)
     7e1:	07                   	pop    %es
     7e2:	08 00                	or     %al,(%eax)
     7e4:	00 03                	add    %al,(%ebx)
     7e6:	ad                   	lods   %ds:(%esi),%eax
     7e7:	1b 00                	sbb    (%eax),%eax
     7e9:	03 00                	add    (%eax),%eax
     7eb:	00 13                	add    %dl,(%ebx)
     7ed:	f6 06 00             	testb  $0x0,(%esi)
     7f0:	00 04 b9             	add    %al,(%ecx,%edi,4)
     7f3:	77 03                	ja     7f8 <mbh-0x2ff808>
     7f5:	00 00                	add    %al,(%eax)
     7f7:	03 c0                	add    %eax,%eax
     7f9:	07                   	pop    %es
     7fa:	00 00                	add    %al,(%eax)
     7fc:	bb 0d 39 00 00       	mov    $0x390d,%ebx
     801:	00 00                	add    %al,(%eax)
     803:	03 ae 06 00 00 bc    	add    -0x43fffffa(%esi),%ebp
     809:	0d 39 00 00 00       	or     $0x39,%eax
     80e:	02 00                	add    (%eax),%al
     810:	02 e9                	add    %cl,%ch
     812:	07                   	pop    %es
     813:	00 00                	add    %al,(%eax)
     815:	03 be 1b 53 03 00    	add    0x3531b(%esi),%edi
     81b:	00 13                	add    %dl,(%ebx)
     81d:	7c 07                	jl     826 <mbh-0x2ff7da>
     81f:	00 00                	add    %al,(%eax)
     821:	06                   	push   %es
     822:	c0 a7 03 00 00 03 c0 	shlb   $0xc0,0x3000003(%edi)
     829:	07                   	pop    %es
     82a:	00 00                	add    %al,(%eax)
     82c:	c2 0d 4c             	ret    $0x4c0d
     82f:	00 00                	add    %al,(%eax)
     831:	00 00                	add    %al,(%eax)
     833:	03 ae 06 00 00 c3    	add    -0x3cfffffa(%esi),%ebp
     839:	0d 39 00 00 00       	or     $0x39,%eax
     83e:	04 00                	add    $0x0,%al
     840:	02 35 06 00 00 03    	add    0x3000006,%dh
     846:	c5 1b                	lds    (%ebx),%ebx
     848:	83 03 00             	addl   $0x0,(%ebx)
     84b:	00 13                	add    %dl,(%ebx)
     84d:	19 06                	sbb    %eax,(%esi)
     84f:	00 00                	add    %al,(%eax)
     851:	0a c7                	or     %bh,%al
     853:	d7                   	xlat   %ds:(%ebx)
     854:	03 00                	add    (%eax),%eax
     856:	00 03                	add    %al,(%ebx)
     858:	c0 07 00             	rolb   $0x0,(%edi)
     85b:	00 c9                	add    %cl,%cl
     85d:	0d 5f 00 00 00       	or     $0x5f,%eax
     862:	00 03                	add    %al,(%ebx)
     864:	ae                   	scas   %es:(%edi),%al
     865:	06                   	push   %es
     866:	00 00                	add    %al,(%eax)
     868:	ca 0d 39             	lret   $0x390d
     86b:	00 00                	add    %al,(%eax)
     86d:	00 08                	add    %cl,(%eax)
     86f:	00 02                	add    %al,(%edx)
     871:	6b 07 00             	imul   $0x0,(%edi),%eax
     874:	00 03                	add    %al,(%ebx)
     876:	cc                   	int3   
     877:	1b b3 03 00 00 12    	sbb    0x12000003(%ebx),%esi
     87d:	9d                   	popf   
     87e:	07                   	pop    %es
     87f:	00 00                	add    %al,(%eax)
     881:	08 d1                	or     %dl,%cl
     883:	61                   	popa   
     884:	04 00                	add    $0x0,%al
     886:	00 09                	add    %cl,(%ecx)
     888:	3e 06                	ds push %es
     88a:	00 00                	add    %al,(%eax)
     88c:	d3 0e                	rorl   %cl,(%esi)
     88e:	ee                   	out    %al,(%dx)
     88f:	00 00                	add    %al,(%eax)
     891:	00 09                	add    %cl,(%ecx)
     893:	e6 05                	out    %al,$0x5
     895:	00 00                	add    %al,(%eax)
     897:	d5 0f                	aad    $0xf
     899:	61                   	popa   
     89a:	04 00                	add    $0x0,%al
     89c:	00 06                	add    %al,(%esi)
     89e:	75 38                	jne    8d8 <mbh-0x2ff728>
     8a0:	00 d6                	add    %dl,%dh
     8a2:	0f 63 04 00          	packsswb (%eax,%eax,1),%mm0
     8a6:	00 06                	add    %al,(%esi)
     8a8:	75 31                	jne    8db <mbh-0x2ff725>
     8aa:	36 00 d7             	ss add %dl,%bh
     8ad:	0f 68 04 00          	punpckhbw (%eax,%eax,1),%mm0
     8b1:	00 06                	add    %al,(%esi)
     8b3:	75 33                	jne    8e8 <mbh-0x2ff718>
     8b5:	32 00                	xor    (%eax),%al
     8b7:	d8 0f                	fmuls  (%edi)
     8b9:	6d                   	insl   (%dx),%es:(%edi)
     8ba:	04 00                	add    $0x0,%al
     8bc:	00 06                	add    %al,(%esi)
     8be:	75 36                	jne    8f6 <mbh-0x2ff70a>
     8c0:	34 00                	xor    $0x0,%al
     8c2:	d9 0f                	(bad)  (%edi)
     8c4:	72 04                	jb     8ca <mbh-0x2ff736>
     8c6:	00 00                	add    %al,(%eax)
     8c8:	06                   	push   %es
     8c9:	73 74                	jae    93f <mbh-0x2ff6c1>
     8cb:	72 00                	jb     8cd <mbh-0x2ff733>
     8cd:	db 0e                	fisttpl (%esi)
     8cf:	be 00 00 00 06       	mov    $0x6000000,%esi
     8d4:	66 31 36             	xor    %si,(%esi)
     8d7:	00 dd                	add    %bl,%ch
     8d9:	0f 77                	emms   
     8db:	04 00                	add    $0x0,%al
     8dd:	00 06                	add    %al,(%esi)
     8df:	66 33 32             	xor    (%edx),%si
     8e2:	00 de                	add    %bl,%dh
     8e4:	0f 7c                	(bad)  
     8e6:	04 00                	add    $0x0,%al
     8e8:	00 06                	add    %al,(%esi)
     8ea:	66 36 34 00          	data16 ss xor $0x0,%al
     8ee:	df 0f                	fisttps (%edi)
     8f0:	81 04 00 00 0b 47 03 	addl   $0x3470b00,(%eax,%eax,1)
     8f7:	00 00                	add    %al,(%eax)
     8f9:	00 1d 04 08 26 00    	add    %bl,0x260804
     8ff:	00 00                	add    %al,(%eax)
     901:	08 39                	or     %bh,(%ecx)
     903:	00 00                	add    %al,(%eax)
     905:	00 08                	add    %cl,(%eax)
     907:	4c                   	dec    %esp
     908:	00 00                	add    %al,(%eax)
     90a:	00 08                	add    %cl,(%eax)
     90c:	5f                   	pop    %edi
     90d:	00 00                	add    %al,(%eax)
     90f:	00 08                	add    %cl,(%eax)
     911:	77 03                	ja     916 <mbh-0x2ff6ea>
     913:	00 00                	add    %al,(%eax)
     915:	08 a7 03 00 00 08    	or     %ah,0x8000003(%edi)
     91b:	d7                   	xlat   %ds:(%ebx)
     91c:	03 00                	add    (%eax),%eax
     91e:	00 02                	add    %al,(%edx)
     920:	01 08                	add    %ecx,(%eax)
     922:	00 00                	add    %al,(%eax)
     924:	03 e3                	add    %ebx,%esp
     926:	1b e3                	sbb    %ebx,%esp
     928:	03 00                	add    (%eax),%eax
     92a:	00 13                	add    %dl,(%ebx)
     92c:	12 06                	adc    (%esi),%al
     92e:	00 00                	add    %al,(%eax)
     930:	0c e8                	or     $0xe8,%al
     932:	b6 04                	mov    $0x4,%dh
     934:	00 00                	add    %al,(%eax)
     936:	03 f1                	add    %ecx,%esi
     938:	06                   	push   %es
     939:	00 00                	add    %al,(%eax)
     93b:	ea 0b 86 04 00 00 00 	ljmp   $0x0,$0x4860b
     942:	1e                   	push   %ds
     943:	73 7a                	jae    9bf <mbh-0x2ff641>
     945:	00 03                	add    %al,(%ebx)
     947:	eb 0b                	jmp    954 <mbh-0x2ff6ac>
     949:	db 00                	fildl  (%eax)
     94b:	00 00                	add    %al,(%eax)
     94d:	08 00                	or     %al,(%eax)
     94f:	02 b6 06 00 00 03    	add    0x3000006(%esi),%dh
     955:	ed                   	in     (%dx),%eax
     956:	1b 92 04 00 00 02    	sbb    0x2000004(%edx),%edx
     95c:	6a 06                	push   $0x6
     95e:	00 00                	add    %al,(%eax)
     960:	04 0a                	add    $0xa,%al
     962:	22 ce                	and    %dh,%cl
     964:	04 00                	add    $0x0,%al
     966:	00 1f                	add    %bl,(%edi)
     968:	04 60                	add    $0x60,%al
     96a:	06                   	push   %es
     96b:	00 00                	add    %al,(%eax)
     96d:	cf                   	iret   
     96e:	00 00                	add    %al,(%eax)
     970:	00 0e                	add    %cl,(%esi)
     972:	cf                   	iret   
     973:	00 00                	add    %al,(%eax)
     975:	00 e9                	add    %ch,%cl
     977:	04 00                	add    $0x0,%al
     979:	00 20                	add    %ah,(%eax)
     97b:	58                   	pop    %eax
     97c:	00 00                	add    %al,(%eax)
     97e:	00 ff                	add    %bh,%bh
     980:	03 00                	add    (%eax),%eax
     982:	04 0b                	add    $0xb,%al
     984:	06                   	push   %es
     985:	00 00                	add    %al,(%eax)
     987:	07                   	pop    %es
     988:	0d d8 04 00 00       	or     $0x4d8,%eax
     98d:	05 03 00 4a 30       	add    $0x304a0003,%eax
     992:	00 0e                	add    %cl,(%esi)
     994:	cf                   	iret   
     995:	00 00                	add    %al,(%eax)
     997:	00 0a                	add    %cl,(%edx)
     999:	05 00 00 10 58       	add    $0x58100000,%eax
     99e:	00 00                	add    %al,(%eax)
     9a0:	00 0f                	add    %cl,(%edi)
     9a2:	00 04 60             	add    %al,(%eax,%eiz,2)
     9a5:	07                   	pop    %es
     9a6:	00 00                	add    %al,(%eax)
     9a8:	81 0d fa 04 00 00 05 	orl    $0x49640305,0x4fa
     9af:	03 64 49 
     9b2:	30 00                	xor    %al,(%eax)
     9b4:	21 78 08             	and    %edi,0x8(%eax)
     9b7:	00 00                	add    %al,(%eax)
     9b9:	05 45 01 09 db       	add    $0xdb090145,%eax
     9be:	00 00                	add    %al,(%eax)
     9c0:	00 37                	add    %dh,(%edi)
     9c2:	05 00 00 18 63       	add    $0x63180000,%eax
     9c7:	04 00                	add    $0x0,%al
     9c9:	00 18                	add    %bl,(%eax)
     9cb:	db 00                	fildl  (%eax)
     9cd:	00 00                	add    %al,(%eax)
     9cf:	00 22                	add    %ah,(%edx)
     9d1:	f0 05 00 00 05 46    	lock add $0x46050000,%eax
     9d7:	01 09                	add    %ecx,(%ecx)
     9d9:	46                   	inc    %esi
     9da:	05 00 00 14 00       	add    $0x140000,%eax
     9df:	11 9d 06 00 00 a2    	adc    %ebx,-0x5dfffffa(%ebp)
     9e5:	db 00                	fildl  (%eax)
     9e7:	00 00                	add    %al,(%eax)
     9e9:	02 35 30 00 02 04    	add    0x4020030,%dh
     9ef:	00 00                	add    %al,(%eax)
     9f1:	01 9c d7 06 00 00 05 	add    %ebx,0x5000006(%edi,%edx,8)
     9f8:	12 06                	adc    (%esi),%al
     9fa:	00 00                	add    %al,(%eax)
     9fc:	a2 1a ca 00 00       	mov    %al,0xca1a
     a01:	00 02                	add    %al,(%edx)
     a03:	91                   	xchg   %eax,%ecx
     a04:	00 01                	add    %al,(%ecx)
     a06:	6c                   	insb   (%dx),%es:(%edi)
     a07:	65 6e                	outsb  %gs:(%esi),(%dx)
     a09:	00 02                	add    %al,(%edx)
     a0b:	a2 29 db 00 00       	mov    %al,0xdb29
     a10:	00 02                	add    %al,(%edx)
     a12:	91                   	xchg   %eax,%ecx
     a13:	04 05                	add    $0x5,%al
     a15:	8c 07                	mov    %es,(%edi)
     a17:	00 00                	add    %al,(%eax)
     a19:	a3 20 d7 06 00       	mov    %eax,0x6d720
     a1e:	00 02                	add    %al,(%edx)
     a20:	91                   	xchg   %eax,%ecx
     a21:	08 05 af 07 00 00    	or     %al,0x7af
     a27:	a3 30 c2 04 00       	mov    %eax,0x4c230
     a2c:	00 02                	add    %al,(%edx)
     a2e:	91                   	xchg   %eax,%ecx
     a2f:	0c 07                	or     $0x7,%al
     a31:	62 75 66             	bound  %esi,0x66(%ebp)
     a34:	00 a5 0d b6 04 00    	add    %ah,0x4b60d(%ebp)
     a3a:	00 03                	add    %al,(%ebx)
     a3c:	91                   	xchg   %eax,%ecx
     a3d:	8c 7f 04             	mov    %?,0x4(%edi)
     a40:	49                   	dec    %ecx
     a41:	03 00                	add    (%eax),%eax
     a43:	00 a6 0d db 00 00    	add    %ah,0xdb0d(%esi)
     a49:	00 02                	add    %al,(%edx)
     a4b:	91                   	xchg   %eax,%ecx
     a4c:	6c                   	insb   (%dx),%es:(%edi)
     a4d:	07                   	pop    %es
     a4e:	63 00                	arpl   %ax,(%eax)
     a50:	a7                   	cmpsl  %es:(%edi),%ds:(%esi)
     a51:	0d cf 00 00 00       	or     $0xcf,%eax
     a56:	02 91 4f 04 59 06    	add    0x659044f(%ecx),%dl
     a5c:	00 00                	add    %al,(%eax)
     a5e:	a8 0d                	test   $0xd,%al
     a60:	15 01 00 00 02       	adc    $0x2000001,%eax
     a65:	91                   	xchg   %eax,%ecx
     a66:	68 07 6c 6e 67       	push   $0x676e6c07
     a6b:	00 a8 15 15 01 00    	add    %ch,0x11515(%eax)
     a71:	00 02                	add    %al,(%edx)
     a73:	91                   	xchg   %eax,%ecx
     a74:	64 0d 93 35 30 00    	fs or  $0x303593,%eax
     a7a:	20 00                	and    %al,(%eax)
     a7c:	00 00                	add    %al,(%eax)
     a7e:	f9                   	stc    
     a7f:	05 00 00 04 bf       	add    $0xbf040000,%eax
     a84:	06                   	push   %es
     a85:	00 00                	add    %al,(%eax)
     a87:	c6                   	(bad)  
     a88:	13 ca                	adc    %edx,%ecx
     a8a:	00 00                	add    %al,(%eax)
     a8c:	00 03                	add    %al,(%ebx)
     a8e:	91                   	xchg   %eax,%ecx
     a8f:	98                   	cwtl   
     a90:	7f 00                	jg     a92 <mbh-0x2ff56e>
     a92:	0d be 35 30 00       	or     $0x3035be,%eax
     a97:	20 00                	and    %al,(%eax)
     a99:	00 00                	add    %al,(%eax)
     a9b:	16                   	push   %ss
     a9c:	06                   	push   %es
     a9d:	00 00                	add    %al,(%eax)
     a9f:	04 bf                	add    $0xbf,%al
     aa1:	06                   	push   %es
     aa2:	00 00                	add    %al,(%eax)
     aa4:	c9                   	leave  
     aa5:	11 a4 00 00 00 03 91 	adc    %esp,-0x6efd0000(%eax,%eax,1)
     aac:	9c                   	pushf  
     aad:	7f 00                	jg     aaf <mbh-0x2ff551>
     aaf:	0d e9 35 30 00       	or     $0x3035e9,%eax
     ab4:	2f                   	das    
     ab5:	00 00                	add    %al,(%eax)
     ab7:	00 33                	add    %dh,(%ebx)
     ab9:	06                   	push   %es
     aba:	00 00                	add    %al,(%eax)
     abc:	04 bf                	add    $0xbf,%al
     abe:	06                   	push   %es
     abf:	00 00                	add    %al,(%eax)
     ac1:	cc                   	int3   
     ac2:	16                   	push   %ss
     ac3:	5f                   	pop    %edi
     ac4:	00 00                	add    %al,(%eax)
     ac6:	00 03                	add    %al,(%ebx)
     ac8:	91                   	xchg   %eax,%ecx
     ac9:	a0 7f 00 0d 23       	mov    0x230d007f,%al
     ace:	36 30 00             	xor    %al,%ss:(%eax)
     ad1:	2e 00 00             	add    %al,%cs:(%eax)
     ad4:	00 50 06             	add    %dl,0x6(%eax)
     ad7:	00 00                	add    %al,(%eax)
     ad9:	04 bf                	add    $0xbf,%al
     adb:	06                   	push   %es
     adc:	00 00                	add    %al,(%eax)
     ade:	cf                   	iret   
     adf:	16                   	push   %ss
     ae0:	5f                   	pop    %edi
     ae1:	00 00                	add    %al,(%eax)
     ae3:	00 03                	add    %al,(%ebx)
     ae5:	91                   	xchg   %eax,%ecx
     ae6:	a8 7f                	test   $0x7f,%al
     ae8:	00 0d 66 36 30 00    	add    %cl,0x303666
     aee:	7b 00                	jnp    af0 <mbh-0x2ff510>
     af0:	00 00                	add    %al,(%eax)
     af2:	6c                   	insb   (%dx),%es:(%edi)
     af3:	06                   	push   %es
     af4:	00 00                	add    %al,(%eax)
     af6:	04 bf                	add    $0xbf,%al
     af8:	06                   	push   %es
     af9:	00 00                	add    %al,(%eax)
     afb:	d4 16                	aam    $0x16
     afd:	ab                   	stos   %eax,%es:(%edi)
     afe:	00 00                	add    %al,(%eax)
     b00:	00 02                	add    %al,(%edx)
     b02:	91                   	xchg   %eax,%ecx
     b03:	58                   	pop    %eax
     b04:	00 23                	add    %ah,(%ebx)
     b06:	0c 00                	or     $0x0,%al
     b08:	00 00                	add    %al,(%eax)
     b0a:	84 06                	test   %al,(%esi)
     b0c:	00 00                	add    %al,(%eax)
     b0e:	04 bf                	add    $0xbf,%al
     b10:	06                   	push   %es
     b11:	00 00                	add    %al,(%eax)
     b13:	e2 16                	loop   b2b <mbh-0x2ff4d5>
     b15:	5f                   	pop    %edi
     b16:	00 00                	add    %al,(%eax)
     b18:	00 02                	add    %al,(%edx)
     b1a:	91                   	xchg   %eax,%ecx
     b1b:	50                   	push   %eax
     b1c:	00 0d ac 37 30 00    	add    %cl,0x3037ac
     b22:	29 00                	sub    %eax,(%eax)
     b24:	00 00                	add    %al,(%eax)
     b26:	a1 06 00 00 04       	mov    0x4000006,%eax
     b2b:	bf 06 00 00 f4       	mov    $0xf4000006,%edi
     b30:	16                   	push   %ss
     b31:	ab                   	stos   %eax,%es:(%edi)
     b32:	00 00                	add    %al,(%eax)
     b34:	00 03                	add    %al,(%ebx)
     b36:	91                   	xchg   %eax,%ecx
     b37:	b0 7f                	mov    $0x7f,%al
     b39:	00 0d e0 37 30 00    	add    %cl,0x3037e0
     b3f:	2e 00 00             	add    %al,%cs:(%eax)
     b42:	00 be 06 00 00 04    	add    %bh,0x4000006(%esi)
     b48:	bf 06 00 00 f7       	mov    $0xf7000006,%edi
     b4d:	16                   	push   %ss
     b4e:	5f                   	pop    %edi
     b4f:	00 00                	add    %al,(%eax)
     b51:	00 03                	add    %al,(%ebx)
     b53:	91                   	xchg   %eax,%ecx
     b54:	b8 7f 00 24 19       	mov    $0x1924007f,%eax
     b59:	38 30                	cmp    %dh,(%eax)
     b5b:	00 46 00             	add    %al,0x0(%esi)
     b5e:	00 00                	add    %al,(%eax)
     b60:	04 bf                	add    $0xbf,%al
     b62:	06                   	push   %es
     b63:	00 00                	add    %al,(%eax)
     b65:	fc                   	cld    
     b66:	16                   	push   %ss
     b67:	5f                   	pop    %edi
     b68:	00 00                	add    %al,(%eax)
     b6a:	00 02                	add    %al,(%edx)
     b6c:	91                   	xchg   %eax,%ecx
     b6d:	40                   	inc    %eax
     b6e:	00 00                	add    %al,(%eax)
     b70:	08 d6                	or     %dl,%dh
     b72:	00 00                	add    %al,(%eax)
     b74:	00 0f                	add    %cl,(%edi)
     b76:	4f                   	dec    %edi
     b77:	07                   	pop    %es
     b78:	00 00                	add    %al,(%eax)
     b7a:	9c                   	pushf  
     b7b:	d3 34 30             	shll   %cl,(%eax,%esi,1)
     b7e:	00 2f                	add    %ch,(%edi)
     b80:	00 00                	add    %al,(%eax)
     b82:	00 01                	add    %al,(%ecx)
     b84:	9c                   	pushf  
     b85:	2b 07                	sub    (%edi),%eax
     b87:	00 00                	add    %al,(%eax)
     b89:	01 62 75             	add    %esp,0x75(%edx)
     b8c:	66 00 02             	data16 add %al,(%edx)
     b8f:	9c                   	pushf  
     b90:	2f                   	das    
     b91:	2b 07                	sub    (%edi),%eax
     b93:	00 00                	add    %al,(%eax)
     b95:	02 91 00 01 6c 65    	add    0x656c0100(%ecx),%dl
     b9b:	6e                   	outsb  %ds:(%esi),(%dx)
     b9c:	00 02                	add    %al,(%edx)
     b9e:	9c                   	pushf  
     b9f:	3b db                	cmp    %ebx,%ebx
     ba1:	00 00                	add    %al,(%eax)
     ba3:	00 02                	add    %al,(%edx)
     ba5:	91                   	xchg   %eax,%ecx
     ba6:	04 05                	add    $0x5,%al
     ba8:	bf 06 00 00 9d       	mov    $0x9d000006,%edi
     bad:	2e 5f                	cs pop %edi
     baf:	00 00                	add    %al,(%eax)
     bb1:	00 02                	add    %al,(%edx)
     bb3:	91                   	xchg   %eax,%ecx
     bb4:	70 05                	jo     bbb <mbh-0x2ff445>
     bb6:	b6 07                	mov    $0x7,%dh
     bb8:	00 00                	add    %al,(%eax)
     bba:	9d                   	popf   
     bbb:	3c db                	cmp    $0xdb,%al
     bbd:	00 00                	add    %al,(%eax)
     bbf:	00 02                	add    %al,(%edx)
     bc1:	91                   	xchg   %eax,%ecx
     bc2:	10 00                	adc    %al,(%eax)
     bc4:	08 b6 04 00 00 11    	or     %dh,0x11000004(%esi)
     bca:	1c 07                	sbb    $0x7,%al
     bcc:	00 00                	add    %al,(%eax)
     bce:	84 db                	test   %bl,%bl
     bd0:	00 00                	add    %al,(%eax)
     bd2:	00 f9                	add    %bh,%cl
     bd4:	33 30                	xor    (%eax),%esi
     bd6:	00 da                	add    %bl,%dl
     bd8:	00 00                	add    %al,(%eax)
     bda:	00 01                	add    %al,(%ecx)
     bdc:	9c                   	pushf  
     bdd:	ac                   	lods   %ds:(%esi),%al
     bde:	07                   	pop    %es
     bdf:	00 00                	add    %al,(%eax)
     be1:	01 62 75             	add    %esp,0x75(%edx)
     be4:	66 00 02             	data16 add %al,(%edx)
     be7:	84 20                	test   %ah,(%eax)
     be9:	2b 07                	sub    (%edi),%eax
     beb:	00 00                	add    %al,(%eax)
     bed:	02 91 00 01 6c 65    	add    0x656c0100(%ecx),%dl
     bf3:	6e                   	outsb  %ds:(%esi),(%dx)
     bf4:	00 02                	add    %al,(%edx)
     bf6:	84 2c db             	test   %ch,(%ebx,%ebx,8)
     bf9:	00 00                	add    %al,(%eax)
     bfb:	00 02                	add    %al,(%edx)
     bfd:	91                   	xchg   %eax,%ecx
     bfe:	04 05                	add    $0x5,%al
     c00:	bf 06 00 00 85       	mov    $0x85000006,%edi
     c05:	1f                   	pop    %ds
     c06:	5f                   	pop    %edi
     c07:	00 00                	add    %al,(%eax)
     c09:	00 02                	add    %al,(%edx)
     c0b:	91                   	xchg   %eax,%ecx
     c0c:	40                   	inc    %eax
     c0d:	05 b6 07 00 00       	add    $0x7b6,%eax
     c12:	85 2d db 00 00 00    	test   %ebp,0xdb
     c18:	02 91 10 07 72 65    	add    0x65720710(%ecx),%dl
     c1e:	70 00                	jo     c20 <mbh-0x2ff3e0>
     c20:	87 0b                	xchg   %ecx,(%ebx)
     c22:	fa                   	cli    
     c23:	04 00                	add    $0x0,%al
     c25:	00 02                	add    %al,(%edx)
     c27:	91                   	xchg   %eax,%ecx
     c28:	50                   	push   %eax
     c29:	07                   	pop    %es
     c2a:	73 7a                	jae    ca6 <mbh-0x2ff35a>
     c2c:	00 88 0b db 00 00    	add    %cl,0xdb0b(%eax)
     c32:	00 02                	add    %al,(%edx)
     c34:	91                   	xchg   %eax,%ecx
     c35:	60                   	pusha  
     c36:	07                   	pop    %es
     c37:	72 73                	jb     cac <mbh-0x2ff354>
     c39:	7a 00                	jp     c3b <mbh-0x2ff3c5>
     c3b:	88 0f                	mov    %cl,(%edi)
     c3d:	db 00                	fildl  (%eax)
     c3f:	00 00                	add    %al,(%eax)
     c41:	02 91 64 00 0f 8b    	add    -0x74f0ff9c(%ecx),%dl
     c47:	06                   	push   %es
     c48:	00 00                	add    %al,(%eax)
     c4a:	6b 18 33             	imul   $0x33,(%eax),%ebx
     c4d:	30 00                	xor    %al,(%eax)
     c4f:	e1 00                	loope  c51 <mbh-0x2ff3af>
     c51:	00 00                	add    %al,(%eax)
     c53:	01 9c 0b 08 00 00 01 	add    %ebx,0x1000008(%ebx,%ecx,1)
     c5a:	62 75 66             	bound  %esi,0x66(%ebp)
     c5d:	00 02                	add    %al,(%edx)
     c5f:	6b 30 2b             	imul   $0x2b,(%eax),%esi
     c62:	07                   	pop    %es
     c63:	00 00                	add    %al,(%eax)
     c65:	02 91 00 01 6c 65    	add    0x656c0100(%ecx),%dl
     c6b:	6e                   	outsb  %ds:(%esi),(%dx)
     c6c:	00 02                	add    %al,(%edx)
     c6e:	6b 3c db 00          	imul   $0x0,(%ebx,%ebx,8),%edi
     c72:	00 00                	add    %al,(%eax)
     c74:	02 91 04 05 bf 06    	add    0x6bf0504(%ecx),%dl
     c7a:	00 00                	add    %al,(%eax)
     c7c:	6b 4a 5f 00          	imul   $0x0,0x5f(%edx),%ecx
     c80:	00 00                	add    %al,(%eax)
     c82:	03 91 a8 7f 07 72    	add    0x72077fa8(%ecx),%edx
     c88:	65 70 00             	gs jo  c8b <mbh-0x2ff375>
     c8b:	6d                   	insl   (%dx),%es:(%edi)
     c8c:	0d 0b 08 00 00       	or     $0x80b,%eax
     c91:	02 91 48 07 64 65    	add    0x65640748(%ecx),%dl
     c97:	63 00                	arpl   %ax,(%eax)
     c99:	6e                   	outsb  %ds:(%esi),(%dx)
     c9a:	0d b6 04 00 00       	or     $0x4b6,%eax
     c9f:	03 91 bc 7f 00 0e    	add    0xe007fbc(%ecx),%edx
     ca5:	cf                   	iret   
     ca6:	00 00                	add    %al,(%eax)
     ca8:	00 1b                	add    %bl,(%ebx)
     caa:	08 00                	or     %al,(%eax)
     cac:	00 10                	add    %dl,(%eax)
     cae:	58                   	pop    %eax
     caf:	00 00                	add    %al,(%eax)
     cb1:	00 17                	add    %dl,(%edi)
     cb3:	00 0f                	add    %cl,(%edi)
     cb5:	c5 06                	lds    (%esi),%eax
     cb7:	00 00                	add    %al,(%eax)
     cb9:	50                   	push   %eax
     cba:	17                   	pop    %ss
     cbb:	32 30                	xor    (%eax),%dh
     cbd:	00 01                	add    %al,(%ecx)
     cbf:	01 00                	add    %eax,(%eax)
     cc1:	00 01                	add    %al,(%ecx)
     cc3:	9c                   	pushf  
     cc4:	7a 08                	jp     cce <mbh-0x2ff332>
     cc6:	00 00                	add    %al,(%eax)
     cc8:	01 62 75             	add    %esp,0x75(%edx)
     ccb:	66 00 02             	data16 add %al,(%edx)
     cce:	50                   	push   %eax
     ccf:	30 2b                	xor    %ch,(%ebx)
     cd1:	07                   	pop    %es
     cd2:	00 00                	add    %al,(%eax)
     cd4:	02 91 00 01 6c 65    	add    0x656c0100(%ecx),%dl
     cda:	6e                   	outsb  %ds:(%esi),(%dx)
     cdb:	00 02                	add    %al,(%edx)
     cdd:	50                   	push   %eax
     cde:	3c db                	cmp    $0xdb,%al
     ce0:	00 00                	add    %al,(%eax)
     ce2:	00 02                	add    %al,(%edx)
     ce4:	91                   	xchg   %eax,%ecx
     ce5:	04 05                	add    $0x5,%al
     ce7:	bf 06 00 00 50       	mov    $0x50000006,%edi
     cec:	4a                   	dec    %edx
     ced:	ab                   	stos   %eax,%es:(%edi)
     cee:	00 00                	add    %al,(%eax)
     cf0:	00 03                	add    %al,(%ebx)
     cf2:	91                   	xchg   %eax,%ecx
     cf3:	a8 7f                	test   $0x7f,%al
     cf5:	07                   	pop    %es
     cf6:	72 65                	jb     d5d <mbh-0x2ff2a3>
     cf8:	70 00                	jo     cfa <mbh-0x2ff306>
     cfa:	52                   	push   %edx
     cfb:	0d 0b 08 00 00       	or     $0x80b,%eax
     d00:	02 91 48 07 64 65    	add    0x65640748(%ecx),%dl
     d06:	63 00                	arpl   %ax,(%eax)
     d08:	53                   	push   %ebx
     d09:	0d b6 04 00 00       	or     $0x4b6,%eax
     d0e:	03 91 bc 7f 00 0f    	add    0xf007fbc(%ecx),%edx
     d14:	c7 07 00 00 44 a8    	movl   $0xa8440000,(%edi)
     d1a:	31 30                	xor    %esi,(%eax)
     d1c:	00 6f 00             	add    %ch,0x0(%edi)
     d1f:	00 00                	add    %al,(%eax)
     d21:	01 9c e2 08 00 00 01 	add    %ebx,0x1000008(%edx,%eiz,8)
     d28:	62 75 66             	bound  %esi,0x66(%ebp)
     d2b:	00 02                	add    %al,(%edx)
     d2d:	44                   	inc    %esp
     d2e:	2f                   	das    
     d2f:	2b 07                	sub    (%edi),%eax
     d31:	00 00                	add    %al,(%eax)
     d33:	02 91 00 01 6c 65    	add    0x656c0100(%ecx),%dl
     d39:	6e                   	outsb  %ds:(%esi),(%dx)
     d3a:	00 02                	add    %al,(%edx)
     d3c:	44                   	inc    %esp
     d3d:	3b db                	cmp    %ebx,%ebx
     d3f:	00 00                	add    %al,(%eax)
     d41:	00 02                	add    %al,(%edx)
     d43:	91                   	xchg   %eax,%ecx
     d44:	04 05                	add    $0x5,%al
     d46:	bf 06 00 00 45       	mov    $0x45000006,%edi
     d4b:	2e 5f                	cs pop %edi
     d4d:	00 00                	add    %al,(%eax)
     d4f:	00 02                	add    %al,(%edx)
     d51:	91                   	xchg   %eax,%ecx
     d52:	60                   	pusha  
     d53:	01 6e 00             	add    %ebp,0x0(%esi)
     d56:	02 45 3e             	add    0x3e(%ebp),%al
     d59:	4c                   	dec    %esp
     d5a:	00 00                	add    %al,(%eax)
     d5c:	00 02                	add    %al,(%edx)
     d5e:	91                   	xchg   %eax,%ecx
     d5f:	10 07                	adc    %al,(%edi)
     d61:	69 00 47 0d 4c 00    	imul   $0x4c0d47,(%eax),%eax
     d67:	00 00                	add    %al,(%eax)
     d69:	02 91 74 07 62 69    	add    0x69620774(%ecx),%dl
     d6f:	74 00                	je     d71 <mbh-0x2ff28f>
     d71:	47                   	inc    %edi
     d72:	10 4c 00 00          	adc    %cl,0x0(%eax,%eax,1)
     d76:	00 02                	add    %al,(%edx)
     d78:	91                   	xchg   %eax,%ecx
     d79:	70 00                	jo     d7b <mbh-0x2ff285>
     d7b:	0f d8 07             	psubusb (%edi),%mm0
     d7e:	00 00                	add    %al,(%eax)
     d80:	3f                   	aas    
     d81:	8d 31                	lea    (%ecx),%esi
     d83:	30 00                	xor    %al,(%eax)
     d85:	1b 00                	sbb    (%eax),%eax
     d87:	00 00                	add    %al,(%eax)
     d89:	01 9c 22 09 00 00 01 	add    %ebx,0x1000009(%edx,%eiz,1)
     d90:	62 75 66             	bound  %esi,0x66(%ebp)
     d93:	00 02                	add    %al,(%edx)
     d95:	3f                   	aas    
     d96:	2f                   	das    
     d97:	2b 07                	sub    (%edi),%eax
     d99:	00 00                	add    %al,(%eax)
     d9b:	02 91 00 01 6c 65    	add    0x656c0100(%ecx),%dl
     da1:	6e                   	outsb  %ds:(%esi),(%dx)
     da2:	00 02                	add    %al,(%edx)
     da4:	3f                   	aas    
     da5:	3b db                	cmp    %ebx,%ebx
     da7:	00 00                	add    %al,(%eax)
     da9:	00 02                	add    %al,(%edx)
     dab:	91                   	xchg   %eax,%ecx
     dac:	04 01                	add    $0x1,%al
     dae:	63 00                	arpl   %ax,(%eax)
     db0:	02 3f                	add    (%edi),%bh
     db2:	44                   	inc    %esp
     db3:	a4                   	movsb  %ds:(%esi),%es:(%edi)
     db4:	00 00                	add    %al,(%eax)
     db6:	00 02                	add    %al,(%edx)
     db8:	91                   	xchg   %eax,%ecx
     db9:	08 00                	or     %al,(%eax)
     dbb:	0f 35                	sysexit 
     dbd:	07                   	pop    %es
     dbe:	00 00                	add    %al,(%eax)
     dc0:	39 5c 31 30          	cmp    %ebx,0x30(%ecx,%esi,1)
     dc4:	00 31                	add    %dh,(%ecx)
     dc6:	00 00                	add    %al,(%eax)
     dc8:	00 01                	add    %al,(%ecx)
     dca:	9c                   	pushf  
     dcb:	62 09                	bound  %ecx,(%ecx)
     dcd:	00 00                	add    %al,(%eax)
     dcf:	01 62 75             	add    %esp,0x75(%edx)
     dd2:	66 00 02             	data16 add %al,(%edx)
     dd5:	39 2f                	cmp    %ebp,(%edi)
     dd7:	2b 07                	sub    (%edi),%eax
     dd9:	00 00                	add    %al,(%eax)
     ddb:	02 91 00 01 6c 65    	add    0x656c0100(%ecx),%dl
     de1:	6e                   	outsb  %ds:(%esi),(%dx)
     de2:	00 02                	add    %al,(%edx)
     de4:	39 3b                	cmp    %edi,(%ebx)
     de6:	db 00                	fildl  (%eax)
     de8:	00 00                	add    %al,(%eax)
     dea:	02 91 04 01 73 00    	add    0x730104(%ecx),%dl
     df0:	02 39                	add    (%ecx),%bh
     df2:	46                   	inc    %esi
     df3:	ca 00 00             	lret   $0x0
     df6:	00 02                	add    %al,(%edx)
     df8:	91                   	xchg   %eax,%ecx
     df9:	08 00                	or     %al,(%eax)
     dfb:	11 93 07 00 00 30    	adc    %edx,0x30000007(%ebx)
     e01:	db 00                	fildl  (%eax)
     e03:	00 00                	add    %al,(%eax)
     e05:	1f                   	pop    %ds
     e06:	31 30                	xor    %esi,(%eax)
     e08:	00 3d 00 00 00 01    	add    %bh,0x1000000
     e0e:	9c                   	pushf  
     e0f:	a5                   	movsl  %ds:(%esi),%es:(%edi)
     e10:	09 00                	or     %eax,(%eax)
     e12:	00 05 8c 07 00 00    	add    %al,0x78c
     e18:	30 1e                	xor    %bl,(%esi)
     e1a:	d7                   	xlat   %ds:(%ebx)
     e1b:	06                   	push   %es
     e1c:	00 00                	add    %al,(%eax)
     e1e:	02 91 00 05 af 07    	add    0x7af0500(%ecx),%dl
     e24:	00 00                	add    %al,(%eax)
     e26:	30 2e                	xor    %ch,(%esi)
     e28:	c2 04 00             	ret    $0x4
     e2b:	00 02                	add    %al,(%edx)
     e2d:	91                   	xchg   %eax,%ecx
     e2e:	04 04                	add    $0x4,%al
     e30:	84 06                	test   %al,(%esi)
     e32:	00 00                	add    %al,(%eax)
     e34:	32 0b                	xor    (%ebx),%cl
     e36:	db 00                	fildl  (%eax)
     e38:	00 00                	add    %al,(%eax)
     e3a:	02 91 6c 00 11 a0    	add    -0x5feeff94(%ecx),%dl
     e40:	06                   	push   %es
     e41:	00 00                	add    %al,(%eax)
     e43:	24 db                	and    $0xdb,%al
     e45:	00 00                	add    %al,(%eax)
     e47:	00 f6                	add    %dh,%dh
     e49:	30 30                	xor    %dh,(%eax)
     e4b:	00 29                	add    %ch,(%ecx)
     e4d:	00 00                	add    %al,(%eax)
     e4f:	00 01                	add    %al,(%ecx)
     e51:	9c                   	pushf  
     e52:	06                   	push   %es
     e53:	0a 00                	or     (%eax),%al
     e55:	00 05 45 06 00 00    	add    %al,0x645
     e5b:	24 17                	and    $0x17,%al
     e5d:	ca 00 00             	lret   $0x0
     e60:	00 02                	add    %al,(%edx)
     e62:	91                   	xchg   %eax,%ecx
     e63:	00 01                	add    %al,(%ecx)
     e65:	6c                   	insb   (%dx),%es:(%edi)
     e66:	65 6e                	outsb  %gs:(%esi),(%dx)
     e68:	00 02                	add    %al,(%edx)
     e6a:	24 24                	and    $0x24,%al
     e6c:	db 00                	fildl  (%eax)
     e6e:	00 00                	add    %al,(%eax)
     e70:	02 91 04 05 8c 07    	add    0x78c0504(%ecx),%dl
     e76:	00 00                	add    %al,(%eax)
     e78:	24 35                	and    $0x35,%al
     e7a:	d7                   	xlat   %ds:(%ebx)
     e7b:	06                   	push   %es
     e7c:	00 00                	add    %al,(%eax)
     e7e:	02 91 08 14 04 af    	add    -0x50fbebf8(%ecx),%dl
     e84:	07                   	pop    %es
     e85:	00 00                	add    %al,(%eax)
     e87:	26 0c c2             	es or  $0xc2,%al
     e8a:	04 00                	add    $0x0,%al
     e8c:	00 02                	add    %al,(%edx)
     e8e:	91                   	xchg   %eax,%ecx
     e8f:	68 04 84 06 00       	push   $0x68404
     e94:	00 27                	add    %ah,(%edi)
     e96:	0c db                	or     $0xdb,%al
     e98:	00 00                	add    %al,(%eax)
     e9a:	00 02                	add    %al,(%edx)
     e9c:	91                   	xchg   %eax,%ecx
     e9d:	6c                   	insb   (%dx),%es:(%edi)
     e9e:	00 11                	add    %dl,(%ecx)
     ea0:	a2 06 00 00 18       	mov    %al,0x18000006
     ea5:	db 00                	fildl  (%eax)
     ea7:	00 00                	add    %al,(%eax)
     ea9:	d0 30                	shlb   (%eax)
     eab:	30 00                	xor    %al,(%eax)
     ead:	26 00 00             	add    %al,%es:(%eax)
     eb0:	00 01                	add    %al,(%ecx)
     eb2:	9c                   	pushf  
     eb3:	4a                   	dec    %edx
     eb4:	0a 00                	or     (%eax),%al
     eb6:	00 05 8c 07 00 00    	add    %al,0x78c
     ebc:	18 1b                	sbb    %bl,(%ebx)
     ebe:	d7                   	xlat   %ds:(%ebx)
     ebf:	06                   	push   %es
     ec0:	00 00                	add    %al,(%eax)
     ec2:	02 91 00 14 04 af    	add    -0x50fbec00(%ecx),%dl
     ec8:	07                   	pop    %es
     ec9:	00 00                	add    %al,(%eax)
     ecb:	1a 0c c2             	sbb    (%edx,%eax,8),%cl
     ece:	04 00                	add    $0x0,%al
     ed0:	00 02                	add    %al,(%edx)
     ed2:	91                   	xchg   %eax,%ecx
     ed3:	68 04 84 06 00       	push   $0x68404
     ed8:	00 1b                	add    %bl,(%ebx)
     eda:	0c db                	or     $0xdb,%al
     edc:	00 00                	add    %al,(%eax)
     ede:	00 02                	add    %al,(%edx)
     ee0:	91                   	xchg   %eax,%ecx
     ee1:	6c                   	insb   (%dx),%es:(%edi)
     ee2:	00 25 e6 00 00 00    	add    %ah,0xe6
     ee8:	02 09                	add    (%ecx),%cl
     eea:	06                   	push   %es
     eeb:	a8 30                	test   $0x30,%al
     eed:	30 00                	xor    %al,(%eax)
     eef:	28 00                	sub    %al,(%eax)
     ef1:	00 00                	add    %al,(%eax)
     ef3:	01 9c 7e 0a 00 00 05 	add    %ebx,0x500000a(%esi,%edi,2)
     efa:	8c 07                	mov    %es,(%edi)
     efc:	00 00                	add    %al,(%eax)
     efe:	09 18                	or     %ebx,(%eax)
     f00:	d7                   	xlat   %ds:(%ebx)
     f01:	06                   	push   %es
     f02:	00 00                	add    %al,(%eax)
     f04:	02 91 00 14 04 af    	add    -0x50fbec00(%ecx),%dl
     f0a:	07                   	pop    %es
     f0b:	00 00                	add    %al,(%eax)
     f0d:	0b 0c c2             	or     (%edx,%eax,8),%ecx
     f10:	04 00                	add    $0x0,%al
     f12:	00 02                	add    %al,(%edx)
     f14:	91                   	xchg   %eax,%ecx
     f15:	6c                   	insb   (%dx),%es:(%edi)
     f16:	00 26                	add    %ah,(%esi)
     f18:	00 07                	add    %al,(%edi)
     f1a:	00 00                	add    %al,(%eax)
     f1c:	01 7c 14 6d          	add    %edi,0x6d(%esp,%edx,1)
     f20:	30 30                	xor    %dh,(%eax)
     f22:	00 3b                	add    %bh,(%ebx)
     f24:	00 00                	add    %al,(%eax)
     f26:	00 01                	add    %al,(%ecx)
     f28:	9c                   	pushf  
     f29:	01 62 75             	add    %esp,0x75(%edx)
     f2c:	66 00 01             	data16 add %al,(%ecx)
     f2f:	7c 28                	jl     f59 <mbh-0x2ff0a7>
     f31:	2b 07                	sub    (%edi),%eax
     f33:	00 00                	add    %al,(%eax)
     f35:	02 91 00 01 6c 65    	add    0x656c0100(%ecx),%dl
     f3b:	6e                   	outsb  %ds:(%esi),(%dx)
     f3c:	00 01                	add    %al,(%ecx)
     f3e:	7c 34                	jl     f74 <mbh-0x2ff08c>
     f40:	db 00                	fildl  (%eax)
     f42:	00 00                	add    %al,(%eax)
     f44:	02 91 04 01 63 00    	add    0x630104(%ecx),%dl
     f4a:	01 7c 3e cf          	add    %edi,-0x31(%esi,%edi,1)
     f4e:	00 00                	add    %al,(%eax)
     f50:	00 02                	add    %al,(%edx)
     f52:	91                   	xchg   %eax,%ecx
     f53:	70 00                	jo     f55 <mbh-0x2ff0ab>
     f55:	00 10                	add    %dl,(%eax)
     f57:	09 00                	or     %eax,(%eax)
     f59:	00 05 00 01 04 f8    	add    %al,0xf8040100
     f5f:	03 00                	add    (%eax),%eax
     f61:	00 18                	add    %bl,(%eax)
     f63:	18 04 00             	sbb    %al,(%eax,%eax,1)
     f66:	00 1d b1 00 00 00    	add    %bl,0xb1
     f6c:	00 00                	add    %al,(%eax)
     f6e:	00 00                	add    %al,(%eax)
     f70:	04 39                	add    $0x39,%al
     f72:	30 00                	xor    %al,(%eax)
     f74:	a5                   	movsl  %ds:(%esi),%es:(%edi)
     f75:	02 00                	add    (%eax),%al
     f77:	00 53 04             	add    %dl,0x4(%ebx)
     f7a:	00 00                	add    %al,(%eax)
     f7c:	01 e4                	add    %esp,%esp
     f7e:	03 00                	add    (%eax),%eax
     f80:	00 02                	add    %al,(%edx)
     f82:	1a 20                	sbb    (%eax),%ah
     f84:	32 00                	xor    (%eax),%al
     f86:	00 00                	add    %al,(%eax)
     f88:	0a 01                	or     (%ecx),%al
     f8a:	08 c9                	or     %cl,%cl
     f8c:	01 00                	add    %eax,(%eax)
     f8e:	00 01                	add    %al,(%ecx)
     f90:	09 01                	or     %eax,(%ecx)
     f92:	00 00                	add    %al,(%eax)
     f94:	02 1b                	add    (%ebx),%bl
     f96:	20 45 00             	and    %al,0x0(%ebp)
     f99:	00 00                	add    %al,(%eax)
     f9b:	0a 02                	or     (%edx),%al
     f9d:	07                   	pop    %es
     f9e:	6b 02 00             	imul   $0x0,(%edx),%eax
     fa1:	00 01                	add    %al,(%ecx)
     fa3:	92                   	xchg   %eax,%edx
     fa4:	00 00                	add    %al,(%eax)
     fa6:	00 02                	add    %al,(%edx)
     fa8:	1c 20                	sbb    $0x20,%al
     faa:	58                   	pop    %eax
     fab:	00 00                	add    %al,(%eax)
     fad:	00 0a                	add    %cl,(%edx)
     faf:	04 07                	add    $0x7,%al
     fb1:	0d 02 00 00 01       	or     $0x1000002,%eax
     fb6:	88 02                	mov    %al,(%edx)
     fb8:	00 00                	add    %al,(%eax)
     fba:	02 1d 20 6b 00 00    	add    0x6b20,%bl
     fc0:	00 0a                	add    %cl,(%edx)
     fc2:	08 07                	or     %al,(%edi)
     fc4:	03 02                	add    (%edx),%eax
     fc6:	00 00                	add    %al,(%eax)
     fc8:	0a 01                	or     (%ecx),%al
     fca:	06                   	push   %es
     fcb:	cb                   	lret   
     fcc:	01 00                	add    %eax,(%eax)
     fce:	00 01                	add    %al,(%ecx)
     fd0:	46                   	inc    %esi
     fd1:	07                   	pop    %es
     fd2:	00 00                	add    %al,(%eax)
     fd4:	02 20                	add    (%eax),%ah
     fd6:	20 85 00 00 00 0a    	and    %al,0xa000000(%ebp)
     fdc:	02 05 9b 00 00 00    	add    0x9b,%al
     fe2:	01 fb                	add    %edi,%ebx
     fe4:	05 00 00 02 21       	add    $0x21020000,%eax
     fe9:	20 98 00 00 00 19    	and    %bl,0x19000000(%eax)
     fef:	04 05                	add    $0x5,%al
     ff1:	69 6e 74 00 01 dc 06 	imul   $0x6dc0100,0x74(%esi),%ebp
     ff8:	00 00                	add    %al,(%eax)
     ffa:	02 22                	add    (%edx),%ah
     ffc:	20 ab 00 00 00 0a    	and    %ch,0xa000000(%ebx)
    1002:	08 05 58 01 00 00    	or     %al,0x158
    1008:	01 04 06             	add    %eax,(%esi,%eax,1)
    100b:	00 00                	add    %al,(%eax)
    100d:	02 24 20             	add    (%eax,%eiz,1),%ah
    1010:	be 00 00 00 0b       	mov    $0xb000000,%esi
    1015:	c3                   	ret    
    1016:	00 00                	add    %al,(%eax)
    1018:	00 0a                	add    %cl,(%edx)
    101a:	01 06                	add    %eax,(%esi)
    101c:	d2 01                	rolb   %cl,(%ecx)
    101e:	00 00                	add    %al,(%eax)
    1020:	01 a5 00 00 00 02    	add    %esp,0x2000000(%ebp)
    1026:	25 20 d6 00 00       	and    $0xd620,%eax
    102b:	00 0a                	add    %cl,(%edx)
    102d:	04 07                	add    $0x7,%al
    102f:	08 02                	or     %al,(%edx)
    1031:	00 00                	add    %al,(%eax)
    1033:	01 a6 07 00 00 02    	add    %esp,0x2000007(%esi)
    1039:	26 20 d6             	es and %dl,%dh
    103c:	00 00                	add    %al,(%eax)
    103e:	00 07                	add    %al,(%edi)
    1040:	02 02                	add    (%edx),%al
    1042:	4c                   	dec    %esp
    1043:	04 0b                	add    $0xb,%al
    1045:	01 00                	add    %eax,(%eax)
    1047:	00 02                	add    %al,(%edx)
    1049:	eb 05                	jmp    1050 <mbh-0x2fefb0>
    104b:	00 00                	add    %al,(%eax)
    104d:	4e                   	dec    %esi
    104e:	0f 26 00             	mov    %eax,%tr0
    1051:	00 00                	add    %al,(%eax)
    1053:	00 02                	add    %al,(%edx)
    1055:	e5 06                	in     $0x6,%eax
    1057:	00 00                	add    %al,(%eax)
    1059:	4f                   	dec    %edi
    105a:	0f 26 00             	mov    %eax,%tr0
    105d:	00 00                	add    %al,(%eax)
    105f:	01 00                	add    %eax,(%eax)
    1061:	0c 23                	or     $0x23,%al
    1063:	06                   	push   %es
    1064:	00 00                	add    %al,(%eax)
    1066:	02 02                	add    (%edx),%al
    1068:	45                   	inc    %ebp
    1069:	3f                   	aas    
    106a:	01 00                	add    %eax,(%eax)
    106c:	00 03                	add    %al,(%ebx)
    106e:	72 61                	jb     10d1 <mbh-0x2fef2f>
    1070:	77 00                	ja     1072 <mbh-0x2fef8e>
    1072:	02 47 0d             	add    0xd(%edi),%al
    1075:	39 00                	cmp    %eax,(%eax)
    1077:	00 00                	add    %al,(%eax)
    1079:	09 30                	or     %esi,(%eax)
    107b:	07                   	pop    %es
    107c:	00 00                	add    %al,(%eax)
    107e:	48                   	dec    %eax
    107f:	0d 79 00 00 00       	or     $0x79,%eax
    1084:	09 a9 06 00 00 49    	or     %ebp,0x49000006(%ecx)
    108a:	0d 3f 01 00 00       	or     $0x13f,%eax
    108f:	04 e9                	add    $0xe9,%al
    1091:	00 00                	add    %al,(%eax)
    1093:	00 00                	add    %al,(%eax)
    1095:	11 26                	adc    %esp,(%esi)
    1097:	00 00                	add    %al,(%eax)
    1099:	00 4f 01             	add    %cl,0x1(%edi)
    109c:	00 00                	add    %al,(%eax)
    109e:	12 58 00             	adc    0x0(%eax),%bl
    10a1:	00 00                	add    %al,(%eax)
    10a3:	01 00                	add    %eax,(%eax)
    10a5:	01 51 06             	add    %edx,0x6(%ecx)
    10a8:	00 00                	add    %al,(%eax)
    10aa:	02 53 1b             	add    0x1b(%ebx),%dl
    10ad:	0b 01                	or     (%ecx),%eax
    10af:	00 00                	add    %al,(%eax)
    10b1:	07                   	pop    %es
    10b2:	04 02                	add    $0x2,%al
    10b4:	5f                   	pop    %edi
    10b5:	04 7d                	add    $0x7d,%al
    10b7:	01 00                	add    %eax,(%eax)
    10b9:	00 02                	add    %al,(%edx)
    10bb:	eb 06                	jmp    10c3 <mbh-0x2fef3d>
    10bd:	00 00                	add    %al,(%eax)
    10bf:	61                   	popa   
    10c0:	0f 4f 01             	cmovg  (%ecx),%eax
    10c3:	00 00                	add    %al,(%eax)
    10c5:	00 02                	add    %al,(%edx)
    10c7:	f2 07                	repnz pop %es
    10c9:	00 00                	add    %al,(%eax)
    10cb:	62 0f                	bound  %ecx,(%edi)
    10cd:	4f                   	dec    %edi
    10ce:	01 00                	add    %eax,(%eax)
    10d0:	00 02                	add    %al,(%edx)
    10d2:	00 07                	add    %al,(%edi)
    10d4:	02 02                	add    (%edx),%al
    10d6:	6b 0a 9f             	imul   $0xffffff9f,(%edx),%ecx
    10d9:	01 00                	add    %eax,(%eax)
    10db:	00 02                	add    %al,(%edx)
    10dd:	eb 05                	jmp    10e4 <mbh-0x2fef1c>
    10df:	00 00                	add    %al,(%eax)
    10e1:	6d                   	insl   (%dx),%es:(%edi)
    10e2:	15 26 00 00 00       	adc    $0x26,%eax
    10e7:	00 02                	add    %al,(%edx)
    10e9:	e5 06                	in     $0x6,%eax
    10eb:	00 00                	add    %al,(%eax)
    10ed:	6e                   	outsb  %ds:(%esi),(%dx)
    10ee:	15 26 00 00 00       	adc    $0x26,%eax
    10f3:	01 00                	add    %eax,(%eax)
    10f5:	13 02                	adc    (%edx),%eax
    10f7:	69 07 b8 01 00 00    	imul   $0x1b8,(%edi),%eax
    10fd:	04 7d                	add    $0x7d,%al
    10ff:	01 00                	add    %eax,(%eax)
    1101:	00 09                	add    %cl,(%ecx)
    1103:	ec                   	in     (%dx),%al
    1104:	06                   	push   %es
    1105:	00 00                	add    %al,(%eax)
    1107:	72 13                	jb     111c <mbh-0x2feee4>
    1109:	39 00                	cmp    %eax,(%eax)
    110b:	00 00                	add    %al,(%eax)
    110d:	00 07                	add    %al,(%edi)
    110f:	04 02                	add    $0x2,%al
    1111:	67 04 d3             	addr16 add $0xd3,%al
    1114:	01 00                	add    %eax,(%eax)
    1116:	00 14 9f             	add    %dl,(%edi,%ebx,4)
    1119:	01 00                	add    %eax,(%eax)
    111b:	00 02                	add    %al,(%edx)
    111d:	f3 07                	repz pop %es
    111f:	00 00                	add    %al,(%eax)
    1121:	76 10                	jbe    1133 <mbh-0x2feecd>
    1123:	39 00                	cmp    %eax,(%eax)
    1125:	00 00                	add    %al,(%eax)
    1127:	02 00                	add    (%eax),%al
    1129:	0c 0a                	or     $0xa,%al
    112b:	07                   	pop    %es
    112c:	00 00                	add    %al,(%eax)
    112e:	04 02                	add    $0x2,%al
    1130:	58                   	pop    %eax
    1131:	0c 02                	or     $0x2,%al
    1133:	00 00                	add    %al,(%eax)
    1135:	03 72 61             	add    0x61(%edx),%esi
    1138:	77 00                	ja     113a <mbh-0x2feec6>
    113a:	02 5a 0d             	add    0xd(%edx),%bl
    113d:	4c                   	dec    %esp
    113e:	00 00                	add    %al,(%eax)
    1140:	00 09                	add    %cl,(%ecx)
    1142:	30 07                	xor    %al,(%edi)
    1144:	00 00                	add    %al,(%eax)
    1146:	5b                   	pop    %ebx
    1147:	0d 8c 00 00 00       	or     $0x8c,%eax
    114c:	09 a9 06 00 00 5c    	or     %ebp,0x5c000006(%ecx)
    1152:	0d 0c 02 00 00       	or     $0x20c,%eax
    1157:	04 5b                	add    $0x5b,%al
    1159:	01 00                	add    %eax,(%eax)
    115b:	00 04 b8             	add    %al,(%eax,%edi,4)
    115e:	01 00                	add    %eax,(%eax)
    1160:	00 00                	add    %al,(%eax)
    1162:	11 26                	adc    %esp,(%esi)
    1164:	00 00                	add    %al,(%eax)
    1166:	00 1c 02             	add    %bl,(%edx,%eax,1)
    1169:	00 00                	add    %al,(%eax)
    116b:	12 58 00             	adc    0x0(%eax),%bl
    116e:	00 00                	add    %al,(%eax)
    1170:	03 00                	add    (%eax),%eax
    1172:	01 74 07 00          	add    %esi,0x0(%edi,%eax,1)
    1176:	00 02                	add    %al,(%edx)
    1178:	7a 1b                	jp     1195 <mbh-0x2fee6b>
    117a:	d3 01                	roll   %cl,(%ecx)
    117c:	00 00                	add    %al,(%eax)
    117e:	07                   	pop    %es
    117f:	08 02                	or     %al,(%edx)
    1181:	86 04 4a             	xchg   %al,(%edx,%ecx,2)
    1184:	02 00                	add    (%eax),%al
    1186:	00 02                	add    %al,(%edx)
    1188:	d7                   	xlat   %ds:(%ebx)
    1189:	06                   	push   %es
    118a:	00 00                	add    %al,(%eax)
    118c:	88 0f                	mov    %cl,(%edi)
    118e:	1c 02                	sbb    $0x2,%al
    1190:	00 00                	add    %al,(%eax)
    1192:	00 02                	add    %al,(%edx)
    1194:	2a 07                	sub    (%edi),%al
    1196:	00 00                	add    %al,(%eax)
    1198:	89 0f                	mov    %ecx,(%edi)
    119a:	1c 02                	sbb    $0x2,%al
    119c:	00 00                	add    %al,(%eax)
    119e:	04 00                	add    $0x0,%al
    11a0:	07                   	pop    %es
    11a1:	02 02                	add    (%edx),%al
    11a3:	96                   	xchg   %eax,%esi
    11a4:	10 6c 02 00          	adc    %ch,0x0(%edx,%eax,1)
    11a8:	00 02                	add    %al,(%edx)
    11aa:	eb 05                	jmp    11b1 <mbh-0x2fee4f>
    11ac:	00 00                	add    %al,(%eax)
    11ae:	98                   	cwtl   
    11af:	1b 26                	sbb    (%esi),%esp
    11b1:	00 00                	add    %al,(%eax)
    11b3:	00 00                	add    %al,(%eax)
    11b5:	02 e5                	add    %ch,%ah
    11b7:	06                   	push   %es
    11b8:	00 00                	add    %al,(%eax)
    11ba:	99                   	cltd   
    11bb:	1b 26                	sbb    (%esi),%esp
    11bd:	00 00                	add    %al,(%eax)
    11bf:	00 01                	add    %al,(%ecx)
    11c1:	00 13                	add    %dl,(%ebx)
    11c3:	02 94 0d 85 02 00 00 	add    0x285(%ebp,%ecx,1),%dl
    11ca:	04 4a                	add    $0x4a,%al
    11cc:	02 00                	add    (%eax),%al
    11ce:	00 09                	add    %cl,(%ecx)
    11d0:	ec                   	in     (%dx),%al
    11d1:	06                   	push   %es
    11d2:	00 00                	add    %al,(%eax)
    11d4:	9d                   	popf   
    11d5:	19 39                	sbb    %edi,(%ecx)
    11d7:	00 00                	add    %al,(%eax)
    11d9:	00 00                	add    %al,(%eax)
    11db:	07                   	pop    %es
    11dc:	04 02                	add    $0x2,%al
    11de:	92                   	xchg   %eax,%edx
    11df:	0a a0 02 00 00 14    	or     0x14000002(%eax),%ah
    11e5:	6c                   	insb   (%dx),%es:(%edi)
    11e6:	02 00                	add    (%eax),%al
    11e8:	00 02                	add    %al,(%edx)
    11ea:	f3 07                	repz pop %es
    11ec:	00 00                	add    %al,(%eax)
    11ee:	a1 16 39 00 00       	mov    0x3916,%eax
    11f3:	00 02                	add    %al,(%edx)
    11f5:	00 13                	add    %dl,(%ebx)
    11f7:	04 90                	add    $0x90,%al
    11f9:	07                   	pop    %es
    11fa:	ba 02 00 00 04       	mov    $0x4000002,%edx
    11ff:	85 02                	test   %eax,(%edx)
    1201:	00 00                	add    %al,(%eax)
    1203:	03 6c 6f 77          	add    0x77(%edi,%ebp,2),%ebp
    1207:	00 02                	add    %al,(%edx)
    1209:	a5                   	movsl  %ds:(%esi),%es:(%edi)
    120a:	14 4c                	adc    $0x4c,%al
    120c:	00 00                	add    %al,(%eax)
    120e:	00 00                	add    %al,(%eax)
    1210:	07                   	pop    %es
    1211:	08 02                	or     %al,(%edx)
    1213:	8e 04 d5 02 00 00 14 	mov    0x14000002(,%edx,8),%es
    121a:	a0 02 00 00 02       	mov    0x2000002,%al
    121f:	2b 07                	sub    (%edi),%eax
    1221:	00 00                	add    %al,(%eax)
    1223:	a9 11 4c 00 00       	test   $0x4c11,%eax
    1228:	00 04 00             	add    %al,(%eax,%eax,1)
    122b:	0c 72                	or     $0x72,%al
    122d:	06                   	push   %es
    122e:	00 00                	add    %al,(%eax)
    1230:	08 02                	or     %al,(%edx)
    1232:	7f 0e                	jg     1242 <mbh-0x2fedbe>
    1234:	03 00                	add    (%eax),%eax
    1236:	00 03                	add    %al,(%ebx)
    1238:	72 61                	jb     129b <mbh-0x2fed65>
    123a:	77 00                	ja     123c <mbh-0x2fedc4>
    123c:	02 81 0d 5f 00 00    	add    0x5f0d(%ecx),%al
    1242:	00 09                	add    %cl,(%ecx)
    1244:	30 07                	xor    %al,(%edi)
    1246:	00 00                	add    %al,(%eax)
    1248:	82 0d 9f 00 00 00 09 	orb    $0x9,0x9f
    124f:	a9 06 00 00 83       	test   $0x83000006,%eax
    1254:	0d 0e 03 00 00       	or     $0x30e,%eax
    1259:	04 28                	add    $0x28,%al
    125b:	02 00                	add    (%eax),%al
    125d:	00 04 ba             	add    %al,(%edx,%edi,4)
    1260:	02 00                	add    (%eax),%al
    1262:	00 00                	add    %al,(%eax)
    1264:	11 26                	adc    %esp,(%esi)
    1266:	00 00                	add    %al,(%eax)
    1268:	00 1e                	add    %bl,(%esi)
    126a:	03 00                	add    (%eax),%eax
    126c:	00 12                	add    %dl,(%edx)
    126e:	58                   	pop    %eax
    126f:	00 00                	add    %al,(%eax)
    1271:	00 07                	add    %al,(%edi)
    1273:	00 01                	add    %al,(%ecx)
    1275:	07                   	pop    %es
    1276:	08 00                	or     %al,(%eax)
    1278:	00 02                	add    %al,(%edx)
    127a:	ad                   	lods   %ds:(%esi),%eax
    127b:	1b d5                	sbb    %ebp,%edx
    127d:	02 00                	add    (%eax),%al
    127f:	00 0f                	add    %cl,(%edi)
    1281:	f6 06 00             	testb  $0x0,(%esi)
    1284:	00 04 b9             	add    %al,(%ecx,%edi,4)
    1287:	4e                   	dec    %esi
    1288:	03 00                	add    (%eax),%eax
    128a:	00 02                	add    %al,(%edx)
    128c:	c0 07 00             	rolb   $0x0,(%edi)
    128f:	00 bb 0d 39 00 00    	add    %bh,0x390d(%ebx)
    1295:	00 00                	add    %al,(%eax)
    1297:	02 ae 06 00 00 bc    	add    -0x43fffffa(%esi),%ch
    129d:	0d 39 00 00 00       	or     $0x39,%eax
    12a2:	02 00                	add    (%eax),%al
    12a4:	01 e9                	add    %ebp,%ecx
    12a6:	07                   	pop    %es
    12a7:	00 00                	add    %al,(%eax)
    12a9:	02 be 1b 2a 03 00    	add    0x32a1b(%esi),%bh
    12af:	00 0f                	add    %cl,(%edi)
    12b1:	7c 07                	jl     12ba <mbh-0x2fed46>
    12b3:	00 00                	add    %al,(%eax)
    12b5:	06                   	push   %es
    12b6:	c0 7e 03 00          	sarb   $0x0,0x3(%esi)
    12ba:	00 02                	add    %al,(%edx)
    12bc:	c0 07 00             	rolb   $0x0,(%edi)
    12bf:	00 c2                	add    %al,%dl
    12c1:	0d 4c 00 00 00       	or     $0x4c,%eax
    12c6:	00 02                	add    %al,(%edx)
    12c8:	ae                   	scas   %es:(%edi),%al
    12c9:	06                   	push   %es
    12ca:	00 00                	add    %al,(%eax)
    12cc:	c3                   	ret    
    12cd:	0d 39 00 00 00       	or     $0x39,%eax
    12d2:	04 00                	add    $0x0,%al
    12d4:	01 35 06 00 00 02    	add    %esi,0x2000006
    12da:	c5 1b                	lds    (%ebx),%ebx
    12dc:	5a                   	pop    %edx
    12dd:	03 00                	add    (%eax),%eax
    12df:	00 0f                	add    %cl,(%edi)
    12e1:	19 06                	sbb    %eax,(%esi)
    12e3:	00 00                	add    %al,(%eax)
    12e5:	0a c7                	or     %bh,%al
    12e7:	ae                   	scas   %es:(%edi),%al
    12e8:	03 00                	add    (%eax),%eax
    12ea:	00 02                	add    %al,(%edx)
    12ec:	c0 07 00             	rolb   $0x0,(%edi)
    12ef:	00 c9                	add    %cl,%cl
    12f1:	0d 5f 00 00 00       	or     $0x5f,%eax
    12f6:	00 02                	add    %al,(%edx)
    12f8:	ae                   	scas   %es:(%edi),%al
    12f9:	06                   	push   %es
    12fa:	00 00                	add    %al,(%eax)
    12fc:	ca 0d 39             	lret   $0x390d
    12ff:	00 00                	add    %al,(%eax)
    1301:	00 08                	add    %cl,(%eax)
    1303:	00 01                	add    %al,(%ecx)
    1305:	6b 07 00             	imul   $0x0,(%edi),%eax
    1308:	00 02                	add    %al,(%edx)
    130a:	cc                   	int3   
    130b:	1b 8a 03 00 00 0c    	sbb    0xc000003(%edx),%ecx
    1311:	9d                   	popf   
    1312:	07                   	pop    %es
    1313:	00 00                	add    %al,(%eax)
    1315:	08 02                	or     %al,(%edx)
    1317:	d1 41 04             	roll   0x4(%ecx)
    131a:	00 00                	add    %al,(%eax)
    131c:	09 3e                	or     %edi,(%esi)
    131e:	06                   	push   %es
    131f:	00 00                	add    %al,(%eax)
    1321:	d3 0e                	rorl   %cl,(%esi)
    1323:	dd 00                	fldl   (%eax)
    1325:	00 00                	add    %al,(%eax)
    1327:	09 e6                	or     %esp,%esi
    1329:	05 00 00 d5 0f       	add    $0xfd50000,%eax
    132e:	41                   	inc    %ecx
    132f:	04 00                	add    $0x0,%al
    1331:	00 03                	add    %al,(%ebx)
    1333:	75 38                	jne    136d <mbh-0x2fec93>
    1335:	00 02                	add    %al,(%edx)
    1337:	d6                   	(bad)  
    1338:	0f 43 04 00          	cmovae (%eax,%eax,1),%eax
    133c:	00 03                	add    %al,(%ebx)
    133e:	75 31                	jne    1371 <mbh-0x2fec8f>
    1340:	36 00 02             	add    %al,%ss:(%edx)
    1343:	d7                   	xlat   %ds:(%ebx)
    1344:	0f 48 04 00          	cmovs  (%eax,%eax,1),%eax
    1348:	00 03                	add    %al,(%ebx)
    134a:	75 33                	jne    137f <mbh-0x2fec81>
    134c:	32 00                	xor    (%eax),%al
    134e:	02 d8                	add    %al,%bl
    1350:	0f 4d 04 00          	cmovge (%eax,%eax,1),%eax
    1354:	00 03                	add    %al,(%ebx)
    1356:	75 36                	jne    138e <mbh-0x2fec72>
    1358:	34 00                	xor    $0x0,%al
    135a:	02 d9                	add    %cl,%bl
    135c:	0f 52 04 00          	rsqrtps (%eax,%eax,1),%xmm0
    1360:	00 03                	add    %al,(%ebx)
    1362:	73 74                	jae    13d8 <mbh-0x2fec28>
    1364:	72 00                	jb     1366 <mbh-0x2fec9a>
    1366:	02 db                	add    %bl,%bl
    1368:	0e                   	push   %cs
    1369:	b2 00                	mov    $0x0,%dl
    136b:	00 00                	add    %al,(%eax)
    136d:	03 66 31             	add    0x31(%esi),%esp
    1370:	36 00 02             	add    %al,%ss:(%edx)
    1373:	dd 0f                	fisttpll (%edi)
    1375:	57                   	push   %edi
    1376:	04 00                	add    $0x0,%al
    1378:	00 03                	add    %al,(%ebx)
    137a:	66 33 32             	xor    (%edx),%si
    137d:	00 02                	add    %al,(%edx)
    137f:	de 0f                	fimuls (%edi)
    1381:	5c                   	pop    %esp
    1382:	04 00                	add    $0x0,%al
    1384:	00 03                	add    %al,(%ebx)
    1386:	66 36 34 00          	data16 ss xor $0x0,%al
    138a:	02 df                	add    %bh,%bl
    138c:	0f 61 04 00          	punpcklwd (%eax,%eax,1),%mm0
    1390:	00 04 1e             	add    %al,(%esi,%ebx,1)
    1393:	03 00                	add    (%eax),%eax
    1395:	00 00                	add    %al,(%eax)
    1397:	1a 04 0b             	sbb    (%ebx,%ecx,1),%al
    139a:	26 00 00             	add    %al,%es:(%eax)
    139d:	00 0b                	add    %cl,(%ebx)
    139f:	39 00                	cmp    %eax,(%eax)
    13a1:	00 00                	add    %al,(%eax)
    13a3:	0b 4c 00 00          	or     0x0(%eax,%eax,1),%ecx
    13a7:	00 0b                	add    %cl,(%ebx)
    13a9:	5f                   	pop    %edi
    13aa:	00 00                	add    %al,(%eax)
    13ac:	00 0b                	add    %cl,(%ebx)
    13ae:	4e                   	dec    %esi
    13af:	03 00                	add    (%eax),%eax
    13b1:	00 0b                	add    %cl,(%ebx)
    13b3:	7e 03                	jle    13b8 <mbh-0x2fec48>
    13b5:	00 00                	add    %al,(%eax)
    13b7:	0b ae 03 00 00 01    	or     0x1000003(%esi),%ebp
    13bd:	01 08                	add    %ecx,(%eax)
    13bf:	00 00                	add    %al,(%eax)
    13c1:	02 e3                	add    %bl,%ah
    13c3:	1b ba 03 00 00 0f    	sbb    0xf000003(%edx),%edi
    13c9:	12 06                	adc    (%esi),%al
    13cb:	00 00                	add    %al,(%eax)
    13cd:	0c e8                	or     $0xe8,%al
    13cf:	96                   	xchg   %eax,%esi
    13d0:	04 00                	add    $0x0,%al
    13d2:	00 02                	add    %al,(%edx)
    13d4:	f1                   	int1   
    13d5:	06                   	push   %es
    13d6:	00 00                	add    %al,(%eax)
    13d8:	ea 0b 66 04 00 00 00 	ljmp   $0x0,$0x4660b
    13df:	1b 73 7a             	sbb    0x7a(%ebx),%esi
    13e2:	00 02                	add    %al,(%edx)
    13e4:	eb 0b                	jmp    13f1 <mbh-0x2fec0f>
    13e6:	ca 00 00             	lret   $0x0
    13e9:	00 08                	add    %cl,(%eax)
    13eb:	00 01                	add    %al,(%ecx)
    13ed:	b6 06                	mov    $0x6,%dh
    13ef:	00 00                	add    %al,(%eax)
    13f1:	02 ed                	add    %ch,%ch
    13f3:	1b 72 04             	sbb    0x4(%edx),%esi
    13f6:	00 00                	add    %al,(%eax)
    13f8:	07                   	pop    %es
    13f9:	01 03                	add    %eax,(%ebx)
    13fb:	2f                   	das    
    13fc:	04 eb                	add    $0xeb,%al
    13fe:	04 00                	add    $0x0,%al
    1400:	00 05 13 09 00 00    	add    %al,0x913
    1406:	31 11                	xor    %edx,(%ecx)
    1408:	26 00 00             	add    %al,%es:(%eax)
    140b:	00 04 00             	add    %al,(%eax,%eax,1)
    140e:	08 63 74             	or     %ah,0x74(%ebx)
    1411:	6c                   	insb   (%dx),%es:(%edi)
    1412:	00 3c 11             	add    %bh,(%ecx,%edx,1)
    1415:	26 00 00             	add    %al,%es:(%eax)
    1418:	00 04 08             	add    %al,(%eax,%ecx,1)
    141b:	73 70                	jae    148d <mbh-0x2feb73>
    141d:	63 00                	arpl   %ax,(%eax)
    141f:	3d 11 26 00 00       	cmp    $0x2611,%eax
    1424:	00 05 05 2d 09 00    	add    %al,0x92d05
    142a:	00 3e                	add    %bh,(%esi)
    142c:	11 26                	adc    %esp,(%esi)
    142e:	00 00                	add    %al,(%eax)
    1430:	00 01                	add    %al,(%ecx)
    1432:	06                   	push   %es
    1433:	05 ce 08 00 00       	add    $0x8ce,%eax
    1438:	3f                   	aas    
    1439:	11 26                	adc    %esp,(%esi)
    143b:	00 00                	add    %al,(%eax)
    143d:	00 01                	add    %al,(%ecx)
    143f:	07                   	pop    %es
    1440:	00 0c af             	add    %cl,(%edi,%ebp,4)
    1443:	08 00                	or     %al,(%eax)
    1445:	00 01                	add    %al,(%ecx)
    1447:	03 2d 09 05 00 00    	add    0x509,%ebp
    144d:	04 a2                	add    $0xa2,%al
    144f:	04 00                	add    $0x0,%al
    1451:	00 03                	add    %al,(%ebx)
    1453:	72 61                	jb     14b6 <mbh-0x2feb4a>
    1455:	77 00                	ja     1457 <mbh-0x2feba9>
    1457:	03 43 0c             	add    0xc(%ebx),%eax
    145a:	26 00 00             	add    %al,%es:(%eax)
    145d:	00 00                	add    %al,(%eax)
    145f:	01 d4                	add    %edx,%esp
    1461:	08 00                	or     %al,(%eax)
    1463:	00 03                	add    %al,(%ebx)
    1465:	45                   	inc    %ebp
    1466:	1b eb                	sbb    %ebx,%ebp
    1468:	04 00                	add    $0x0,%al
    146a:	00 07                	add    %al,(%edi)
    146c:	01 03                	add    %eax,(%ebx)
    146e:	56                   	push   %esi
    146f:	04 83                	add    $0x83,%al
    1471:	05 00 00 05 3f       	add    $0x3f050000,%eax
    1476:	08 00                	or     %al,(%eax)
    1478:	00 58 11             	add    %bl,0x11(%eax)
    147b:	26 00 00             	add    %al,%es:(%eax)
    147e:	00 01                	add    %al,(%ecx)
    1480:	00 05 28 08 00 00    	add    %al,0x828
    1486:	59                   	pop    %ecx
    1487:	11 26                	adc    %esp,(%esi)
    1489:	00 00                	add    %al,(%eax)
    148b:	00 01                	add    %al,(%ecx)
    148d:	01 08                	add    %ecx,(%eax)
    148f:	6c                   	insb   (%dx),%es:(%edi)
    1490:	73 72                	jae    1504 <mbh-0x2feafc>
    1492:	00 5a 11             	add    %bl,0x11(%edx)
    1495:	26 00 00             	add    %al,%es:(%eax)
    1498:	00 02                	add    %al,(%edx)
    149a:	08 6d 73             	or     %ch,0x73(%ebp)
    149d:	72 00                	jb     149f <mbh-0x2feb61>
    149f:	5b                   	pop    %ebx
    14a0:	11 26                	adc    %esp,(%esi)
    14a2:	00 00                	add    %al,(%eax)
    14a4:	00 03                	add    %al,(%ebx)
    14a6:	05 c3 08 00 00       	add    $0x8c3,%eax
    14ab:	5c                   	pop    %esp
    14ac:	11 26                	adc    %esp,(%esi)
    14ae:	00 00                	add    %al,(%eax)
    14b0:	00 01                	add    %al,(%ecx)
    14b2:	04 05                	add    $0x5,%al
    14b4:	2d 08 00 00 5d       	sub    $0x5d000008,%eax
    14b9:	11 26                	adc    %esp,(%esi)
    14bb:	00 00                	add    %al,(%eax)
    14bd:	00 01                	add    %al,(%ecx)
    14bf:	05 08 72 74 73       	add    $0x73747208,%eax
    14c4:	00 5e 11             	add    %bl,0x11(%esi)
    14c7:	26 00 00             	add    %al,%es:(%eax)
    14ca:	00 06                	add    %al,(%esi)
    14cc:	08 63 74             	or     %ah,0x74(%ebx)
    14cf:	73 00                	jae    14d1 <mbh-0x2feb2f>
    14d1:	5f                   	pop    %edi
    14d2:	11 26                	adc    %esp,(%esi)
    14d4:	00 00                	add    %al,(%eax)
    14d6:	00 07                	add    %al,(%edi)
    14d8:	00 0c 4f             	add    %cl,(%edi,%ecx,2)
    14db:	08 00                	or     %al,(%eax)
    14dd:	00 01                	add    %al,(%ecx)
    14df:	03 54 a1 05          	add    0x5(%ecx,%eiz,4),%edx
    14e3:	00 00                	add    %al,(%eax)
    14e5:	04 15                	add    $0x15,%al
    14e7:	05 00 00 03 72       	add    $0x72030000,%eax
    14ec:	61                   	popa   
    14ed:	77 00                	ja     14ef <mbh-0x2feb11>
    14ef:	03 63 0c             	add    0xc(%ebx),%esp
    14f2:	26 00 00             	add    %al,%es:(%eax)
    14f5:	00 00                	add    %al,(%eax)
    14f7:	01 1c 09             	add    %ebx,(%ecx,%ecx,1)
    14fa:	00 00                	add    %al,(%eax)
    14fc:	03 65 1b             	add    0x1b(%ebp),%esp
    14ff:	83 05 00 00 07 01 03 	addl   $0x3,0x1070000
    1506:	a8 04                	test   $0x4,%al
    1508:	00 06                	add    %al,(%esi)
    150a:	00 00                	add    %al,(%eax)
    150c:	05 e5 08 00 00       	add    $0x8e5,%eax
    1511:	aa                   	stos   %al,%es:(%edi)
    1512:	11 26                	adc    %esp,(%esi)
    1514:	00 00                	add    %al,(%eax)
    1516:	00 01                	add    %al,(%ecx)
    1518:	00 08                	add    %cl,(%eax)
    151a:	72 78                	jb     1594 <mbh-0x2fea6c>
    151c:	00 ab 11 26 00 00    	add    %ch,0x2611(%ebx)
    1522:	00 01                	add    %al,(%ecx)
    1524:	08 74 78 00          	or     %dh,0x0(%eax,%edi,2)
    1528:	ac                   	lods   %ds:(%esi),%al
    1529:	11 26                	adc    %esp,(%esi)
    152b:	00 00                	add    %al,(%eax)
    152d:	00 02                	add    %al,(%edx)
    152f:	08 64 6d 61          	or     %ah,0x61(%ebp,%ebp,2)
    1533:	00 ad 11 26 00 00    	add    %ch,0x2611(%ebp)
    1539:	00 03                	add    %al,(%ebx)
    153b:	05 48 09 00 00       	add    $0x948,%eax
    1540:	ae                   	scas   %es:(%edi),%al
    1541:	11 26                	adc    %esp,(%esi)
    1543:	00 00                	add    %al,(%eax)
    1545:	00 02                	add    %al,(%edx)
    1547:	04 05                	add    $0x5,%al
    1549:	44                   	inc    %esp
    154a:	08 00                	or     %al,(%eax)
    154c:	00 af 11 26 00 00    	add    %ch,0x2611(%edi)
    1552:	00 02                	add    %al,(%edx)
    1554:	06                   	push   %es
    1555:	00 0c 83             	add    %cl,(%ebx,%eax,4)
    1558:	08 00                	or     %al,(%eax)
    155a:	00 01                	add    %al,(%ecx)
    155c:	03 a6 1e 06 00 00    	add    0x61e(%esi),%esp
    1562:	04 ad                	add    $0xad,%al
    1564:	05 00 00 03 72       	add    $0x72030000,%eax
    1569:	61                   	popa   
    156a:	77 00                	ja     156c <mbh-0x2fea94>
    156c:	03 b3 0c 26 00 00    	add    0x260c(%ebx),%esi
    1572:	00 00                	add    %al,(%eax)
    1574:	01 97 08 00 00 03    	add    %edx,0x3000008(%edi)
    157a:	b5 1b                	mov    $0x1b,%ch
    157c:	00 06                	add    %al,(%esi)
    157e:	00 00                	add    %al,(%eax)
    1580:	07                   	pop    %es
    1581:	01 03                	add    %eax,(%ebx)
    1583:	bd 04 73 06 00       	mov    $0x67304,%ebp
    1588:	00 05 3f 09 00 00    	add    %al,0x93f
    158e:	bf 10 26 00 00       	mov    $0x2610,%edi
    1593:	00 02                	add    %al,(%edx)
    1595:	00 05 c9 08 00 00    	add    %al,0x8c9
    159b:	c0 10 26             	rclb   $0x26,(%eax)
    159e:	00 00                	add    %al,(%eax)
    15a0:	00 01                	add    %al,(%ecx)
    15a2:	02 05 a8 08 00 00    	add    0x8a8,%al
    15a8:	c1 10 26             	rcll   $0x26,(%eax)
    15ab:	00 00                	add    %al,(%eax)
    15ad:	00 03                	add    %al,(%ebx)
    15af:	03 08                	add    (%eax),%ecx
    15b1:	62 72 6b             	bound  %esi,0x6b(%edx)
    15b4:	00 c6                	add    %al,%dh
    15b6:	10 26                	adc    %ah,(%esi)
    15b8:	00 00                	add    %al,(%eax)
    15ba:	00 06                	add    %al,(%esi)
    15bc:	08 64 6c 61          	or     %ah,0x61(%esp,%ebp,2)
    15c0:	00 c7                	add    %al,%bh
    15c2:	10 26                	adc    %ah,(%esi)
    15c4:	00 00                	add    %al,(%eax)
    15c6:	00 07                	add    %al,(%edi)
    15c8:	00 0c 14             	add    %cl,(%esp,%edx,1)
    15cb:	08 00                	or     %al,(%eax)
    15cd:	00 01                	add    %al,(%ecx)
    15cf:	03 bb 91 06 00 00    	add    0x691(%ebx),%edi
    15d5:	04 2a                	add    $0x2a,%al
    15d7:	06                   	push   %es
    15d8:	00 00                	add    %al,(%eax)
    15da:	03 72 61             	add    0x61(%edx),%esi
    15dd:	77 00                	ja     15df <mbh-0x2fea21>
    15df:	03 cb                	add    %ebx,%ecx
    15e1:	0c 26                	or     $0x26,%al
    15e3:	00 00                	add    %al,(%eax)
    15e5:	00 00                	add    %al,(%eax)
    15e7:	01 02                	add    %eax,(%edx)
    15e9:	09 00                	or     %eax,(%eax)
    15eb:	00 03                	add    %al,(%ebx)
    15ed:	cd 1b                	int    $0x1b
    15ef:	73 06                	jae    15f7 <mbh-0x2fea09>
    15f1:	00 00                	add    %al,(%eax)
    15f3:	1c f0                	sbb    $0xf0,%al
    15f5:	05 00 00 01 72       	add    $0x72010000,%eax
    15fa:	06                   	push   %es
    15fb:	68 3b 30 00 41       	push   $0x4100303b
    1600:	00 00                	add    %al,(%eax)
    1602:	00 01                	add    %al,(%ecx)
    1604:	9c                   	pushf  
    1605:	d8 06                	fadds  (%esi)
    1607:	00 00                	add    %al,(%eax)
    1609:	06                   	push   %es
    160a:	73 00                	jae    160c <mbh-0x2fe9f4>
    160c:	74 0b                	je     1619 <mbh-0x2fe9e7>
    160e:	ca 00 00             	lret   $0x0
    1611:	00 02                	add    %al,(%edx)
    1613:	91                   	xchg   %eax,%ecx
    1614:	74 10                	je     1626 <mbh-0x2fe9da>
    1616:	77 3b                	ja     1653 <mbh-0x2fe9ad>
    1618:	30 00                	xor    %al,(%eax)
    161a:	0f 00 00             	sldt   (%eax)
    161d:	00 06                	add    %al,(%esi)
    161f:	5f                   	pop    %edi
    1620:	64 5f                	fs pop %edi
    1622:	00 77 0a             	add    %dh,0xa(%edi)
    1625:	26 00 00             	add    %al,%es:(%eax)
    1628:	00 02                	add    %al,(%edx)
    162a:	91                   	xchg   %eax,%ecx
    162b:	73 00                	jae    162d <mbh-0x2fe9d3>
    162d:	00 16                	add    %dl,(%esi)
    162f:	78 08                	js     1639 <mbh-0x2fe9c7>
    1631:	00 00                	add    %al,(%eax)
    1633:	67 ca 00 00          	addr16 lret $0x0
    1637:	00 3c 3b             	add    %bh,(%ebx,%edi,1)
    163a:	30 00                	xor    %al,(%eax)
    163c:	2c 00                	sub    $0x0,%al
    163e:	00 00                	add    %al,(%eax)
    1640:	01 9c 19 07 00 00 0d 	add    %ebx,0xd000007(%ecx,%ebx,1)
    1647:	f1                   	int1   
    1648:	06                   	push   %es
    1649:	00 00                	add    %al,(%eax)
    164b:	67 1c 43             	addr16 sbb $0x43,%al
    164e:	04 00                	add    $0x0,%al
    1650:	00 02                	add    %al,(%edx)
    1652:	91                   	xchg   %eax,%ecx
    1653:	00 0e                	add    %cl,(%esi)
    1655:	6e                   	outsb  %ds:(%esi),(%dx)
    1656:	00 67 29             	add    %ah,0x29(%edi)
    1659:	ca 00 00             	lret   $0x0
    165c:	00 02                	add    %al,(%edx)
    165e:	91                   	xchg   %eax,%ecx
    165f:	04 06                	add    $0x6,%al
    1661:	62 75 66             	bound  %esi,0x66(%ebp)
    1664:	00 69 0d             	add    %ch,0xd(%ecx)
    1667:	96                   	xchg   %eax,%esi
    1668:	04 00                	add    $0x0,%al
    166a:	00 02                	add    %al,(%edx)
    166c:	91                   	xchg   %eax,%ecx
    166d:	6c                   	insb   (%dx),%es:(%edi)
    166e:	00 16                	add    %dl,(%esi)
    1670:	35 09 00 00 5c       	xor    $0x5c000009,%eax
    1675:	ca 00 00             	lret   $0x0
    1678:	00 10                	add    %dl,(%eax)
    167a:	3b 30                	cmp    (%eax),%esi
    167c:	00 2c 00             	add    %ch,(%eax,%eax,1)
    167f:	00 00                	add    %al,(%eax)
    1681:	01 9c 5a 07 00 00 0d 	add    %ebx,0xd000007(%edx,%ebx,2)
    1688:	f1                   	int1   
    1689:	06                   	push   %es
    168a:	00 00                	add    %al,(%eax)
    168c:	5c                   	pop    %esp
    168d:	1b 43 04             	sbb    0x4(%ebx),%eax
    1690:	00 00                	add    %al,(%eax)
    1692:	02 91 00 0e 6e 00    	add    0x6e0e00(%ecx),%dl
    1698:	5c                   	pop    %esp
    1699:	28 ca                	sub    %cl,%dl
    169b:	00 00                	add    %al,(%eax)
    169d:	00 02                	add    %al,(%edx)
    169f:	91                   	xchg   %eax,%ecx
    16a0:	04 06                	add    $0x6,%al
    16a2:	62 75 66             	bound  %esi,0x66(%ebp)
    16a5:	00 5e 0d             	add    %bl,0xd(%esi)
    16a8:	96                   	xchg   %eax,%esi
    16a9:	04 00                	add    $0x0,%al
    16ab:	00 02                	add    %al,(%edx)
    16ad:	91                   	xchg   %eax,%ecx
    16ae:	6c                   	insb   (%dx),%es:(%edi)
    16af:	00 15 76 08 00 00    	add    %dl,0x876
    16b5:	50                   	push   %eax
    16b6:	14 b3                	adc    $0xb3,%al
    16b8:	3a 30                	cmp    (%eax),%dh
    16ba:	00 5d 00             	add    %bl,0x0(%ebp)
    16bd:	00 00                	add    %al,(%eax)
    16bf:	01 9c b2 07 00 00 0d 	add    %ebx,0xd000007(%edx,%esi,4)
    16c6:	fd                   	std    
    16c7:	08 00                	or     %al,(%eax)
    16c9:	00 50 2a             	add    %dl,0x2a(%eax)
    16cc:	39 00                	cmp    %eax,(%eax)
    16ce:	00 00                	add    %al,(%eax)
    16d0:	02 91 64 0e 62 75    	add    0x75620e64(%ecx),%dl
    16d6:	66 00 50 3a          	data16 add %dl,0x3a(%eax)
    16da:	b2 07                	mov    $0x7,%dl
    16dc:	00 00                	add    %al,(%eax)
    16de:	02 91 04 0e 6d 61    	add    0x616d0e04(%ecx),%dl
    16e4:	78 00                	js     16e6 <mbh-0x2fe91a>
    16e6:	50                   	push   %eax
    16e7:	46                   	inc    %esi
    16e8:	ca 00 00             	lret   $0x0
    16eb:	00 02                	add    %al,(%edx)
    16ed:	91                   	xchg   %eax,%ecx
    16ee:	08 10                	or     %dl,(%eax)
    16f0:	c2 3a 30             	ret    $0x303a
    16f3:	00 11                	add    %dl,(%ecx)
    16f5:	00 00                	add    %al,(%eax)
    16f7:	00 06                	add    %al,(%esi)
    16f9:	5f                   	pop    %edi
    16fa:	64 5f                	fs pop %edi
    16fc:	00 54 0a 26          	add    %dl,0x26(%edx,%ecx,1)
    1700:	00 00                	add    %al,(%eax)
    1702:	00 02                	add    %al,(%edx)
    1704:	91                   	xchg   %eax,%ecx
    1705:	77 00                	ja     1707 <mbh-0x2fe8f9>
    1707:	00 0b                	add    %cl,(%ebx)
    1709:	96                   	xchg   %eax,%esi
    170a:	04 00                	add    $0x0,%al
    170c:	00 15 33 09 00 00    	add    %dl,0x933
    1712:	47                   	inc    %edi
    1713:	14 4f                	adc    $0x4f,%al
    1715:	3a 30                	cmp    (%eax),%dh
    1717:	00 64 00 00          	add    %ah,0x0(%eax,%eax,1)
    171b:	00 01                	add    %al,(%ecx)
    171d:	9c                   	pushf  
    171e:	2b 08                	sub    (%eax),%ecx
    1720:	00 00                	add    %al,(%eax)
    1722:	0d fd 08 00 00       	or     $0x8fd,%eax
    1727:	47                   	inc    %edi
    1728:	29 39                	sub    %edi,(%ecx)
    172a:	00 00                	add    %al,(%eax)
    172c:	00 02                	add    %al,(%edx)
    172e:	91                   	xchg   %eax,%ecx
    172f:	64 0e                	fs push %cs
    1731:	62 75 66             	bound  %esi,0x66(%ebp)
    1734:	00 47 39             	add    %al,0x39(%edi)
    1737:	b2 07                	mov    $0x7,%dl
    1739:	00 00                	add    %al,(%eax)
    173b:	02 91 04 0e 6d 61    	add    0x616d0e04(%ecx),%dl
    1741:	78 00                	js     1743 <mbh-0x2fe8bd>
    1743:	47                   	inc    %edi
    1744:	45                   	inc    %ebp
    1745:	ca 00 00             	lret   $0x0
    1748:	00 02                	add    %al,(%edx)
    174a:	91                   	xchg   %eax,%ecx
    174b:	08 17                	or     %dl,(%edi)
    174d:	5e                   	pop    %esi
    174e:	3a 30                	cmp    (%eax),%dh
    1750:	00 0e                	add    %cl,(%esi)
    1752:	00 00                	add    %al,(%eax)
    1754:	00 12                	add    %dl,(%edx)
    1756:	08 00                	or     %al,(%eax)
    1758:	00 06                	add    %al,(%esi)
    175a:	5f                   	pop    %edi
    175b:	64 5f                	fs pop %edi
    175d:	00 4b 1f             	add    %cl,0x1f(%ebx)
    1760:	26 00 00             	add    %al,%es:(%eax)
    1763:	00 02                	add    %al,(%edx)
    1765:	91                   	xchg   %eax,%ecx
    1766:	76 00                	jbe    1768 <mbh-0x2fe898>
    1768:	10 8a 3a 30 00 11    	adc    %cl,0x1100303a(%edx)
    176e:	00 00                	add    %al,(%eax)
    1770:	00 06                	add    %al,(%esi)
    1772:	5f                   	pop    %edi
    1773:	64 5f                	fs pop %edi
    1775:	00 49 0a             	add    %cl,0xa(%ecx)
    1778:	26 00 00             	add    %al,%es:(%eax)
    177b:	00 02                	add    %al,(%edx)
    177d:	91                   	xchg   %eax,%ecx
    177e:	77 00                	ja     1780 <mbh-0x2fe880>
    1780:	00 1d 36 00 00 00    	add    %bl,0x36
    1786:	01 41 06             	add    %eax,0x6(%ecx)
    1789:	2f                   	das    
    178a:	3a 30                	cmp    (%eax),%dh
    178c:	00 20                	add    %ah,(%eax)
    178e:	00 00                	add    %al,(%eax)
    1790:	00 01                	add    %al,(%ecx)
    1792:	9c                   	pushf  
    1793:	1e                   	push   %ds
    1794:	63 08                	arpl   %cx,(%eax)
    1796:	00 00                	add    %al,(%eax)
    1798:	01 20                	add    %esp,(%eax)
    179a:	0d c4 39 30 00       	or     $0x3039c4,%eax
    179f:	6b 00 00             	imul   $0x0,(%eax),%eax
    17a2:	00 01                	add    %al,(%ecx)
    17a4:	9c                   	pushf  
    17a5:	7e 08                	jle    17af <mbh-0x2fe851>
    17a7:	00 00                	add    %al,(%eax)
    17a9:	0d fd 08 00 00       	or     $0x8fd,%eax
    17ae:	20 29                	and    %ch,(%ecx)
    17b0:	39 00                	cmp    %eax,(%eax)
    17b2:	00 00                	add    %al,(%eax)
    17b4:	02 91 64 06 69 65    	add    0x65690664(%ecx),%dl
    17ba:	72 00                	jb     17bc <mbh-0x2fe844>
    17bc:	22 16                	and    (%esi),%dl
    17be:	a1 05 00 00 02       	mov    0x2000005,%eax
    17c3:	91                   	xchg   %eax,%ecx
    17c4:	77 06                	ja     17cc <mbh-0x2fe834>
    17c6:	6c                   	insb   (%dx),%es:(%edi)
    17c7:	63 72 00             	arpl   %si,0x0(%edx)
    17ca:	23 16                	and    (%esi),%edx
    17cc:	91                   	xchg   %eax,%ecx
    17cd:	06                   	push   %es
    17ce:	00 00                	add    %al,(%eax)
    17d0:	02 91 76 00 15 ec    	add    -0x13eaff8a(%ecx),%dl
    17d6:	08 00                	or     %al,(%eax)
    17d8:	00 0a                	add    %cl,(%edx)
    17da:	0d 3c 39 30 00       	or     $0x30393c,%eax
    17df:	88 00                	mov    %al,(%eax)
    17e1:	00 00                	add    %al,(%eax)
    17e3:	01 9c be 08 00 00 0d 	add    %ebx,0xd000008(%esi,%edi,4)
    17ea:	fd                   	std    
    17eb:	08 00                	or     %al,(%eax)
    17ed:	00 0a                	add    %cl,(%edx)
    17ef:	27                   	daa    
    17f0:	39 00                	cmp    %eax,(%eax)
    17f2:	00 00                	add    %al,(%eax)
    17f4:	02 91 64 06 66 63    	add    0x63660664(%ecx),%dl
    17fa:	72 00                	jb     17fc <mbh-0x2fe804>
    17fc:	0c 16                	or     $0x16,%al
    17fe:	1e                   	push   %ds
    17ff:	06                   	push   %es
    1800:	00 00                	add    %al,(%eax)
    1802:	02 91 77 06 65 66    	add    0x66650677(%ecx),%dl
    1808:	72 00                	jb     180a <mbh-0x2fe7f6>
    180a:	0d 16 09 05 00       	or     $0x50916,%eax
    180f:	00 02                	add    %al,(%edx)
    1811:	91                   	xchg   %eax,%ecx
    1812:	76 00                	jbe    1814 <mbh-0x2fe7ec>
    1814:	1f                   	pop    %ds
    1815:	32 08                	xor    (%eax),%cl
    1817:	00 00                	add    %al,(%eax)
    1819:	01 04 0d 04 39 30 00 	add    %eax,0x303904(,%ecx,1)
    1820:	38 00                	cmp    %al,(%eax)
    1822:	00 00                	add    %al,(%eax)
    1824:	01 9c 0d fd 08 00 00 	add    %ebx,0x8fd(%ebp,%ecx,1)
    182b:	04 28                	add    $0x28,%al
    182d:	39 00                	cmp    %eax,(%eax)
    182f:	00 00                	add    %al,(%eax)
    1831:	02 91 64 17 13 39    	add    0x39131764(%ecx),%dl
    1837:	30 00                	xor    %al,(%eax)
    1839:	0a 00                	or     (%eax),%al
    183b:	00 00                	add    %al,(%eax)
    183d:	fa                   	cli    
    183e:	08 00                	or     %al,(%eax)
    1840:	00 06                	add    %al,(%esi)
    1842:	5f                   	pop    %edi
    1843:	64 5f                	fs pop %edi
    1845:	00 07                	add    %al,(%edi)
    1847:	07                   	pop    %es
    1848:	26 00 00             	add    %al,%es:(%eax)
    184b:	00 02                	add    %al,(%edx)
    184d:	91                   	xchg   %eax,%ecx
    184e:	76 00                	jbe    1850 <mbh-0x2fe7b0>
    1850:	10 1d 39 30 00 11    	adc    %bl,0x11003039
    1856:	00 00                	add    %al,(%eax)
    1858:	00 06                	add    %al,(%esi)
    185a:	5f                   	pop    %edi
    185b:	64 5f                	fs pop %edi
    185d:	00 06                	add    %al,(%esi)
    185f:	0a 26                	or     (%esi),%ah
    1861:	00 00                	add    %al,(%eax)
    1863:	00 02                	add    %al,(%edx)
    1865:	91                   	xchg   %eax,%ecx
    1866:	77 00                	ja     1868 <mbh-0x2fe798>
    1868:	00 00                	add    %al,(%eax)
    186a:	bc 02 00 00 05       	mov    $0x5000002,%esp
    186f:	00 01                	add    %al,(%ecx)
    1871:	04 f7                	add    $0xf7,%al
    1873:	05 00 00 0b 18       	add    $0x180b0000,%eax
    1878:	04 00                	add    $0x0,%al
    187a:	00 1d c7 00 00 00    	add    %bl,0xc7
    1880:	00 00                	add    %al,(%eax)
    1882:	00 00                	add    %al,(%eax)
    1884:	a9 3b 30 00 88       	test   $0x8800303b,%eax
    1889:	00 00                	add    %al,(%eax)
    188b:	00 87 05 00 00 03    	add    %al,0x3000005(%edi)
    1891:	e4 03                	in     $0x3,%al
    1893:	00 00                	add    %al,(%eax)
    1895:	03 1a                	add    (%edx),%ebx
    1897:	20 32                	and    %dh,(%edx)
    1899:	00 00                	add    %al,(%eax)
    189b:	00 02                	add    %al,(%edx)
    189d:	01 08                	add    %ecx,(%eax)
    189f:	c9                   	leave  
    18a0:	01 00                	add    %eax,(%eax)
    18a2:	00 02                	add    %al,(%edx)
    18a4:	02 07                	add    (%edi),%al
    18a6:	6b 02 00             	imul   $0x0,(%edx),%eax
    18a9:	00 02                	add    %al,(%edx)
    18ab:	04 07                	add    $0x7,%al
    18ad:	0d 02 00 00 02       	or     $0x2000002,%eax
    18b2:	08 07                	or     %al,(%edi)
    18b4:	03 02                	add    (%edx),%eax
    18b6:	00 00                	add    %al,(%eax)
    18b8:	02 01                	add    (%ecx),%al
    18ba:	06                   	push   %es
    18bb:	cb                   	lret   
    18bc:	01 00                	add    %eax,(%eax)
    18be:	00 02                	add    %al,(%edx)
    18c0:	02 05 9b 00 00 00    	add    0x9b,%al
    18c6:	0c 04                	or     $0x4,%al
    18c8:	05 69 6e 74 00       	add    $0x746e69,%eax
    18cd:	02 08                	add    (%eax),%cl
    18cf:	05 58 01 00 00       	add    $0x158,%eax
    18d4:	02 01                	add    (%ecx),%al
    18d6:	06                   	push   %es
    18d7:	d2 01                	rolb   %cl,(%ecx)
    18d9:	00 00                	add    %al,(%eax)
    18db:	02 04 07             	add    (%edi,%eax,1),%al
    18de:	08 02                	or     %al,(%edx)
    18e0:	00 00                	add    %al,(%eax)
    18e2:	04 46                	add    $0x46,%al
    18e4:	cc                   	int3   
    18e5:	00 00                	add    %al,(%eax)
    18e7:	00 01                	add    %al,(%ecx)
    18e9:	d1 09                	rorl   (%ecx)
    18eb:	00 00                	add    %al,(%eax)
    18ed:	48                   	dec    %eax
    18ee:	11 26                	adc    %esp,(%esi)
    18f0:	00 00                	add    %al,(%eax)
    18f2:	00 01                	add    %al,(%ecx)
    18f4:	00 01                	add    %al,(%ecx)
    18f6:	bb 09 00 00 49       	mov    $0x49000009,%ebx
    18fb:	11 26                	adc    %esp,(%esi)
    18fd:	00 00                	add    %al,(%eax)
    18ff:	00 01                	add    %al,(%ecx)
    1901:	01 01                	add    %eax,(%ecx)
    1903:	47                   	inc    %edi
    1904:	0a 00                	or     (%eax),%al
    1906:	00 4a 11             	add    %cl,0x11(%edx)
    1909:	26 00 00             	add    %al,%es:(%eax)
    190c:	00 01                	add    %al,(%ecx)
    190e:	02 01                	add    (%ecx),%al
    1910:	1c 0a                	sbb    $0xa,%al
    1912:	00 00                	add    %al,(%eax)
    1914:	4b                   	dec    %ebx
    1915:	11 26                	adc    %esp,(%esi)
    1917:	00 00                	add    %al,(%eax)
    1919:	00 01                	add    %al,(%ecx)
    191b:	03 05 6f 6e 65 00    	add    0x656e6f,%eax
    1921:	4c                   	dec    %esp
    1922:	26 00 00             	add    %al,%es:(%eax)
    1925:	00 01                	add    %al,(%ecx)
    1927:	04 01                	add    $0x1,%al
    1929:	c2 09 00             	ret    $0x9
    192c:	00 4d 11             	add    %cl,0x11(%ebp)
    192f:	26 00 00             	add    %al,%es:(%eax)
    1932:	00 03                	add    %al,(%ebx)
    1934:	05 00 06 5e 09       	add    $0x95e0600,%eax
    1939:	00 00                	add    %al,(%eax)
    193b:	44                   	inc    %esp
    193c:	e7 00                	out    %eax,$0x0
    193e:	00 00                	add    %al,(%eax)
    1940:	09 78 00             	or     %edi,0x0(%eax)
    1943:	00 00                	add    %al,(%eax)
    1945:	07                   	pop    %es
    1946:	72 61                	jb     19a9 <mbh-0x2fe657>
    1948:	77 00                	ja     194a <mbh-0x2fe6b6>
    194a:	51                   	push   %ecx
    194b:	0c 26                	or     $0x26,%al
    194d:	00 00                	add    %al,(%eax)
    194f:	00 00                	add    %al,(%eax)
    1951:	03 53 09             	add    0x9(%ebx),%edx
    1954:	00 00                	add    %al,(%eax)
    1956:	02 53 1b             	add    0x1b(%ebx),%dl
    1959:	cc                   	int3   
    195a:	00 00                	add    %al,(%eax)
    195c:	00 04 6c             	add    %al,(%esp,%ebp,2)
    195f:	14 01                	adc    $0x1,%al
    1961:	00 00                	add    %al,(%eax)
    1963:	01 53 0a             	add    %edx,0xa(%ebx)
    1966:	00 00                	add    %al,(%eax)
    1968:	6e                   	outsb  %ds:(%esi),(%dx)
    1969:	10 26                	adc    %ah,(%esi)
    196b:	00 00                	add    %al,(%eax)
    196d:	00 03                	add    %al,(%ebx)
    196f:	00 01                	add    %al,(%ecx)
    1971:	dd 09                	fisttpll (%ecx)
    1973:	00 00                	add    %al,(%eax)
    1975:	6f                   	outsl  %ds:(%esi),(%dx)
    1976:	10 26                	adc    %ah,(%esi)
    1978:	00 00                	add    %al,(%eax)
    197a:	00 05 03 00 06 76    	add    %al,0x76060003
    1980:	09 00                	or     %eax,(%eax)
    1982:	00 6a 2f             	add    %ch,0x2f(%edx)
    1985:	01 00                	add    %eax,(%eax)
    1987:	00 09                	add    %cl,(%ecx)
    1989:	f3 00 00             	repz add %al,(%eax)
    198c:	00 07                	add    %al,(%edi)
    198e:	72 61                	jb     19f1 <mbh-0x2fe60f>
    1990:	77 00                	ja     1992 <mbh-0x2fe66e>
    1992:	73 0c                	jae    19a0 <mbh-0x2fe660>
    1994:	26 00 00             	add    %al,%es:(%eax)
    1997:	00 00                	add    %al,(%eax)
    1999:	03 37                	add    (%edi),%esi
    199b:	0a 00                	or     (%eax),%al
    199d:	00 02                	add    %al,(%edx)
    199f:	75 1b                	jne    19bc <mbh-0x2fe644>
    19a1:	14 01                	adc    $0x1,%al
    19a3:	00 00                	add    %al,(%eax)
    19a5:	04 7e                	add    $0x7e,%al
    19a7:	aa                   	stos   %al,%es:(%edi)
    19a8:	01 00                	add    %eax,(%eax)
    19aa:	00 01                	add    %al,(%ecx)
    19ac:	8e 09                	mov    (%ecx),%cs
    19ae:	00 00                	add    %al,(%eax)
    19b0:	80 11 26             	adcb   $0x26,(%ecx)
    19b3:	00 00                	add    %al,(%eax)
    19b5:	00 01                	add    %al,(%ecx)
    19b7:	00 01                	add    %al,(%ecx)
    19b9:	93                   	xchg   %eax,%ebx
    19ba:	09 00                	or     %eax,(%eax)
    19bc:	00 81 11 26 00 00    	add    %al,0x2611(%ecx)
    19c2:	00 01                	add    %al,(%ecx)
    19c4:	01 01                	add    %eax,(%ecx)
    19c6:	98                   	cwtl   
    19c7:	09 00                	or     %eax,(%eax)
    19c9:	00 82 11 26 00 00    	add    %al,0x2611(%edx)
    19cf:	00 01                	add    %al,(%ecx)
    19d1:	02 01                	add    (%ecx),%al
    19d3:	9d                   	popf   
    19d4:	09 00                	or     %eax,(%eax)
    19d6:	00 83 11 26 00 00    	add    %al,0x2611(%ebx)
    19dc:	00 01                	add    %al,(%ecx)
    19de:	03 01                	add    (%ecx),%eax
    19e0:	a2 09 00 00 84       	mov    %al,0x84000009
    19e5:	11 26                	adc    %esp,(%esi)
    19e7:	00 00                	add    %al,(%eax)
    19e9:	00 01                	add    %al,(%ecx)
    19eb:	04 01                	add    $0x1,%al
    19ed:	a7                   	cmpsl  %es:(%edi),%ds:(%esi)
    19ee:	09 00                	or     %eax,(%eax)
    19f0:	00 85 11 26 00 00    	add    %al,0x2611(%ebp)
    19f6:	00 01                	add    %al,(%ecx)
    19f8:	05 01 ac 09 00       	add    $0x9ac01,%eax
    19fd:	00 86 11 26 00 00    	add    %al,0x2611(%esi)
    1a03:	00 01                	add    %al,(%ecx)
    1a05:	06                   	push   %es
    1a06:	01 b1 09 00 00 87    	add    %esi,-0x78fffff7(%ecx)
    1a0c:	11 26                	adc    %esp,(%esi)
    1a0e:	00 00                	add    %al,(%eax)
    1a10:	00 01                	add    %al,(%ecx)
    1a12:	07                   	pop    %es
    1a13:	00 04 8a             	add    %al,(%edx,%ecx,4)
    1a16:	c9                   	leave  
    1a17:	01 00                	add    %eax,(%eax)
    1a19:	00 05 69 64 00 8c    	add    %al,0x8c006469
    1a1f:	26 00 00             	add    %al,%es:(%eax)
    1a22:	00 03                	add    %al,(%ebx)
    1a24:	00 01                	add    %al,(%ecx)
    1a26:	53                   	push   %ebx
    1a27:	0a 00                	or     (%eax),%al
    1a29:	00 8d 11 26 00 00    	add    %cl,0x2611(%ebp)
    1a2f:	00 05 03 00 06 ec    	add    %al,0xec060003
    1a35:	09 00                	or     %eax,(%eax)
    1a37:	00 7c f3 01          	add    %bh,0x1(%ebx,%esi,8)
    1a3b:	00 00                	add    %al,(%eax)
    1a3d:	0a d6                	or     %dh,%dl
    1a3f:	09 00                	or     %eax,(%eax)
    1a41:	00 88 3b 01 00 00    	add    %cl,0x13b(%eax)
    1a47:	0a e6                	or     %dh,%ah
    1a49:	09 00                	or     %eax,(%eax)
    1a4b:	00 8e aa 01 00 00    	add    %cl,0x1aa(%esi)
    1a51:	07                   	pop    %es
    1a52:	72 61                	jb     1ab5 <mbh-0x2fe54b>
    1a54:	77 00                	ja     1a56 <mbh-0x2fe5aa>
    1a56:	90                   	nop
    1a57:	11 26                	adc    %esp,(%esi)
    1a59:	00 00                	add    %al,(%eax)
    1a5b:	00 00                	add    %al,(%eax)
    1a5d:	03 2c 0a             	add    (%edx,%ecx,1),%ebp
    1a60:	00 00                	add    %al,(%eax)
    1a62:	02 92 1b c9 01 00    	add    0x1c91b(%edx),%dl
    1a68:	00 04 99             	add    %al,(%ecx,%ebx,4)
    1a6b:	51                   	push   %ecx
    1a6c:	02 00                	add    (%eax),%al
    1a6e:	00 05 78 38 36 00    	add    %al,0x363878
    1a74:	9b                   	fwait
    1a75:	26 00 00             	add    %al,%es:(%eax)
    1a78:	00 01                	add    %al,(%ecx)
    1a7a:	00 01                	add    %al,(%ecx)
    1a7c:	b6 09                	mov    $0x9,%dh
    1a7e:	00 00                	add    %al,(%eax)
    1a80:	9c                   	pushf  
    1a81:	11 26                	adc    %esp,(%esi)
    1a83:	00 00                	add    %al,(%eax)
    1a85:	00 01                	add    %al,(%ecx)
    1a87:	01 05 6d 73 00 9d    	add    %eax,0x9d00736d
    1a8d:	26 00 00             	add    %al,%es:(%eax)
    1a90:	00 01                	add    %al,(%ecx)
    1a92:	02 01                	add    (%ecx),%al
    1a94:	45                   	inc    %ebp
    1a95:	06                   	push   %es
    1a96:	00 00                	add    %al,(%eax)
    1a98:	9e                   	sahf   
    1a99:	11 26                	adc    %esp,(%esi)
    1a9b:	00 00                	add    %al,(%eax)
    1a9d:	00 01                	add    %al,(%ecx)
    1a9f:	03 01                	add    (%ecx),%eax
    1aa1:	4e                   	dec    %esi
    1aa2:	0a 00                	or     (%eax),%al
    1aa4:	00 9f 11 26 00 00    	add    %bl,0x2611(%edi)
    1aaa:	00 01                	add    %al,(%ecx)
    1aac:	04 01                	add    $0x1,%al
    1aae:	53                   	push   %ebx
    1aaf:	0a 00                	or     (%eax),%al
    1ab1:	00 a0 11 26 00 00    	add    %ah,0x2611(%eax)
    1ab7:	00 03                	add    %al,(%ebx)
    1ab9:	05 00 06 04 0a       	add    $0xa040600,%eax
    1abe:	00 00                	add    %al,(%eax)
    1ac0:	97                   	xchg   %eax,%edi
    1ac1:	6c                   	insb   (%dx),%es:(%edi)
    1ac2:	02 00                	add    (%eax),%al
    1ac4:	00 09                	add    %cl,(%ecx)
    1ac6:	ff 01                	incl   (%ecx)
    1ac8:	00 00                	add    %al,(%eax)
    1aca:	07                   	pop    %es
    1acb:	72 61                	jb     1b2e <mbh-0x2fe4d2>
    1acd:	77 00                	ja     1acf <mbh-0x2fe531>
    1acf:	a4                   	movsb  %ds:(%esi),%es:(%edi)
    1ad0:	0c 26                	or     $0x26,%al
    1ad2:	00 00                	add    %al,(%eax)
    1ad4:	00 00                	add    %al,(%eax)
    1ad6:	03 21                	add    (%ecx),%esp
    1ad8:	0a 00                	or     (%eax),%al
    1ada:	00 02                	add    %al,(%edx)
    1adc:	a6                   	cmpsb  %es:(%edi),%ds:(%esi)
    1add:	1b 51 02             	sbb    0x2(%ecx),%edx
    1ae0:	00 00                	add    %al,(%eax)
    1ae2:	0d 1a 01 00 00       	or     $0x11a,%eax
    1ae7:	01 04 06             	add    %eax,(%esi,%eax,1)
    1aea:	a9 3b 30 00 88       	test   $0x8800303b,%eax
    1aef:	00 00                	add    %al,(%eax)
    1af1:	00 01                	add    %al,(%ecx)
    1af3:	9c                   	pushf  
    1af4:	08 42 0a             	or     %al,0xa(%edx)
    1af7:	00 00                	add    %al,(%eax)
    1af9:	06                   	push   %es
    1afa:	e7 00                	out    %eax,$0x0
    1afc:	00 00                	add    %al,(%eax)
    1afe:	02 91 77 08 c7 09    	add    0x9c70877(%ecx),%dl
    1b04:	00 00                	add    %al,(%eax)
    1b06:	07                   	pop    %es
    1b07:	2f                   	das    
    1b08:	01 00                	add    %eax,(%eax)
    1b0a:	00 02                	add    %al,(%edx)
    1b0c:	91                   	xchg   %eax,%ecx
    1b0d:	76 08                	jbe    1b17 <mbh-0x2fe4e9>
    1b0f:	cc                   	int3   
    1b10:	09 00                	or     %eax,(%eax)
    1b12:	00 08                	add    %cl,(%eax)
    1b14:	f3 01 00             	repz add %eax,(%eax)
    1b17:	00 02                	add    %al,(%edx)
    1b19:	91                   	xchg   %eax,%ecx
    1b1a:	75 08                	jne    1b24 <mbh-0x2fe4dc>
    1b1c:	d1 09                	rorl   (%ecx)
    1b1e:	00 00                	add    %al,(%eax)
    1b20:	09 6c 02 00          	or     %ebp,0x0(%edx,%eax,1)
    1b24:	00 02                	add    %al,(%edx)
    1b26:	91                   	xchg   %eax,%ecx
    1b27:	74 00                	je     1b29 <mbh-0x2fe4d7>
    1b29:	00 e4                	add    %ah,%ah
    1b2b:	08 00                	or     %al,(%eax)
    1b2d:	00 05 00 01 04 d1    	add    %al,0xd1040100
    1b33:	06                   	push   %es
    1b34:	00 00                	add    %al,(%eax)
    1b36:	16                   	push   %ss
    1b37:	18 04 00             	sbb    %al,(%eax,%eax,1)
    1b3a:	00 1d dc 00 00 00    	add    %bl,0xdc
    1b40:	00 00                	add    %al,(%eax)
    1b42:	00 00                	add    %al,(%eax)
    1b44:	31 3c 30             	xor    %edi,(%eax,%esi,1)
    1b47:	00 ad 01 00 00 11    	add    %ch,0x11000001(%ebp)
    1b4d:	06                   	push   %es
    1b4e:	00 00                	add    %al,(%eax)
    1b50:	02 e4                	add    %ah,%ah
    1b52:	03 00                	add    (%eax),%eax
    1b54:	00 02                	add    %al,(%edx)
    1b56:	1a 20                	sbb    (%eax),%ah
    1b58:	32 00                	xor    (%eax),%al
    1b5a:	00 00                	add    %al,(%eax)
    1b5c:	08 01                	or     %al,(%ecx)
    1b5e:	08 c9                	or     %cl,%cl
    1b60:	01 00                	add    %eax,(%eax)
    1b62:	00 02                	add    %al,(%edx)
    1b64:	09 01                	or     %eax,(%ecx)
    1b66:	00 00                	add    %al,(%eax)
    1b68:	02 1b                	add    (%ebx),%bl
    1b6a:	20 45 00             	and    %al,0x0(%ebp)
    1b6d:	00 00                	add    %al,(%eax)
    1b6f:	08 02                	or     %al,(%edx)
    1b71:	07                   	pop    %es
    1b72:	6b 02 00             	imul   $0x0,(%edx),%eax
    1b75:	00 02                	add    %al,(%edx)
    1b77:	92                   	xchg   %eax,%edx
    1b78:	00 00                	add    %al,(%eax)
    1b7a:	00 02                	add    %al,(%edx)
    1b7c:	1c 20                	sbb    $0x20,%al
    1b7e:	58                   	pop    %eax
    1b7f:	00 00                	add    %al,(%eax)
    1b81:	00 08                	add    %cl,(%eax)
    1b83:	04 07                	add    $0x7,%al
    1b85:	0d 02 00 00 02       	or     $0x2000002,%eax
    1b8a:	88 02                	mov    %al,(%edx)
    1b8c:	00 00                	add    %al,(%eax)
    1b8e:	02 1d 20 6b 00 00    	add    0x6b20,%bl
    1b94:	00 08                	add    %cl,(%eax)
    1b96:	08 07                	or     %al,(%edi)
    1b98:	03 02                	add    (%edx),%eax
    1b9a:	00 00                	add    %al,(%eax)
    1b9c:	08 01                	or     %al,(%ecx)
    1b9e:	06                   	push   %es
    1b9f:	cb                   	lret   
    1ba0:	01 00                	add    %eax,(%eax)
    1ba2:	00 02                	add    %al,(%edx)
    1ba4:	46                   	inc    %esi
    1ba5:	07                   	pop    %es
    1ba6:	00 00                	add    %al,(%eax)
    1ba8:	02 20                	add    (%eax),%ah
    1baa:	20 85 00 00 00 08    	and    %al,0x8000000(%ebp)
    1bb0:	02 05 9b 00 00 00    	add    0x9b,%al
    1bb6:	02 fb                	add    %bl,%bh
    1bb8:	05 00 00 02 21       	add    $0x21020000,%eax
    1bbd:	20 98 00 00 00 17    	and    %bl,0x17000000(%eax)
    1bc3:	04 05                	add    $0x5,%al
    1bc5:	69 6e 74 00 02 dc 06 	imul   $0x6dc0200,0x74(%esi),%ebp
    1bcc:	00 00                	add    %al,(%eax)
    1bce:	02 22                	add    (%edx),%ah
    1bd0:	20 ab 00 00 00 08    	and    %ch,0x8000000(%ebx)
    1bd6:	08 05 58 01 00 00    	or     %al,0x158
    1bdc:	08 01                	or     %al,(%ecx)
    1bde:	06                   	push   %es
    1bdf:	d2 01                	rolb   %cl,(%ecx)
    1be1:	00 00                	add    %al,(%eax)
    1be3:	18 b2 00 00 00 02    	sbb    %dh,0x2000000(%edx)
    1be9:	a5                   	movsl  %ds:(%esi),%es:(%edi)
    1bea:	00 00                	add    %al,(%eax)
    1bec:	00 02                	add    %al,(%edx)
    1bee:	25 20 ca 00 00       	and    $0xca20,%eax
    1bf3:	00 08                	add    %cl,(%eax)
    1bf5:	04 07                	add    $0x7,%al
    1bf7:	08 02                	or     %al,(%edx)
    1bf9:	00 00                	add    %al,(%eax)
    1bfb:	02 a6 07 00 00 02    	add    0x2000007(%esi),%ah
    1c01:	26 20 ca             	es and %cl,%dl
    1c04:	00 00                	add    %al,(%eax)
    1c06:	00 06                	add    %al,(%esi)
    1c08:	02 02                	add    (%edx),%al
    1c0a:	4c                   	dec    %esp
    1c0b:	04 01                	add    $0x1,%al
    1c0d:	01 00                	add    %eax,(%eax)
    1c0f:	00 04 eb             	add    %al,(%ebx,%ebp,8)
    1c12:	05 00 00 02 4e       	add    $0x4e020000,%eax
    1c17:	0f 26 00             	mov    %eax,%tr0
    1c1a:	00 00                	add    %al,(%eax)
    1c1c:	00 04 e5 06 00 00 02 	add    %al,0x2000006(,%eiz,8)
    1c23:	4f                   	dec    %edi
    1c24:	0f 26 00             	mov    %eax,%tr0
    1c27:	00 00                	add    %al,(%eax)
    1c29:	01 00                	add    %eax,(%eax)
    1c2b:	09 23                	or     %esp,(%ebx)
    1c2d:	06                   	push   %es
    1c2e:	00 00                	add    %al,(%eax)
    1c30:	02 02                	add    (%edx),%al
    1c32:	45                   	inc    %ebp
    1c33:	37                   	aaa    
    1c34:	01 00                	add    %eax,(%eax)
    1c36:	00 0a                	add    %cl,(%edx)
    1c38:	72 61                	jb     1c9b <mbh-0x2fe365>
    1c3a:	77 00                	ja     1c3c <mbh-0x2fe3c4>
    1c3c:	02 47 0d             	add    0xd(%edi),%al
    1c3f:	39 00                	cmp    %eax,(%eax)
    1c41:	00 00                	add    %al,(%eax)
    1c43:	07                   	pop    %es
    1c44:	30 07                	xor    %al,(%edi)
    1c46:	00 00                	add    %al,(%eax)
    1c48:	02 48 0d             	add    0xd(%eax),%cl
    1c4b:	79 00                	jns    1c4d <mbh-0x2fe3b3>
    1c4d:	00 00                	add    %al,(%eax)
    1c4f:	07                   	pop    %es
    1c50:	a9 06 00 00 02       	test   $0x2000006,%eax
    1c55:	49                   	dec    %ecx
    1c56:	0d 37 01 00 00       	or     $0x137,%eax
    1c5b:	03 dd                	add    %ebp,%ebx
    1c5d:	00 00                	add    %al,(%eax)
    1c5f:	00 00                	add    %al,(%eax)
    1c61:	0c 26                	or     $0x26,%al
    1c63:	00 00                	add    %al,(%eax)
    1c65:	00 47 01             	add    %al,0x1(%edi)
    1c68:	00 00                	add    %al,(%eax)
    1c6a:	0d 58 00 00 00       	or     $0x58,%eax
    1c6f:	01 00                	add    %eax,(%eax)
    1c71:	02 51 06             	add    0x6(%ecx),%dl
    1c74:	00 00                	add    %al,(%eax)
    1c76:	02 53 1b             	add    0x1b(%ebx),%dl
    1c79:	01 01                	add    %eax,(%ecx)
    1c7b:	00 00                	add    %al,(%eax)
    1c7d:	06                   	push   %es
    1c7e:	04 02                	add    $0x2,%al
    1c80:	5f                   	pop    %edi
    1c81:	04 77                	add    $0x77,%al
    1c83:	01 00                	add    %eax,(%eax)
    1c85:	00 04 eb             	add    %al,(%ebx,%ebp,8)
    1c88:	06                   	push   %es
    1c89:	00 00                	add    %al,(%eax)
    1c8b:	02 61 0f             	add    0xf(%ecx),%ah
    1c8e:	47                   	inc    %edi
    1c8f:	01 00                	add    %eax,(%eax)
    1c91:	00 00                	add    %al,(%eax)
    1c93:	04 f2                	add    $0xf2,%al
    1c95:	07                   	pop    %es
    1c96:	00 00                	add    %al,(%eax)
    1c98:	02 62 0f             	add    0xf(%edx),%ah
    1c9b:	47                   	inc    %edi
    1c9c:	01 00                	add    %eax,(%eax)
    1c9e:	00 02                	add    %al,(%edx)
    1ca0:	00 06                	add    %al,(%esi)
    1ca2:	02 02                	add    (%edx),%al
    1ca4:	6b 0a 9b             	imul   $0xffffff9b,(%edx),%ecx
    1ca7:	01 00                	add    %eax,(%eax)
    1ca9:	00 04 eb             	add    %al,(%ebx,%ebp,8)
    1cac:	05 00 00 02 6d       	add    $0x6d020000,%eax
    1cb1:	15 26 00 00 00       	adc    $0x26,%eax
    1cb6:	00 04 e5 06 00 00 02 	add    %al,0x2000006(,%eiz,8)
    1cbd:	6e                   	outsb  %ds:(%esi),(%dx)
    1cbe:	15 26 00 00 00       	adc    $0x26,%eax
    1cc3:	01 00                	add    %eax,(%eax)
    1cc5:	0f 02 02             	lar    (%edx),%eax
    1cc8:	69 07 b6 01 00 00    	imul   $0x1b6,(%edi),%eax
    1cce:	03 77 01             	add    0x1(%edi),%esi
    1cd1:	00 00                	add    %al,(%eax)
    1cd3:	07                   	pop    %es
    1cd4:	ec                   	in     (%dx),%al
    1cd5:	06                   	push   %es
    1cd6:	00 00                	add    %al,(%eax)
    1cd8:	02 72 13             	add    0x13(%edx),%dh
    1cdb:	39 00                	cmp    %eax,(%eax)
    1cdd:	00 00                	add    %al,(%eax)
    1cdf:	00 06                	add    %al,(%esi)
    1ce1:	04 02                	add    $0x2,%al
    1ce3:	67 04 d3             	addr16 add $0xd3,%al
    1ce6:	01 00                	add    %eax,(%eax)
    1ce8:	00 0e                	add    %cl,(%esi)
    1cea:	9b                   	fwait
    1ceb:	01 00                	add    %eax,(%eax)
    1ced:	00 00                	add    %al,(%eax)
    1cef:	04 f3                	add    $0xf3,%al
    1cf1:	07                   	pop    %es
    1cf2:	00 00                	add    %al,(%eax)
    1cf4:	02 76 10             	add    0x10(%esi),%dh
    1cf7:	39 00                	cmp    %eax,(%eax)
    1cf9:	00 00                	add    %al,(%eax)
    1cfb:	02 00                	add    (%eax),%al
    1cfd:	09 0a                	or     %ecx,(%edx)
    1cff:	07                   	pop    %es
    1d00:	00 00                	add    %al,(%eax)
    1d02:	04 02                	add    $0x2,%al
    1d04:	58                   	pop    %eax
    1d05:	0e                   	push   %cs
    1d06:	02 00                	add    (%eax),%al
    1d08:	00 0a                	add    %cl,(%edx)
    1d0a:	72 61                	jb     1d6d <mbh-0x2fe293>
    1d0c:	77 00                	ja     1d0e <mbh-0x2fe2f2>
    1d0e:	02 5a 0d             	add    0xd(%edx),%bl
    1d11:	4c                   	dec    %esp
    1d12:	00 00                	add    %al,(%eax)
    1d14:	00 07                	add    %al,(%edi)
    1d16:	30 07                	xor    %al,(%edi)
    1d18:	00 00                	add    %al,(%eax)
    1d1a:	02 5b 0d             	add    0xd(%ebx),%bl
    1d1d:	8c 00                	mov    %es,(%eax)
    1d1f:	00 00                	add    %al,(%eax)
    1d21:	07                   	pop    %es
    1d22:	a9 06 00 00 02       	test   $0x2000006,%eax
    1d27:	5c                   	pop    %esp
    1d28:	0d 0e 02 00 00       	or     $0x20e,%eax
    1d2d:	03 53 01             	add    0x1(%ebx),%edx
    1d30:	00 00                	add    %al,(%eax)
    1d32:	03 b6 01 00 00 00    	add    0x1(%esi),%esi
    1d38:	0c 26                	or     $0x26,%al
    1d3a:	00 00                	add    %al,(%eax)
    1d3c:	00 1e                	add    %bl,(%esi)
    1d3e:	02 00                	add    (%eax),%al
    1d40:	00 0d 58 00 00 00    	add    %cl,0x58
    1d46:	03 00                	add    (%eax),%eax
    1d48:	02 74 07 00          	add    0x0(%edi,%eax,1),%dh
    1d4c:	00 02                	add    %al,(%edx)
    1d4e:	7a 1b                	jp     1d6b <mbh-0x2fe295>
    1d50:	d3 01                	roll   %cl,(%ecx)
    1d52:	00 00                	add    %al,(%eax)
    1d54:	06                   	push   %es
    1d55:	08 02                	or     %al,(%edx)
    1d57:	86 04 4e             	xchg   %al,(%esi,%ecx,2)
    1d5a:	02 00                	add    (%eax),%al
    1d5c:	00 04 d7             	add    %al,(%edi,%edx,8)
    1d5f:	06                   	push   %es
    1d60:	00 00                	add    %al,(%eax)
    1d62:	02 88 0f 1e 02 00    	add    0x21e0f(%eax),%cl
    1d68:	00 00                	add    %al,(%eax)
    1d6a:	04 2a                	add    $0x2a,%al
    1d6c:	07                   	pop    %es
    1d6d:	00 00                	add    %al,(%eax)
    1d6f:	02 89 0f 1e 02 00    	add    0x21e0f(%ecx),%cl
    1d75:	00 04 00             	add    %al,(%eax,%eax,1)
    1d78:	06                   	push   %es
    1d79:	02 02                	add    (%edx),%al
    1d7b:	96                   	xchg   %eax,%esi
    1d7c:	10 72 02             	adc    %dh,0x2(%edx)
    1d7f:	00 00                	add    %al,(%eax)
    1d81:	04 eb                	add    $0xeb,%al
    1d83:	05 00 00 02 98       	add    $0x98020000,%eax
    1d88:	1b 26                	sbb    (%esi),%esp
    1d8a:	00 00                	add    %al,(%eax)
    1d8c:	00 00                	add    %al,(%eax)
    1d8e:	04 e5                	add    $0xe5,%al
    1d90:	06                   	push   %es
    1d91:	00 00                	add    %al,(%eax)
    1d93:	02 99 1b 26 00 00    	add    0x261b(%ecx),%bl
    1d99:	00 01                	add    %al,(%ecx)
    1d9b:	00 0f                	add    %cl,(%edi)
    1d9d:	02 02                	add    (%edx),%al
    1d9f:	94                   	xchg   %eax,%esp
    1da0:	0d 8d 02 00 00       	or     $0x28d,%eax
    1da5:	03 4e 02             	add    0x2(%esi),%ecx
    1da8:	00 00                	add    %al,(%eax)
    1daa:	07                   	pop    %es
    1dab:	ec                   	in     (%dx),%al
    1dac:	06                   	push   %es
    1dad:	00 00                	add    %al,(%eax)
    1daf:	02 9d 19 39 00 00    	add    0x3919(%ebp),%bl
    1db5:	00 00                	add    %al,(%eax)
    1db7:	06                   	push   %es
    1db8:	04 02                	add    $0x2,%al
    1dba:	92                   	xchg   %eax,%edx
    1dbb:	0a aa 02 00 00 0e    	or     0xe000002(%edx),%ch
    1dc1:	72 02                	jb     1dc5 <mbh-0x2fe23b>
    1dc3:	00 00                	add    %al,(%eax)
    1dc5:	00 04 f3             	add    %al,(%ebx,%esi,8)
    1dc8:	07                   	pop    %es
    1dc9:	00 00                	add    %al,(%eax)
    1dcb:	02 a1 16 39 00 00    	add    0x3916(%ecx),%ah
    1dd1:	00 02                	add    %al,(%edx)
    1dd3:	00 0f                	add    %cl,(%edi)
    1dd5:	04 02                	add    $0x2,%al
    1dd7:	90                   	nop
    1dd8:	07                   	pop    %es
    1dd9:	c5 02                	lds    (%edx),%eax
    1ddb:	00 00                	add    %al,(%eax)
    1ddd:	03 8d 02 00 00 0a    	add    0xa000002(%ebp),%ecx
    1de3:	6c                   	insb   (%dx),%es:(%edi)
    1de4:	6f                   	outsl  %ds:(%esi),(%dx)
    1de5:	77 00                	ja     1de7 <mbh-0x2fe219>
    1de7:	02 a5 14 4c 00 00    	add    0x4c14(%ebp),%ah
    1ded:	00 00                	add    %al,(%eax)
    1def:	06                   	push   %es
    1df0:	08 02                	or     %al,(%edx)
    1df2:	8e 04 e2             	mov    (%edx,%eiz,8),%es
    1df5:	02 00                	add    (%eax),%al
    1df7:	00 0e                	add    %cl,(%esi)
    1df9:	aa                   	stos   %al,%es:(%edi)
    1dfa:	02 00                	add    (%eax),%al
    1dfc:	00 00                	add    %al,(%eax)
    1dfe:	04 2b                	add    $0x2b,%al
    1e00:	07                   	pop    %es
    1e01:	00 00                	add    %al,(%eax)
    1e03:	02 a9 11 4c 00 00    	add    0x4c11(%ecx),%ch
    1e09:	00 04 00             	add    %al,(%eax,%eax,1)
    1e0c:	09 72 06             	or     %esi,0x6(%edx)
    1e0f:	00 00                	add    %al,(%eax)
    1e11:	08 02                	or     %al,(%edx)
    1e13:	7f 1d                	jg     1e32 <mbh-0x2fe1ce>
    1e15:	03 00                	add    (%eax),%eax
    1e17:	00 0a                	add    %cl,(%edx)
    1e19:	72 61                	jb     1e7c <mbh-0x2fe184>
    1e1b:	77 00                	ja     1e1d <mbh-0x2fe1e3>
    1e1d:	02 81 0d 5f 00 00    	add    0x5f0d(%ecx),%al
    1e23:	00 07                	add    %al,(%edi)
    1e25:	30 07                	xor    %al,(%edi)
    1e27:	00 00                	add    %al,(%eax)
    1e29:	02 82 0d 9f 00 00    	add    0x9f0d(%edx),%al
    1e2f:	00 07                	add    %al,(%edi)
    1e31:	a9 06 00 00 02       	test   $0x2000006,%eax
    1e36:	83 0d 1d 03 00 00 03 	orl    $0x3,0x31d
    1e3d:	2a 02                	sub    (%edx),%al
    1e3f:	00 00                	add    %al,(%eax)
    1e41:	03 c5                	add    %ebp,%eax
    1e43:	02 00                	add    (%eax),%al
    1e45:	00 00                	add    %al,(%eax)
    1e47:	0c 26                	or     $0x26,%al
    1e49:	00 00                	add    %al,(%eax)
    1e4b:	00 2d 03 00 00 0d    	add    %ch,0xd000003
    1e51:	58                   	pop    %eax
    1e52:	00 00                	add    %al,(%eax)
    1e54:	00 07                	add    %al,(%edi)
    1e56:	00 02                	add    %al,(%edx)
    1e58:	07                   	pop    %es
    1e59:	08 00                	or     %al,(%eax)
    1e5b:	00 02                	add    %al,(%edx)
    1e5d:	ad                   	lods   %ds:(%esi),%eax
    1e5e:	1b e2                	sbb    %edx,%esp
    1e60:	02 00                	add    (%eax),%al
    1e62:	00 10                	add    %dl,(%eax)
    1e64:	bd 0b 00 00 04       	mov    $0x400000b,%ebp
    1e69:	03 26                	add    (%esi),%esp
    1e6b:	67 04 00             	addr16 add $0x0,%al
    1e6e:	00 01                	add    %al,(%ecx)
    1e70:	63 66 00             	arpl   %sp,0x0(%esi)
    1e73:	03 28                	add    (%eax),%ebp
    1e75:	0f 4c 00             	cmovl  (%eax),%eax
    1e78:	00 00                	add    %al,(%eax)
    1e7a:	01 00                	add    %eax,(%eax)
    1e7c:	01 72 31             	add    %esi,0x31(%edx)
    1e7f:	00 03                	add    %al,(%ebx)
    1e81:	29 0f                	sub    %ecx,(%edi)
    1e83:	4c                   	dec    %esp
    1e84:	00 00                	add    %al,(%eax)
    1e86:	00 01                	add    %al,(%ecx)
    1e88:	01 01                	add    %eax,(%ecx)
    1e8a:	70 66                	jo     1ef2 <mbh-0x2fe10e>
    1e8c:	00 03                	add    %al,(%ebx)
    1e8e:	2a 0f                	sub    (%edi),%cl
    1e90:	4c                   	dec    %esp
    1e91:	00 00                	add    %al,(%eax)
    1e93:	00 01                	add    %al,(%ecx)
    1e95:	02 01                	add    (%ecx),%al
    1e97:	72 32                	jb     1ecb <mbh-0x2fe135>
    1e99:	00 03                	add    %al,(%ebx)
    1e9b:	2b 0f                	sub    (%edi),%ecx
    1e9d:	4c                   	dec    %esp
    1e9e:	00 00                	add    %al,(%eax)
    1ea0:	00 01                	add    %al,(%ecx)
    1ea2:	03 01                	add    (%ecx),%eax
    1ea4:	61                   	popa   
    1ea5:	66 00 03             	data16 add %al,(%ebx)
    1ea8:	2c 0f                	sub    $0xf,%al
    1eaa:	4c                   	dec    %esp
    1eab:	00 00                	add    %al,(%eax)
    1ead:	00 01                	add    %al,(%ecx)
    1eaf:	04 01                	add    $0x1,%al
    1eb1:	72 33                	jb     1ee6 <mbh-0x2fe11a>
    1eb3:	00 03                	add    %al,(%ebx)
    1eb5:	2d 0f 4c 00 00       	sub    $0x4c0f,%eax
    1eba:	00 01                	add    %al,(%ecx)
    1ebc:	05 01 7a 66 00       	add    $0x667a01,%eax
    1ec1:	03 2e                	add    (%esi),%ebp
    1ec3:	0f 4c 00             	cmovl  (%eax),%eax
    1ec6:	00 00                	add    %al,(%eax)
    1ec8:	01 06                	add    %eax,(%esi)
    1eca:	01 73 66             	add    %esi,0x66(%ebx)
    1ecd:	00 03                	add    %al,(%ebx)
    1ecf:	2f                   	das    
    1ed0:	0f 4c 00             	cmovl  (%eax),%eax
    1ed3:	00 00                	add    %al,(%eax)
    1ed5:	01 07                	add    %eax,(%edi)
    1ed7:	01 74 66 00          	add    %esi,0x0(%esi,%eiz,2)
    1edb:	03 31                	add    (%ecx),%esi
    1edd:	0f 4c 00             	cmovl  (%eax),%eax
    1ee0:	00 00                	add    %al,(%eax)
    1ee2:	01 08                	add    %ecx,(%eax)
    1ee4:	01 69 74             	add    %ebp,0x74(%ecx)
    1ee7:	00 03                	add    %al,(%ebx)
    1ee9:	32 0f                	xor    (%edi),%cl
    1eeb:	4c                   	dec    %esp
    1eec:	00 00                	add    %al,(%eax)
    1eee:	00 01                	add    %al,(%ecx)
    1ef0:	09 01                	or     %eax,(%ecx)
    1ef2:	64 66 00 03          	data16 add %al,%fs:(%ebx)
    1ef6:	33 0f                	xor    (%edi),%ecx
    1ef8:	4c                   	dec    %esp
    1ef9:	00 00                	add    %al,(%eax)
    1efb:	00 01                	add    %al,(%ecx)
    1efd:	0a 01                	or     (%ecx),%al
    1eff:	6f                   	outsl  %ds:(%esi),(%dx)
    1f00:	66 00 03             	data16 add %al,(%ebx)
    1f03:	34 0f                	xor    $0xf,%al
    1f05:	4c                   	dec    %esp
    1f06:	00 00                	add    %al,(%eax)
    1f08:	00 01                	add    %al,(%ecx)
    1f0a:	0b 0b                	or     (%ebx),%ecx
    1f0c:	00 0c 00             	add    %cl,(%eax,%eax,1)
    1f0f:	00 03                	add    %al,(%ebx)
    1f11:	35 0f 4c 00 00       	xor    $0x4c0f,%eax
    1f16:	00 02                	add    %al,(%edx)
    1f18:	0c 01                	or     $0x1,%al
    1f1a:	6e                   	outsb  %ds:(%esi),(%dx)
    1f1b:	74 00                	je     1f1d <mbh-0x2fe0e3>
    1f1d:	03 36                	add    (%esi),%esi
    1f1f:	0f 4c 00             	cmovl  (%eax),%eax
    1f22:	00 00                	add    %al,(%eax)
    1f24:	01 0e                	add    %ecx,(%esi)
    1f26:	01 72 34             	add    %esi,0x34(%edx)
    1f29:	00 03                	add    %al,(%ebx)
    1f2b:	37                   	aaa    
    1f2c:	0f 4c 00             	cmovl  (%eax),%eax
    1f2f:	00 00                	add    %al,(%eax)
    1f31:	01 0f                	add    %ecx,(%edi)
    1f33:	01 72 66             	add    %esi,0x66(%edx)
    1f36:	00 03                	add    %al,(%ebx)
    1f38:	39 0f                	cmp    %ecx,(%edi)
    1f3a:	4c                   	dec    %esp
    1f3b:	00 00                	add    %al,(%eax)
    1f3d:	00 01                	add    %al,(%ecx)
    1f3f:	10 01                	adc    %al,(%ecx)
    1f41:	76 6d                	jbe    1fb0 <mbh-0x2fe050>
    1f43:	00 03                	add    %al,(%ebx)
    1f45:	3a 0f                	cmp    (%edi),%cl
    1f47:	4c                   	dec    %esp
    1f48:	00 00                	add    %al,(%eax)
    1f4a:	00 01                	add    %al,(%ecx)
    1f4c:	11 01                	adc    %eax,(%ecx)
    1f4e:	61                   	popa   
    1f4f:	63 00                	arpl   %ax,(%eax)
    1f51:	03 3b                	add    (%ebx),%edi
    1f53:	0f 4c 00             	cmovl  (%eax),%eax
    1f56:	00 00                	add    %al,(%eax)
    1f58:	01 12                	add    %edx,(%edx)
    1f5a:	01 76 69             	add    %esi,0x69(%esi)
    1f5d:	74 00                	je     1f5f <mbh-0x2fe0a1>
    1f5f:	03 3c 0f             	add    (%edi,%ecx,1),%edi
    1f62:	4c                   	dec    %esp
    1f63:	00 00                	add    %al,(%eax)
    1f65:	00 01                	add    %al,(%ecx)
    1f67:	13 01                	adc    (%ecx),%eax
    1f69:	76 69                	jbe    1fd4 <mbh-0x2fe02c>
    1f6b:	70 00                	jo     1f6d <mbh-0x2fe093>
    1f6d:	03 3e                	add    (%esi),%edi
    1f6f:	0f 4c 00             	cmovl  (%eax),%eax
    1f72:	00 00                	add    %al,(%eax)
    1f74:	01 14 01             	add    %edx,(%ecx,%eax,1)
    1f77:	69 64 00 03 3f 0f 4c 	imul   $0x4c0f3f,0x3(%eax,%eax,1),%esp
    1f7e:	00 
    1f7f:	00 00                	add    %al,(%eax)
    1f81:	01 15 01 72 35 00    	add    %edx,0x357201
    1f87:	03 40 0f             	add    0xf(%eax),%eax
    1f8a:	4c                   	dec    %esp
    1f8b:	00 00                	add    %al,(%eax)
    1f8d:	00 0a                	add    %cl,(%edx)
    1f8f:	16                   	push   %ss
    1f90:	00 02                	add    %al,(%edx)
    1f92:	6f                   	outsl  %ds:(%esi),(%dx)
    1f93:	0b 00                	or     (%eax),%eax
    1f95:	00 03                	add    %al,(%ebx)
    1f97:	42                   	inc    %edx
    1f98:	1b 39                	sbb    (%ecx),%edi
    1f9a:	03 00                	add    (%eax),%eax
    1f9c:	00 09                	add    %cl,(%ecx)
    1f9e:	a9 0b 00 00 04       	test   $0x400000b,%eax
    1fa3:	03 44 8a 04          	add    0x4(%edx,%ecx,4),%eax
    1fa7:	00 00                	add    %al,(%eax)
    1fa9:	03 67 04             	add    0x4(%edi),%esp
    1fac:	00 00                	add    %al,(%eax)
    1fae:	03 1e                	add    (%esi),%ebx
    1fb0:	02 00                	add    (%eax),%al
    1fb2:	00 00                	add    %al,(%eax)
    1fb4:	02 7f 0a             	add    0xa(%edi),%bh
    1fb7:	00 00                	add    %al,(%eax)
    1fb9:	03 49 1b             	add    0x1b(%ecx),%ecx
    1fbc:	73 04                	jae    1fc2 <mbh-0x2fe03e>
    1fbe:	00 00                	add    %al,(%eax)
    1fc0:	0c 1e                	or     $0x1e,%al
    1fc2:	02 00                	add    (%eax),%al
    1fc4:	00 a6 04 00 00 0d    	add    %ah,0xd000004(%esi)
    1fca:	58                   	pop    %eax
    1fcb:	00 00                	add    %al,(%eax)
    1fcd:	00 07                	add    %al,(%edi)
    1fcf:	00 06                	add    %al,(%esi)
    1fd1:	20 03                	and    %al,(%ebx)
    1fd3:	70 04                	jo     1fd9 <mbh-0x2fe027>
    1fd5:	18 05 00 00 05 65    	sbb    %al,0x65050000
    1fdb:	64 69 00 03 72 11 1e 	imul   $0x1e117203,%fs:(%eax),%eax
    1fe2:	02 00                	add    (%eax),%al
    1fe4:	00 00                	add    %al,(%eax)
    1fe6:	05 65 73 69 00       	add    $0x697365,%eax
    1feb:	03 73 11             	add    0x11(%ebx),%esi
    1fee:	1e                   	push   %ds
    1fef:	02 00                	add    (%eax),%al
    1ff1:	00 04 05 65 62 70 00 	add    %al,0x706265(,%eax,1)
    1ff8:	03 74 11 1e          	add    0x1e(%ecx,%edx,1),%esi
    1ffc:	02 00                	add    (%eax),%al
    1ffe:	00 08                	add    %cl,(%eax)
    2000:	05 65 73 70 00       	add    $0x707365,%eax
    2005:	03 75 11             	add    0x11(%ebp),%esi
    2008:	1e                   	push   %ds
    2009:	02 00                	add    (%eax),%al
    200b:	00 0c 05 65 62 78 00 	add    %cl,0x786265(,%eax,1)
    2012:	03 76 11             	add    0x11(%esi),%esi
    2015:	1e                   	push   %ds
    2016:	02 00                	add    (%eax),%al
    2018:	00 10                	add    %dl,(%eax)
    201a:	05 65 64 78 00       	add    $0x786465,%eax
    201f:	03 77 11             	add    0x11(%edi),%esi
    2022:	1e                   	push   %ds
    2023:	02 00                	add    (%eax),%al
    2025:	00 14 05 65 63 78 00 	add    %dl,0x786365(,%eax,1)
    202c:	03 78 11             	add    0x11(%eax),%edi
    202f:	1e                   	push   %ds
    2030:	02 00                	add    (%eax),%al
    2032:	00 18                	add    %bl,(%eax)
    2034:	05 65 61 78 00       	add    $0x786165,%eax
    2039:	03 79 11             	add    0x11(%ecx),%edi
    203c:	1e                   	push   %ds
    203d:	02 00                	add    (%eax),%al
    203f:	00 1c 00             	add    %bl,(%eax,%eax,1)
    2042:	09 a5 0a 00 00 20    	or     %esp,0x2000000a(%ebp)
    2048:	03 6e 36             	add    0x36(%esi),%ebp
    204b:	05 00 00 03 a6       	add    $0xa6030000,%eax
    2050:	04 00                	add    $0x0,%al
    2052:	00 0a                	add    %cl,(%edx)
    2054:	72 61                	jb     20b7 <mbh-0x2fdf49>
    2056:	77 00                	ja     2058 <mbh-0x2fdfa8>
    2058:	03 7d 11             	add    0x11(%ebp),%edi
    205b:	96                   	xchg   %eax,%esi
    205c:	04 00                	add    $0x0,%al
    205e:	00 00                	add    %al,(%eax)
    2060:	02 51 0b             	add    0xb(%ecx),%dl
    2063:	00 00                	add    %al,(%eax)
    2065:	03 7f 1b             	add    0x1b(%edi),%edi
    2068:	18 05 00 00 06 04    	sbb    %al,0x4060000
    206e:	04 44                	add    $0x44,%al
    2070:	04 8f                	add    $0x8f,%al
    2072:	05 00 00 01 65       	add    $0x65010000,%eax
    2077:	78 74                	js     20ed <mbh-0x2fdf13>
    2079:	00 04 46             	add    %al,(%esi,%eax,2)
    207c:	12 4c 00 00          	adc    0x0(%eax,%eax,1),%cl
    2080:	00 01                	add    %al,(%ecx)
    2082:	00 01                	add    %al,(%ecx)
    2084:	69 64 74 00 04 47 12 	imul   $0x4c124704,0x0(%esp,%esi,2),%esp
    208b:	4c 
    208c:	00 00                	add    %al,(%eax)
    208e:	00 01                	add    %al,(%ecx)
    2090:	01 01                	add    %eax,(%ecx)
    2092:	74 69                	je     20fd <mbh-0x2fdf03>
    2094:	00 04 48             	add    %al,(%eax,%ecx,2)
    2097:	12 4c 00 00          	adc    0x0(%eax,%eax,1),%cl
    209b:	00 01                	add    %al,(%ecx)
    209d:	02 01                	add    (%ecx),%al
    209f:	69 64 78 00 04 49 12 	imul   $0x4c124904,0x0(%eax,%edi,2),%esp
    20a6:	4c 
    20a7:	00 00                	add    %al,(%eax)
    20a9:	00 0d 03 01 72 00    	add    %cl,0x720103
    20af:	04 4a                	add    $0x4a,%al
    20b1:	12 4c 00 00          	adc    0x0(%eax,%eax,1),%cl
    20b5:	00 10                	add    %dl,(%eax)
    20b7:	10 00                	adc    %al,(%eax)
    20b9:	09 5b 0b             	or     %ebx,0xb(%ebx)
    20bc:	00 00                	add    %al,(%eax)
    20be:	04 04                	add    $0x4,%al
    20c0:	42                   	inc    %edx
    20c1:	a6                   	cmpsb  %es:(%edi),%ds:(%esi)
    20c2:	05 00 00 03 42       	add    $0x42030000,%eax
    20c7:	05 00 00 03 1e       	add    $0x1e030000,%eax
    20cc:	02 00                	add    (%eax),%al
    20ce:	00 00                	add    %al,(%eax)
    20d0:	02 83 0b 00 00 04    	add    0x400000b(%ebx),%al
    20d6:	50                   	push   %eax
    20d7:	1b 8f 05 00 00 06    	sbb    0x6000005(%edi),%ecx
    20dd:	04 04                	add    $0x4,%al
    20df:	57                   	push   %edi
    20e0:	04 09                	add    $0x9,%al
    20e2:	06                   	push   %es
    20e3:	00 00                	add    %al,(%eax)
    20e5:	01 70 00             	add    %esi,0x0(%eax)
    20e8:	04 59                	add    $0x59,%al
    20ea:	15 4c 00 00 00       	adc    $0x4c,%eax
    20ef:	01 00                	add    %eax,(%eax)
    20f1:	01 77 72             	add    %esi,0x72(%edi)
    20f4:	00 04 5a             	add    %al,(%edx,%ebx,2)
    20f7:	15 4c 00 00 00       	adc    $0x4c,%eax
    20fc:	01 01                	add    %eax,(%ecx)
    20fe:	01 75 73             	add    %esi,0x73(%ebp)
    2101:	00 04 5b             	add    %al,(%ebx,%ebx,2)
    2104:	15 4c 00 00 00       	adc    $0x4c,%eax
    2109:	01 02                	add    %eax,(%edx)
    210b:	01 72 73             	add    %esi,0x73(%edx)
    210e:	76 00                	jbe    2110 <mbh-0x2fdef0>
    2110:	04 5c                	add    $0x5c,%al
    2112:	15 4c 00 00 00       	adc    $0x4c,%eax
    2117:	01 03                	add    %eax,(%ebx)
    2119:	01 69 64             	add    %ebp,0x64(%ecx)
    211c:	00 04 5d 15 4c 00 00 	add    %al,0x4c15(,%ebx,2)
    2123:	00 01                	add    %al,(%ecx)
    2125:	04 01                	add    $0x1,%al
    2127:	72 00                	jb     2129 <mbh-0x2fded7>
    2129:	04 5e                	add    $0x5e,%al
    212b:	15 4c 00 00 00       	adc    $0x4c,%eax
    2130:	1b 05 00 09 69 0a    	sbb    0xa690900,%eax
    2136:	00 00                	add    %al,(%eax)
    2138:	04 04                	add    $0x4,%al
    213a:	55                   	push   %ebp
    213b:	20 06                	and    %al,(%esi)
    213d:	00 00                	add    %al,(%eax)
    213f:	03 b2 05 00 00 03    	add    0x3000005(%edx),%esi
    2145:	1e                   	push   %ds
    2146:	02 00                	add    (%eax),%al
    2148:	00 00                	add    %al,(%eax)
    214a:	02 8c 0a 00 00 04 64 	add    0x64040000(%edx,%ecx,1),%cl
    2151:	1b 09                	sbb    (%ecx),%ecx
    2153:	06                   	push   %es
    2154:	00 00                	add    %al,(%eax)
    2156:	09 dc                	or     %ebx,%esp
    2158:	0a 00                	or     (%eax),%al
    215a:	00 04 04             	add    %al,(%esp,%eax,1)
    215d:	69 54 06 00 00 03 1e 	imul   $0x21e0300,0x0(%esi,%eax,1),%edx
    2164:	02 
    2165:	00 00                	add    %al,(%eax)
    2167:	0a 73 6c             	or     0x6c(%ebx),%dh
    216a:	00 04 6d 0d a6 05 00 	add    %al,0x5a60d(,%ebp,2)
    2171:	00 0a                	add    %cl,(%edx)
    2173:	70 66                	jo     21db <mbh-0x2fde25>
    2175:	00 04 6e             	add    %al,(%esi,%ebp,2)
    2178:	0d 20 06 00 00       	or     $0x620,%eax
    217d:	00 02                	add    %al,(%edx)
    217f:	95                   	xchg   %eax,%ebp
    2180:	0a 00                	or     (%eax),%al
    2182:	00 04 70             	add    %al,(%eax,%esi,2)
    2185:	1b 2c 06             	sbb    (%esi,%eax,1),%ebp
    2188:	00 00                	add    %al,(%eax)
    218a:	10 e2                	adc    %ah,%dl
    218c:	0b 00                	or     (%eax),%eax
    218e:	00 1c 05 29 c5 06 00 	add    %bl,0x6c529(,%eax,1)
    2195:	00 05 6e 72 00 05    	add    %al,0x500726e
    219b:	2b 14 1e             	sub    (%esi,%ebx,1),%edx
    219e:	02 00                	add    (%eax),%al
    21a0:	00 00                	add    %al,(%eax)
    21a2:	05 65 72 72 00       	add    $0x727265,%eax
    21a7:	05 2c 14 54 06       	add    $0x654142c,%eax
    21ac:	00 00                	add    %al,(%eax)
    21ae:	04 05                	add    $0x5,%al
    21b0:	65 69 70 00 05 2d 14 	imul   $0x1e142d05,%gs:0x0(%eax),%esi
    21b7:	1e 
    21b8:	02 00                	add    (%eax),%al
    21ba:	00 08                	add    %cl,(%eax)
    21bc:	05 63 73 00 05       	add    $0x5007363,%eax
    21c1:	2e 14 1e             	cs adc $0x1e,%al
    21c4:	02 00                	add    (%eax),%al
    21c6:	00 0c 04             	add    %cl,(%esp,%eax,1)
    21c9:	3b 0b                	cmp    (%ebx),%ecx
    21cb:	00 00                	add    %al,(%eax)
    21cd:	05 2f 14 8a 04       	add    $0x48a142f,%eax
    21d2:	00 00                	add    %al,(%eax)
    21d4:	10 05 65 73 70 00    	adc    %al,0x707365
    21da:	05 32 14 1e 02       	add    $0x21e1432,%eax
    21df:	00 00                	add    %al,(%eax)
    21e1:	14 05                	adc    $0x5,%al
    21e3:	73 73                	jae    2258 <mbh-0x2fdda8>
    21e5:	00 05 33 14 1e 02    	add    %al,0x21e1433
    21eb:	00 00                	add    %al,(%eax)
    21ed:	18 00                	sbb    %al,(%eax)
    21ef:	02 2c 0b             	add    (%ebx,%ecx,1),%ch
    21f2:	00 00                	add    %al,(%eax)
    21f4:	05 35 1b 60 06       	add    $0x6601b35,%eax
    21f9:	00 00                	add    %al,(%eax)
    21fb:	10 ee                	adc    %ch,%dh
    21fd:	0b 00                	or     (%eax),%eax
    21ff:	00 3c 05 38 f1 06 00 	add    %bh,0x6f138(,%eax,1)
    2206:	00 05 67 70 72 00    	add    %al,0x727067
    220c:	05 3a 0e 36 05       	add    $0x5360e3a,%eax
    2211:	00 00                	add    %al,(%eax)
    2213:	00 0e                	add    %cl,(%esi)
    2215:	c5 06                	lds    (%esi),%eax
    2217:	00 00                	add    %al,(%eax)
    2219:	20 00                	and    %al,(%eax)
    221b:	02 22                	add    (%edx),%ah
    221d:	0b 00                	or     (%eax),%eax
    221f:	00 05 3d 1b d1 06    	add    %al,0x6d11b3d
    2225:	00 00                	add    %al,(%eax)
    2227:	11 f1                	adc    %esi,%ecx
    2229:	06                   	push   %es
    222a:	00 00                	add    %al,(%eax)
    222c:	06                   	push   %es
    222d:	08 05 46 04 88 07    	or     %al,0x7880446
    2233:	00 00                	add    %al,(%eax)
    2235:	0b 8c 0b 00 00 05 48 	or     0x48050000(%ebx,%ecx,1),%ecx
    223c:	11 5f 00             	adc    %ebx,0x0(%edi)
    223f:	00 00                	add    %al,(%eax)
    2241:	10 00                	adc    %al,(%eax)
    2243:	0b 0f                	or     (%edi),%ecx
    2245:	0c 00                	or     $0x0,%al
    2247:	00 05 49 11 5f 00    	add    %al,0x5f1149
    224d:	00 00                	add    %al,(%eax)
    224f:	10 10                	adc    %dl,(%eax)
    2251:	01 69 73             	add    %ebp,0x73(%ecx)
    2254:	74 00                	je     2256 <mbh-0x2fddaa>
    2256:	05 4a 11 5f 00       	add    $0x5f114a,%eax
    225b:	00 00                	add    %al,(%eax)
    225d:	03 20                	add    (%eax),%esp
    225f:	0b 18                	or     (%eax),%ebx
    2261:	0c 00                	or     $0x0,%al
    2263:	00 05 4b 11 5f 00    	add    %al,0x5f114b
    2269:	00 00                	add    %al,(%eax)
    226b:	05 23 0b f7 02       	add    $0x2f70b23,%eax
    2270:	00 00                	add    %al,(%eax)
    2272:	05 4c 11 5f 00       	add    $0x5f114c,%eax
    2277:	00 00                	add    %al,(%eax)
    2279:	04 28                	add    $0x28,%al
    227b:	0b 1f                	or     (%edi),%ebx
    227d:	0c 00                	or     $0x0,%al
    227f:	00 05 4d 11 5f 00    	add    %al,0x5f114d
    2285:	00 00                	add    %al,(%eax)
    2287:	01 2c 01             	add    %ebp,(%ecx,%eax,1)
    228a:	64 70 6c             	fs jo  22f9 <mbh-0x2fdd07>
    228d:	00 05 4e 11 5f 00    	add    %al,0x5f114e
    2293:	00 00                	add    %al,(%eax)
    2295:	02 2d 01 70 00 05    	add    0x5007001,%ch
    229b:	4f                   	dec    %edi
    229c:	11 5f 00             	adc    %ebx,0x0(%edi)
    229f:	00 00                	add    %al,(%eax)
    22a1:	01 2f                	add    %ebp,(%edi)
    22a3:	0b 95 0b 00 00 05    	or     0x500000b(%ebp),%edx
    22a9:	50                   	push   %eax
    22aa:	11 5f 00             	adc    %ebx,0x0(%edi)
    22ad:	00 00                	add    %al,(%eax)
    22af:	10 30                	adc    %dh,(%eax)
    22b1:	00 09                	add    %cl,(%ecx)
    22b3:	c7                   	(bad)  
    22b4:	0a 00                	or     (%eax),%al
    22b6:	00 08                	add    %cl,(%eax)
    22b8:	05 44 9f 07 00       	add    $0x79f44,%eax
    22bd:	00 03                	add    %al,(%ebx)
    22bf:	02 07                	add    (%edi),%al
    22c1:	00 00                	add    %al,(%eax)
    22c3:	03 2d 03 00 00 00    	add    0x3,%ebp
    22c9:	02 9e 0b 00 00 05    	add    0x500000b(%esi),%bl
    22cf:	56                   	push   %esi
    22d0:	1b 88 07 00 00 0f    	sbb    0xf000007(%eax),%ecx
    22d6:	04 05                	add    $0x5,%al
    22d8:	5e                   	pop    %esi
    22d9:	04 cd                	add    $0xcd,%al
    22db:	07                   	pop    %es
    22dc:	00 00                	add    %al,(%eax)
    22de:	07                   	pop    %es
    22df:	e6 05                	out    %al,$0x5
    22e1:	00 00                	add    %al,(%eax)
    22e3:	05 60 14 d1 00       	add    $0xd11460,%eax
    22e8:	00 00                	add    %al,(%eax)
    22ea:	07                   	pop    %es
    22eb:	36 0b 00             	or     %ss:(%eax),%eax
    22ee:	00 05 61 15 cd 07    	add    %al,0x7cd1561
    22f4:	00 00                	add    %al,(%eax)
    22f6:	00 11                	add    %dl,(%ecx)
    22f8:	9f                   	lahf   
    22f9:	07                   	pop    %es
    22fa:	00 00                	add    %al,(%eax)
    22fc:	10 fe                	adc    %bh,%dh
    22fe:	0a 00                	or     (%eax),%al
    2300:	00 06                	add    %al,(%esi)
    2302:	05 5b f2 07 00       	add    $0x7f25b,%eax
    2307:	00 04 f8             	add    %al,(%eax,%edi,8)
    230a:	0a 00                	or     (%eax),%al
    230c:	00 05 5d 14 39 00    	add    %al,0x39145d
    2312:	00 00                	add    %al,(%eax)
    2314:	00 0e                	add    %cl,(%esi)
    2316:	ab                   	stos   %eax,%es:(%edi)
    2317:	07                   	pop    %es
    2318:	00 00                	add    %al,(%eax)
    231a:	02 00                	add    (%eax),%al
    231c:	02 58 0a             	add    0xa(%eax),%bl
    231f:	00 00                	add    %al,(%eax)
    2321:	05 64 1b d2 07       	add    $0x7d21b64,%eax
    2326:	00 00                	add    %al,(%eax)
    2328:	0c 9f                	or     $0x9f,%al
    232a:	07                   	pop    %es
    232b:	00 00                	add    %al,(%eax)
    232d:	0e                   	push   %cs
    232e:	08 00                	or     %al,(%eax)
    2330:	00 0d 58 00 00 00    	add    %cl,0x58
    2336:	ff 00                	incl   (%eax)
    2338:	12 49 44             	adc    0x44(%ecx),%cl
    233b:	54                   	push   %esp
    233c:	00 08                	add    %cl,(%eax)
    233e:	13 fe                	adc    %esi,%edi
    2340:	07                   	pop    %es
    2341:	00 00                	add    %al,(%eax)
    2343:	05 03 00 4e 30       	add    $0x304e0003,%eax
    2348:	00 19                	add    %bl,(%ecx)
    234a:	05 0c 00 00 04       	add    $0x400000c,%eax
    234f:	77 06                	ja     2357 <mbh-0x2fdca9>
    2351:	31 08                	xor    %ecx,(%eax)
    2353:	00 00                	add    %al,(%eax)
    2355:	14 31                	adc    $0x31,%al
    2357:	08 00                	or     %al,(%eax)
    2359:	00 00                	add    %al,(%eax)
    235b:	11 d1                	adc    %edx,%ecx
    235d:	06                   	push   %es
    235e:	00 00                	add    %al,(%eax)
    2360:	1a a2 06 00 00 06    	sbb    0x6000006(%edx),%ah
    2366:	0d 0a be 00 00       	or     $0xbe0a,%eax
    236b:	00 4d 08             	add    %cl,0x8(%ebp)
    236e:	00 00                	add    %al,(%eax)
    2370:	14 4d                	adc    $0x4d,%al
    2372:	08 00                	or     %al,(%eax)
    2374:	00 15 00 11 b9 00    	add    %dl,0xb91100
    237a:	00 00                	add    %al,(%eax)
    237c:	1b 42 0b             	sbb    0xb(%edx),%eax
    237f:	00 00                	add    %al,(%eax)
    2381:	01 07                	add    %eax,(%edi)
    2383:	0d 60 08 00 00       	or     $0x860,%eax
    2388:	15 00 1c d8 0b       	adc    $0xbd81c00,%eax
    238d:	00 00                	add    %al,(%eax)
    238f:	01 1b                	add    %ebx,(%ebx)
    2391:	15 f8 3c 30 00       	adc    $0x303cf8,%eax
    2396:	e6 00                	out    %al,$0x0
    2398:	00 00                	add    %al,(%eax)
    239a:	01 9c 94 08 00 00 1d 	add    %ebx,0x1d000008(%esp,%edx,4)
    23a1:	63 74 78 00          	arpl   %si,0x0(%eax,%edi,2)
    23a5:	01 1b                	add    %ebx,(%ebx)
    23a7:	2a fd                	sub    %ch,%bh
    23a9:	06                   	push   %es
    23aa:	00 00                	add    %al,(%eax)
    23ac:	02 91 4c 13 62 0a    	add    0xa62134c(%ecx),%dl
    23b2:	00 00                	add    %al,(%eax)
    23b4:	39 0c 26             	cmp    %ecx,(%esi,%eiz,1)
    23b7:	00 00                	add    %al,(%eax)
    23b9:	00 02                	add    %al,(%edx)
    23bb:	91                   	xchg   %eax,%ecx
    23bc:	5f                   	pop    %edi
    23bd:	00 1e                	add    %bl,(%esi)
    23bf:	91                   	xchg   %eax,%ecx
    23c0:	02 00                	add    (%eax),%al
    23c2:	00 01                	add    %al,(%ecx)
    23c4:	0a 06                	or     (%esi),%al
    23c6:	31 3c 30             	xor    %edi,(%eax,%esi,1)
    23c9:	00 c7                	add    %al,%bh
    23cb:	00 00                	add    %al,(%eax)
    23cd:	00 01                	add    %al,(%ecx)
    23cf:	9c                   	pushf  
    23d0:	13 f3                	adc    %ebx,%esi
    23d2:	0a 00                	or     (%eax),%al
    23d4:	00 0c 0e             	add    %cl,(%esi,%ecx,1)
    23d7:	f2 07                	repnz pop %es
    23d9:	00 00                	add    %al,(%eax)
    23db:	02 91 6a 12 69 73    	add    0x7369126a(%ecx),%dl
    23e1:	72 00                	jb     23e3 <mbh-0x2fdc1d>
    23e3:	0d 0e d1 00 00       	or     $0xd10e,%eax
    23e8:	00 02                	add    %al,(%edx)
    23ea:	91                   	xchg   %eax,%ecx
    23eb:	74 12                	je     23ff <mbh-0x2fdc01>
    23ed:	69 00 0e 0e be 00    	imul   $0xbe0e0e,(%eax),%eax
    23f3:	00 00                	add    %al,(%eax)
    23f5:	02 91 70 1f 4a 3c    	add    0x3c4a1f70(%ecx),%dl
    23fb:	30 00                	xor    %al,(%eax)
    23fd:	85 00                	test   %eax,(%eax)
    23ff:	00 00                	add    %al,(%eax)
    2401:	13 e6                	adc    %esi,%esp
    2403:	05 00 00 14 07       	add    $0x7140000,%eax
    2408:	1e                   	push   %ds
    2409:	02 00                	add    (%eax),%al
    240b:	00 02                	add    %al,(%edx)
    240d:	91                   	xchg   %eax,%ecx
    240e:	66 00 00             	data16 add %al,(%eax)
    2411:	00 1f                	add    %bl,(%edi)
    2413:	00 00                	add    %al,(%eax)
    2415:	00 05 00 01 04 a0    	add    %al,0xa0040100
    241b:	08 00                	or     %al,(%eax)
    241d:	00 01                	add    %al,(%ecx)
    241f:	c5 06                	lds    (%esi),%eax
    2421:	00 00                	add    %al,(%eax)
    2423:	23 00                	and    (%eax),%eax
    2425:	00 00                	add    %al,(%eax)
    2427:	26 0c 00             	es or  $0x0,%al
    242a:	00 17                	add    %dl,(%edi)
    242c:	00 00                	add    %al,(%eax)
    242e:	00 2a                	add    %ch,(%edx)
    2430:	00 00                	add    %al,(%eax)
    2432:	00 01                	add    %al,(%ecx)
    2434:	80 a7 06 00 00 05 00 	andb   $0x0,0x5000006(%edi)
    243b:	01 04 b2             	add    %eax,(%edx,%esi,4)
    243e:	08 00                	or     %al,(%eax)
    2440:	00 15 18 04 00 00    	add    %dl,0x418
    2446:	1d 05 01 00 00       	sbb    $0x105,%eax
    244b:	00 00                	add    %al,(%eax)
    244d:	00 00                	add    %al,(%eax)
    244f:	f8                   	clc    
    2450:	3d 30 00 7c 01       	cmp    $0x17c0030,%eax
    2455:	00 00                	add    %al,(%eax)
    2457:	6e                   	outsb  %ds:(%esi),(%dx)
    2458:	07                   	pop    %es
    2459:	00 00                	add    %al,(%eax)
    245b:	02 e4                	add    %ah,%ah
    245d:	03 00                	add    (%eax),%eax
    245f:	00 02                	add    %al,(%edx)
    2461:	1a 20                	sbb    (%eax),%ah
    2463:	32 00                	xor    (%eax),%al
    2465:	00 00                	add    %al,(%eax)
    2467:	05 01 08 c9 01       	add    $0x1c90801,%eax
    246c:	00 00                	add    %al,(%eax)
    246e:	02 09                	add    (%ecx),%cl
    2470:	01 00                	add    %eax,(%eax)
    2472:	00 02                	add    %al,(%edx)
    2474:	1b 20                	sbb    (%eax),%esp
    2476:	45                   	inc    %ebp
    2477:	00 00                	add    %al,(%eax)
    2479:	00 05 02 07 6b 02    	add    %al,0x26b0702
    247f:	00 00                	add    %al,(%eax)
    2481:	02 92 00 00 00 02    	add    0x2000000(%edx),%dl
    2487:	1c 20                	sbb    $0x20,%al
    2489:	58                   	pop    %eax
    248a:	00 00                	add    %al,(%eax)
    248c:	00 05 04 07 0d 02    	add    %al,0x20d0704
    2492:	00 00                	add    %al,(%eax)
    2494:	05 08 07 03 02       	add    $0x2030708,%eax
    2499:	00 00                	add    %al,(%eax)
    249b:	05 01 06 cb 01       	add    $0x1cb0601,%eax
    24a0:	00 00                	add    %al,(%eax)
    24a2:	02 46 07             	add    0x7(%esi),%al
    24a5:	00 00                	add    %al,(%eax)
    24a7:	02 20                	add    (%eax),%ah
    24a9:	20 79 00             	and    %bh,0x0(%ecx)
    24ac:	00 00                	add    %al,(%eax)
    24ae:	05 02 05 9b 00       	add    $0x9b0502,%eax
    24b3:	00 00                	add    %al,(%eax)
    24b5:	02 fb                	add    %bl,%bh
    24b7:	05 00 00 02 21       	add    $0x21020000,%eax
    24bc:	20 8c 00 00 00 16 04 	and    %cl,0x4160000(%eax,%eax,1)
    24c3:	05 69 6e 74 00       	add    $0x746e69,%eax
    24c8:	05 08 05 58 01       	add    $0x1580508,%eax
    24cd:	00 00                	add    %al,(%eax)
    24cf:	0d 9f 00 00 00       	or     $0x9f,%eax
    24d4:	05 01 06 d2 01       	add    $0x1d20601,%eax
    24d9:	00 00                	add    %al,(%eax)
    24db:	17                   	pop    %ss
    24dc:	9f                   	lahf   
    24dd:	00 00                	add    %al,(%eax)
    24df:	00 02                	add    %al,(%edx)
    24e1:	a5                   	movsl  %ds:(%esi),%es:(%edi)
    24e2:	00 00                	add    %al,(%eax)
    24e4:	00 02                	add    %al,(%edx)
    24e6:	25 20 b7 00 00       	and    $0xb720,%eax
    24eb:	00 05 04 07 08 02    	add    %al,0x2080704
    24f1:	00 00                	add    %al,(%eax)
    24f3:	02 a6 07 00 00 02    	add    0x2000007(%esi),%ah
    24f9:	26 20 b7 00 00 00 07 	and    %dh,%es:0x7000000(%edi)
    2500:	02 02                	add    (%edx),%al
    2502:	4c                   	dec    %esp
    2503:	04 ee                	add    $0xee,%al
    2505:	00 00                	add    %al,(%eax)
    2507:	00 06                	add    %al,(%esi)
    2509:	eb 05                	jmp    2510 <mbh-0x2fdaf0>
    250b:	00 00                	add    %al,(%eax)
    250d:	02 4e 0f             	add    0xf(%esi),%cl
    2510:	26 00 00             	add    %al,%es:(%eax)
    2513:	00 00                	add    %al,(%eax)
    2515:	06                   	push   %es
    2516:	e5 06                	in     $0x6,%eax
    2518:	00 00                	add    %al,(%eax)
    251a:	02 4f 0f             	add    0xf(%edi),%cl
    251d:	26 00 00             	add    %al,%es:(%eax)
    2520:	00 01                	add    %al,(%ecx)
    2522:	00 08                	add    %cl,(%eax)
    2524:	23 06                	and    (%esi),%eax
    2526:	00 00                	add    %al,(%eax)
    2528:	02 02                	add    (%edx),%al
    252a:	45                   	inc    %ebp
    252b:	22 01                	and    (%ecx),%al
    252d:	00 00                	add    %al,(%eax)
    252f:	09 72 61             	or     %esi,0x61(%edx)
    2532:	77 00                	ja     2534 <mbh-0x2fdacc>
    2534:	02 47 0d             	add    0xd(%edi),%al
    2537:	39 00                	cmp    %eax,(%eax)
    2539:	00 00                	add    %al,(%eax)
    253b:	0a 30                	or     (%eax),%dh
    253d:	07                   	pop    %es
    253e:	00 00                	add    %al,(%eax)
    2540:	48                   	dec    %eax
    2541:	0d 6d 00 00 00       	or     $0x6d,%eax
    2546:	0a a9 06 00 00 49    	or     0x49000006(%ecx),%ch
    254c:	0d 22 01 00 00       	or     $0x122,%eax
    2551:	04 ca                	add    $0xca,%al
    2553:	00 00                	add    %al,(%eax)
    2555:	00 00                	add    %al,(%eax)
    2557:	0b 26                	or     (%esi),%esp
    2559:	00 00                	add    %al,(%eax)
    255b:	00 32                	add    %dh,(%edx)
    255d:	01 00                	add    %eax,(%eax)
    255f:	00 0c 58             	add    %cl,(%eax,%ebx,2)
    2562:	00 00                	add    %al,(%eax)
    2564:	00 01                	add    %al,(%ecx)
    2566:	00 02                	add    %al,(%edx)
    2568:	51                   	push   %ecx
    2569:	06                   	push   %es
    256a:	00 00                	add    %al,(%eax)
    256c:	02 53 1b             	add    0x1b(%ebx),%dl
    256f:	ee                   	out    %al,(%dx)
    2570:	00 00                	add    %al,(%eax)
    2572:	00 07                	add    %al,(%edi)
    2574:	04 02                	add    $0x2,%al
    2576:	5f                   	pop    %edi
    2577:	04 62                	add    $0x62,%al
    2579:	01 00                	add    %eax,(%eax)
    257b:	00 06                	add    %al,(%esi)
    257d:	eb 06                	jmp    2585 <mbh-0x2fda7b>
    257f:	00 00                	add    %al,(%eax)
    2581:	02 61 0f             	add    0xf(%ecx),%ah
    2584:	32 01                	xor    (%ecx),%al
    2586:	00 00                	add    %al,(%eax)
    2588:	00 06                	add    %al,(%esi)
    258a:	f2 07                	repnz pop %es
    258c:	00 00                	add    %al,(%eax)
    258e:	02 62 0f             	add    0xf(%edx),%ah
    2591:	32 01                	xor    (%ecx),%al
    2593:	00 00                	add    %al,(%eax)
    2595:	02 00                	add    (%eax),%al
    2597:	07                   	pop    %es
    2598:	02 02                	add    (%edx),%al
    259a:	6b 0a 86             	imul   $0xffffff86,(%edx),%ecx
    259d:	01 00                	add    %eax,(%eax)
    259f:	00 06                	add    %al,(%esi)
    25a1:	eb 05                	jmp    25a8 <mbh-0x2fda58>
    25a3:	00 00                	add    %al,(%eax)
    25a5:	02 6d 15             	add    0x15(%ebp),%ch
    25a8:	26 00 00             	add    %al,%es:(%eax)
    25ab:	00 00                	add    %al,(%eax)
    25ad:	06                   	push   %es
    25ae:	e5 06                	in     $0x6,%eax
    25b0:	00 00                	add    %al,(%eax)
    25b2:	02 6e 15             	add    0x15(%esi),%ch
    25b5:	26 00 00             	add    %al,%es:(%eax)
    25b8:	00 01                	add    %al,(%ecx)
    25ba:	00 18                	add    %bl,(%eax)
    25bc:	02 02                	add    (%edx),%al
    25be:	69 07 a0 01 00 00    	imul   $0x1a0,(%edi),%eax
    25c4:	04 62                	add    $0x62,%al
    25c6:	01 00                	add    %eax,(%eax)
    25c8:	00 0a                	add    %cl,(%edx)
    25ca:	ec                   	in     (%dx),%al
    25cb:	06                   	push   %es
    25cc:	00 00                	add    %al,(%eax)
    25ce:	72 13                	jb     25e3 <mbh-0x2fda1d>
    25d0:	39 00                	cmp    %eax,(%eax)
    25d2:	00 00                	add    %al,(%eax)
    25d4:	00 07                	add    %al,(%edi)
    25d6:	04 02                	add    $0x2,%al
    25d8:	67 04 bd             	addr16 add $0xbd,%al
    25db:	01 00                	add    %eax,(%eax)
    25dd:	00 11                	add    %dl,(%ecx)
    25df:	86 01                	xchg   %al,(%ecx)
    25e1:	00 00                	add    %al,(%eax)
    25e3:	00 06                	add    %al,(%esi)
    25e5:	f3 07                	repz pop %es
    25e7:	00 00                	add    %al,(%eax)
    25e9:	02 76 10             	add    0x10(%esi),%dh
    25ec:	39 00                	cmp    %eax,(%eax)
    25ee:	00 00                	add    %al,(%eax)
    25f0:	02 00                	add    (%eax),%al
    25f2:	08 0a                	or     %cl,(%edx)
    25f4:	07                   	pop    %es
    25f5:	00 00                	add    %al,(%eax)
    25f7:	04 02                	add    $0x2,%al
    25f9:	58                   	pop    %eax
    25fa:	f6 01 00             	testb  $0x0,(%ecx)
    25fd:	00 09                	add    %cl,(%ecx)
    25ff:	72 61                	jb     2662 <mbh-0x2fd99e>
    2601:	77 00                	ja     2603 <mbh-0x2fd9fd>
    2603:	02 5a 0d             	add    0xd(%edx),%bl
    2606:	4c                   	dec    %esp
    2607:	00 00                	add    %al,(%eax)
    2609:	00 0a                	add    %cl,(%edx)
    260b:	30 07                	xor    %al,(%edi)
    260d:	00 00                	add    %al,(%eax)
    260f:	5b                   	pop    %ebx
    2610:	0d 80 00 00 00       	or     $0x80,%eax
    2615:	0a a9 06 00 00 5c    	or     0x5c000006(%ecx),%ch
    261b:	0d f6 01 00 00       	or     $0x1f6,%eax
    2620:	04 3e                	add    $0x3e,%al
    2622:	01 00                	add    %eax,(%eax)
    2624:	00 04 a0             	add    %al,(%eax,%eiz,4)
    2627:	01 00                	add    %eax,(%eax)
    2629:	00 00                	add    %al,(%eax)
    262b:	0b 26                	or     (%esi),%esp
    262d:	00 00                	add    %al,(%eax)
    262f:	00 06                	add    %al,(%esi)
    2631:	02 00                	add    (%eax),%al
    2633:	00 0c 58             	add    %cl,(%eax,%ebx,2)
    2636:	00 00                	add    %al,(%eax)
    2638:	00 03                	add    %al,(%ebx)
    263a:	00 02                	add    %al,(%edx)
    263c:	74 07                	je     2645 <mbh-0x2fd9bb>
    263e:	00 00                	add    %al,(%eax)
    2640:	02 7a 1b             	add    0x1b(%edx),%bh
    2643:	bd 01 00 00 0e       	mov    $0xe000001,%ebp
    2648:	bd 0b 00 00 04       	mov    $0x400000b,%ebp
    264d:	03 26                	add    (%esi),%esp
    264f:	40                   	inc    %eax
    2650:	03 00                	add    (%eax),%eax
    2652:	00 01                	add    %al,(%ecx)
    2654:	63 66 00             	arpl   %sp,0x0(%esi)
    2657:	03 28                	add    (%eax),%ebp
    2659:	0f 4c 00             	cmovl  (%eax),%eax
    265c:	00 00                	add    %al,(%eax)
    265e:	01 00                	add    %eax,(%eax)
    2660:	01 72 31             	add    %esi,0x31(%edx)
    2663:	00 03                	add    %al,(%ebx)
    2665:	29 0f                	sub    %ecx,(%edi)
    2667:	4c                   	dec    %esp
    2668:	00 00                	add    %al,(%eax)
    266a:	00 01                	add    %al,(%ecx)
    266c:	01 01                	add    %eax,(%ecx)
    266e:	70 66                	jo     26d6 <mbh-0x2fd92a>
    2670:	00 03                	add    %al,(%ebx)
    2672:	2a 0f                	sub    (%edi),%cl
    2674:	4c                   	dec    %esp
    2675:	00 00                	add    %al,(%eax)
    2677:	00 01                	add    %al,(%ecx)
    2679:	02 01                	add    (%ecx),%al
    267b:	72 32                	jb     26af <mbh-0x2fd951>
    267d:	00 03                	add    %al,(%ebx)
    267f:	2b 0f                	sub    (%edi),%ecx
    2681:	4c                   	dec    %esp
    2682:	00 00                	add    %al,(%eax)
    2684:	00 01                	add    %al,(%ecx)
    2686:	03 01                	add    (%ecx),%eax
    2688:	61                   	popa   
    2689:	66 00 03             	data16 add %al,(%ebx)
    268c:	2c 0f                	sub    $0xf,%al
    268e:	4c                   	dec    %esp
    268f:	00 00                	add    %al,(%eax)
    2691:	00 01                	add    %al,(%ecx)
    2693:	04 01                	add    $0x1,%al
    2695:	72 33                	jb     26ca <mbh-0x2fd936>
    2697:	00 03                	add    %al,(%ebx)
    2699:	2d 0f 4c 00 00       	sub    $0x4c0f,%eax
    269e:	00 01                	add    %al,(%ecx)
    26a0:	05 01 7a 66 00       	add    $0x667a01,%eax
    26a5:	03 2e                	add    (%esi),%ebp
    26a7:	0f 4c 00             	cmovl  (%eax),%eax
    26aa:	00 00                	add    %al,(%eax)
    26ac:	01 06                	add    %eax,(%esi)
    26ae:	01 73 66             	add    %esi,0x66(%ebx)
    26b1:	00 03                	add    %al,(%ebx)
    26b3:	2f                   	das    
    26b4:	0f 4c 00             	cmovl  (%eax),%eax
    26b7:	00 00                	add    %al,(%eax)
    26b9:	01 07                	add    %eax,(%edi)
    26bb:	01 74 66 00          	add    %esi,0x0(%esi,%eiz,2)
    26bf:	03 31                	add    (%ecx),%esi
    26c1:	0f 4c 00             	cmovl  (%eax),%eax
    26c4:	00 00                	add    %al,(%eax)
    26c6:	01 08                	add    %ecx,(%eax)
    26c8:	01 69 74             	add    %ebp,0x74(%ecx)
    26cb:	00 03                	add    %al,(%ebx)
    26cd:	32 0f                	xor    (%edi),%cl
    26cf:	4c                   	dec    %esp
    26d0:	00 00                	add    %al,(%eax)
    26d2:	00 01                	add    %al,(%ecx)
    26d4:	09 01                	or     %eax,(%ecx)
    26d6:	64 66 00 03          	data16 add %al,%fs:(%ebx)
    26da:	33 0f                	xor    (%edi),%ecx
    26dc:	4c                   	dec    %esp
    26dd:	00 00                	add    %al,(%eax)
    26df:	00 01                	add    %al,(%ecx)
    26e1:	0a 01                	or     (%ecx),%al
    26e3:	6f                   	outsl  %ds:(%esi),(%dx)
    26e4:	66 00 03             	data16 add %al,(%ebx)
    26e7:	34 0f                	xor    $0xf,%al
    26e9:	4c                   	dec    %esp
    26ea:	00 00                	add    %al,(%eax)
    26ec:	00 01                	add    %al,(%ecx)
    26ee:	0b 19                	or     (%ecx),%ebx
    26f0:	00 0c 00             	add    %cl,(%eax,%eax,1)
    26f3:	00 03                	add    %al,(%ebx)
    26f5:	35 0f 4c 00 00       	xor    $0x4c0f,%eax
    26fa:	00 02                	add    %al,(%edx)
    26fc:	0c 01                	or     $0x1,%al
    26fe:	6e                   	outsb  %ds:(%esi),(%dx)
    26ff:	74 00                	je     2701 <mbh-0x2fd8ff>
    2701:	03 36                	add    (%esi),%esi
    2703:	0f 4c 00             	cmovl  (%eax),%eax
    2706:	00 00                	add    %al,(%eax)
    2708:	01 0e                	add    %ecx,(%esi)
    270a:	01 72 34             	add    %esi,0x34(%edx)
    270d:	00 03                	add    %al,(%ebx)
    270f:	37                   	aaa    
    2710:	0f 4c 00             	cmovl  (%eax),%eax
    2713:	00 00                	add    %al,(%eax)
    2715:	01 0f                	add    %ecx,(%edi)
    2717:	01 72 66             	add    %esi,0x66(%edx)
    271a:	00 03                	add    %al,(%ebx)
    271c:	39 0f                	cmp    %ecx,(%edi)
    271e:	4c                   	dec    %esp
    271f:	00 00                	add    %al,(%eax)
    2721:	00 01                	add    %al,(%ecx)
    2723:	10 01                	adc    %al,(%ecx)
    2725:	76 6d                	jbe    2794 <mbh-0x2fd86c>
    2727:	00 03                	add    %al,(%ebx)
    2729:	3a 0f                	cmp    (%edi),%cl
    272b:	4c                   	dec    %esp
    272c:	00 00                	add    %al,(%eax)
    272e:	00 01                	add    %al,(%ecx)
    2730:	11 01                	adc    %eax,(%ecx)
    2732:	61                   	popa   
    2733:	63 00                	arpl   %ax,(%eax)
    2735:	03 3b                	add    (%ebx),%edi
    2737:	0f 4c 00             	cmovl  (%eax),%eax
    273a:	00 00                	add    %al,(%eax)
    273c:	01 12                	add    %edx,(%edx)
    273e:	01 76 69             	add    %esi,0x69(%esi)
    2741:	74 00                	je     2743 <mbh-0x2fd8bd>
    2743:	03 3c 0f             	add    (%edi,%ecx,1),%edi
    2746:	4c                   	dec    %esp
    2747:	00 00                	add    %al,(%eax)
    2749:	00 01                	add    %al,(%ecx)
    274b:	13 01                	adc    (%ecx),%eax
    274d:	76 69                	jbe    27b8 <mbh-0x2fd848>
    274f:	70 00                	jo     2751 <mbh-0x2fd8af>
    2751:	03 3e                	add    (%esi),%edi
    2753:	0f 4c 00             	cmovl  (%eax),%eax
    2756:	00 00                	add    %al,(%eax)
    2758:	01 14 01             	add    %edx,(%ecx,%eax,1)
    275b:	69 64 00 03 3f 0f 4c 	imul   $0x4c0f3f,0x3(%eax,%eax,1),%esp
    2762:	00 
    2763:	00 00                	add    %al,(%eax)
    2765:	01 15 01 72 35 00    	add    %edx,0x357201
    276b:	03 40 0f             	add    0xf(%eax),%eax
    276e:	4c                   	dec    %esp
    276f:	00 00                	add    %al,(%eax)
    2771:	00 0a                	add    %cl,(%edx)
    2773:	16                   	push   %ss
    2774:	00 02                	add    %al,(%edx)
    2776:	6f                   	outsl  %ds:(%esi),(%dx)
    2777:	0b 00                	or     (%eax),%eax
    2779:	00 03                	add    %al,(%ebx)
    277b:	42                   	inc    %edx
    277c:	1b 12                	sbb    (%edx),%edx
    277e:	02 00                	add    (%eax),%al
    2780:	00 08                	add    %cl,(%eax)
    2782:	a9 0b 00 00 04       	test   $0x400000b,%eax
    2787:	03 44 63 03          	add    0x3(%ebx,%eiz,2),%eax
    278b:	00 00                	add    %al,(%eax)
    278d:	04 40                	add    $0x40,%al
    278f:	03 00                	add    (%eax),%eax
    2791:	00 04 06             	add    %al,(%esi,%eax,1)
    2794:	02 00                	add    (%eax),%al
    2796:	00 00                	add    %al,(%eax)
    2798:	02 7f 0a             	add    0xa(%edi),%bh
    279b:	00 00                	add    %al,(%eax)
    279d:	03 49 1b             	add    0x1b(%ecx),%ecx
    27a0:	4c                   	dec    %esp
    27a1:	03 00                	add    (%eax),%eax
    27a3:	00 0b                	add    %cl,(%ebx)
    27a5:	06                   	push   %es
    27a6:	02 00                	add    (%eax),%al
    27a8:	00 7f 03             	add    %bh,0x3(%edi)
    27ab:	00 00                	add    %al,(%eax)
    27ad:	0c 58                	or     $0x58,%al
    27af:	00 00                	add    %al,(%eax)
    27b1:	00 07                	add    %al,(%edi)
    27b3:	00 07                	add    %al,(%edi)
    27b5:	20 03                	and    %al,(%ebx)
    27b7:	70 04                	jo     27bd <mbh-0x2fd843>
    27b9:	f1                   	int1   
    27ba:	03 00                	add    (%eax),%eax
    27bc:	00 03                	add    %al,(%ebx)
    27be:	65 64 69 00 03 72 11 	gs imul $0x6117203,%fs:(%eax),%eax
    27c5:	06 
    27c6:	02 00                	add    (%eax),%al
    27c8:	00 00                	add    %al,(%eax)
    27ca:	03 65 73             	add    0x73(%ebp),%esp
    27cd:	69 00 03 73 11 06    	imul   $0x6117303,(%eax),%eax
    27d3:	02 00                	add    (%eax),%al
    27d5:	00 04 03             	add    %al,(%ebx,%eax,1)
    27d8:	65 62 70 00          	bound  %esi,%gs:0x0(%eax)
    27dc:	03 74 11 06          	add    0x6(%ecx,%edx,1),%esi
    27e0:	02 00                	add    (%eax),%al
    27e2:	00 08                	add    %cl,(%eax)
    27e4:	03 65 73             	add    0x73(%ebp),%esp
    27e7:	70 00                	jo     27e9 <mbh-0x2fd817>
    27e9:	03 75 11             	add    0x11(%ebp),%esi
    27ec:	06                   	push   %es
    27ed:	02 00                	add    (%eax),%al
    27ef:	00 0c 03             	add    %cl,(%ebx,%eax,1)
    27f2:	65 62 78 00          	bound  %edi,%gs:0x0(%eax)
    27f6:	03 76 11             	add    0x11(%esi),%esi
    27f9:	06                   	push   %es
    27fa:	02 00                	add    (%eax),%al
    27fc:	00 10                	add    %dl,(%eax)
    27fe:	03 65 64             	add    0x64(%ebp),%esp
    2801:	78 00                	js     2803 <mbh-0x2fd7fd>
    2803:	03 77 11             	add    0x11(%edi),%esi
    2806:	06                   	push   %es
    2807:	02 00                	add    (%eax),%al
    2809:	00 14 03             	add    %dl,(%ebx,%eax,1)
    280c:	65 63 78 00          	arpl   %di,%gs:0x0(%eax)
    2810:	03 78 11             	add    0x11(%eax),%edi
    2813:	06                   	push   %es
    2814:	02 00                	add    (%eax),%al
    2816:	00 18                	add    %bl,(%eax)
    2818:	03 65 61             	add    0x61(%ebp),%esp
    281b:	78 00                	js     281d <mbh-0x2fd7e3>
    281d:	03 79 11             	add    0x11(%ecx),%edi
    2820:	06                   	push   %es
    2821:	02 00                	add    (%eax),%al
    2823:	00 1c 00             	add    %bl,(%eax,%eax,1)
    2826:	08 a5 0a 00 00 20    	or     %ah,0x2000000a(%ebp)
    282c:	03 6e 0f             	add    0xf(%esi),%ebp
    282f:	04 00                	add    $0x0,%al
    2831:	00 04 7f             	add    %al,(%edi,%edi,2)
    2834:	03 00                	add    (%eax),%eax
    2836:	00 09                	add    %cl,(%ecx)
    2838:	72 61                	jb     289b <mbh-0x2fd765>
    283a:	77 00                	ja     283c <mbh-0x2fd7c4>
    283c:	03 7d 11             	add    0x11(%ebp),%edi
    283f:	6f                   	outsl  %ds:(%esi),(%dx)
    2840:	03 00                	add    (%eax),%eax
    2842:	00 00                	add    %al,(%eax)
    2844:	02 51 0b             	add    0xb(%ecx),%dl
    2847:	00 00                	add    %al,(%eax)
    2849:	03 7f 1b             	add    0x1b(%edi),%edi
    284c:	f1                   	int1   
    284d:	03 00                	add    (%eax),%eax
    284f:	00 07                	add    %al,(%edi)
    2851:	04 04                	add    $0x4,%al
    2853:	44                   	inc    %esp
    2854:	04 68                	add    $0x68,%al
    2856:	04 00                	add    $0x0,%al
    2858:	00 01                	add    %al,(%ecx)
    285a:	65 78 74             	gs js  28d1 <mbh-0x2fd72f>
    285d:	00 04 46             	add    %al,(%esi,%eax,2)
    2860:	12 4c 00 00          	adc    0x0(%eax,%eax,1),%cl
    2864:	00 01                	add    %al,(%ecx)
    2866:	00 01                	add    %al,(%ecx)
    2868:	69 64 74 00 04 47 12 	imul   $0x4c124704,0x0(%esp,%esi,2),%esp
    286f:	4c 
    2870:	00 00                	add    %al,(%eax)
    2872:	00 01                	add    %al,(%ecx)
    2874:	01 01                	add    %eax,(%ecx)
    2876:	74 69                	je     28e1 <mbh-0x2fd71f>
    2878:	00 04 48             	add    %al,(%eax,%ecx,2)
    287b:	12 4c 00 00          	adc    0x0(%eax,%eax,1),%cl
    287f:	00 01                	add    %al,(%ecx)
    2881:	02 01                	add    (%ecx),%al
    2883:	69 64 78 00 04 49 12 	imul   $0x4c124904,0x0(%eax,%edi,2),%esp
    288a:	4c 
    288b:	00 00                	add    %al,(%eax)
    288d:	00 0d 03 01 72 00    	add    %cl,0x720103
    2893:	04 4a                	add    $0x4a,%al
    2895:	12 4c 00 00          	adc    0x0(%eax,%eax,1),%cl
    2899:	00 10                	add    %dl,(%eax)
    289b:	10 00                	adc    %al,(%eax)
    289d:	08 5b 0b             	or     %bl,0xb(%ebx)
    28a0:	00 00                	add    %al,(%eax)
    28a2:	04 04                	add    $0x4,%al
    28a4:	42                   	inc    %edx
    28a5:	7f 04                	jg     28ab <mbh-0x2fd755>
    28a7:	00 00                	add    %al,(%eax)
    28a9:	04 1b                	add    $0x1b,%al
    28ab:	04 00                	add    $0x0,%al
    28ad:	00 04 06             	add    %al,(%esi,%eax,1)
    28b0:	02 00                	add    (%eax),%al
    28b2:	00 00                	add    %al,(%eax)
    28b4:	02 83 0b 00 00 04    	add    0x400000b(%ebx),%al
    28ba:	50                   	push   %eax
    28bb:	1b 68 04             	sbb    0x4(%eax),%ebp
    28be:	00 00                	add    %al,(%eax)
    28c0:	07                   	pop    %es
    28c1:	04 04                	add    $0x4,%al
    28c3:	57                   	push   %edi
    28c4:	04 e2                	add    $0xe2,%al
    28c6:	04 00                	add    $0x0,%al
    28c8:	00 01                	add    %al,(%ecx)
    28ca:	70 00                	jo     28cc <mbh-0x2fd734>
    28cc:	04 59                	add    $0x59,%al
    28ce:	15 4c 00 00 00       	adc    $0x4c,%eax
    28d3:	01 00                	add    %eax,(%eax)
    28d5:	01 77 72             	add    %esi,0x72(%edi)
    28d8:	00 04 5a             	add    %al,(%edx,%ebx,2)
    28db:	15 4c 00 00 00       	adc    $0x4c,%eax
    28e0:	01 01                	add    %eax,(%ecx)
    28e2:	01 75 73             	add    %esi,0x73(%ebp)
    28e5:	00 04 5b             	add    %al,(%ebx,%ebx,2)
    28e8:	15 4c 00 00 00       	adc    $0x4c,%eax
    28ed:	01 02                	add    %eax,(%edx)
    28ef:	01 72 73             	add    %esi,0x73(%edx)
    28f2:	76 00                	jbe    28f4 <mbh-0x2fd70c>
    28f4:	04 5c                	add    $0x5c,%al
    28f6:	15 4c 00 00 00       	adc    $0x4c,%eax
    28fb:	01 03                	add    %eax,(%ebx)
    28fd:	01 69 64             	add    %ebp,0x64(%ecx)
    2900:	00 04 5d 15 4c 00 00 	add    %al,0x4c15(,%ebx,2)
    2907:	00 01                	add    %al,(%ecx)
    2909:	04 01                	add    $0x1,%al
    290b:	72 00                	jb     290d <mbh-0x2fd6f3>
    290d:	04 5e                	add    $0x5e,%al
    290f:	15 4c 00 00 00       	adc    $0x4c,%eax
    2914:	1b 05 00 08 69 0a    	sbb    0xa690800,%eax
    291a:	00 00                	add    %al,(%eax)
    291c:	04 04                	add    $0x4,%al
    291e:	55                   	push   %ebp
    291f:	f9                   	stc    
    2920:	04 00                	add    $0x0,%al
    2922:	00 04 8b             	add    %al,(%ebx,%ecx,4)
    2925:	04 00                	add    $0x0,%al
    2927:	00 04 06             	add    %al,(%esi,%eax,1)
    292a:	02 00                	add    (%eax),%al
    292c:	00 00                	add    %al,(%eax)
    292e:	02 8c 0a 00 00 04 64 	add    0x64040000(%edx,%ecx,1),%cl
    2935:	1b e2                	sbb    %edx,%esp
    2937:	04 00                	add    $0x0,%al
    2939:	00 08                	add    %cl,(%eax)
    293b:	dc 0a                	fmull  (%edx)
    293d:	00 00                	add    %al,(%eax)
    293f:	04 04                	add    $0x4,%al
    2941:	69 2d 05 00 00 04 06 	imul   $0x206,0x4000005,%ebp
    2948:	02 00 00 
    294b:	09 73 6c             	or     %esi,0x6c(%ebx)
    294e:	00 04 6d 0d 7f 04 00 	add    %al,0x47f0d(,%ebp,2)
    2955:	00 09                	add    %cl,(%ecx)
    2957:	70 66                	jo     29bf <mbh-0x2fd641>
    2959:	00 04 6e             	add    %al,(%esi,%ebp,2)
    295c:	0d f9 04 00 00       	or     $0x4f9,%eax
    2961:	00 02                	add    %al,(%edx)
    2963:	95                   	xchg   %eax,%ebp
    2964:	0a 00                	or     (%eax),%al
    2966:	00 04 70             	add    %al,(%eax,%esi,2)
    2969:	1b 05 05 00 00 0e    	sbb    0xe000005,%eax
    296f:	e2 0b                	loop   297c <mbh-0x2fd684>
    2971:	00 00                	add    %al,(%eax)
    2973:	1c 05                	sbb    $0x5,%al
    2975:	29 9e 05 00 00 03    	sub    %ebx,0x3000005(%esi)
    297b:	6e                   	outsb  %ds:(%esi),(%dx)
    297c:	72 00                	jb     297e <mbh-0x2fd682>
    297e:	05 2b 14 06 02       	add    $0x206142b,%eax
    2983:	00 00                	add    %al,(%eax)
    2985:	00 03                	add    %al,(%ebx)
    2987:	65 72 72             	gs jb  29fc <mbh-0x2fd604>
    298a:	00 05 2c 14 2d 05    	add    %al,0x52d142c
    2990:	00 00                	add    %al,(%eax)
    2992:	04 03                	add    $0x3,%al
    2994:	65 69 70 00 05 2d 14 	imul   $0x6142d05,%gs:0x0(%eax),%esi
    299b:	06 
    299c:	02 00                	add    (%eax),%al
    299e:	00 08                	add    %cl,(%eax)
    29a0:	03 63 73             	add    0x73(%ebx),%esp
    29a3:	00 05 2e 14 06 02    	add    %al,0x206142e
    29a9:	00 00                	add    %al,(%eax)
    29ab:	0c 06                	or     $0x6,%al
    29ad:	3b 0b                	cmp    (%ebx),%ecx
    29af:	00 00                	add    %al,(%eax)
    29b1:	05 2f 14 63 03       	add    $0x363142f,%eax
    29b6:	00 00                	add    %al,(%eax)
    29b8:	10 03                	adc    %al,(%ebx)
    29ba:	65 73 70             	gs jae 2a2d <mbh-0x2fd5d3>
    29bd:	00 05 32 14 06 02    	add    %al,0x2061432
    29c3:	00 00                	add    %al,(%eax)
    29c5:	14 03                	adc    $0x3,%al
    29c7:	73 73                	jae    2a3c <mbh-0x2fd5c4>
    29c9:	00 05 33 14 06 02    	add    %al,0x2061433
    29cf:	00 00                	add    %al,(%eax)
    29d1:	18 00                	sbb    %al,(%eax)
    29d3:	02 2c 0b             	add    (%ebx,%ecx,1),%ch
    29d6:	00 00                	add    %al,(%eax)
    29d8:	05 35 1b 39 05       	add    $0x5391b35,%eax
    29dd:	00 00                	add    %al,(%eax)
    29df:	0e                   	push   %cs
    29e0:	ee                   	out    %al,(%dx)
    29e1:	0b 00                	or     (%eax),%eax
    29e3:	00 3c 05 38 ca 05 00 	add    %bh,0x5ca38(,%eax,1)
    29ea:	00 03                	add    %al,(%ebx)
    29ec:	67 70 72             	addr16 jo 2a61 <mbh-0x2fd59f>
    29ef:	00 05 3a 0e 0f 04    	add    %al,0x40f0e3a
    29f5:	00 00                	add    %al,(%eax)
    29f7:	00 11                	add    %dl,(%ecx)
    29f9:	9e                   	sahf   
    29fa:	05 00 00 20 00       	add    $0x200000,%eax
    29ff:	02 22                	add    (%edx),%ah
    2a01:	0b 00                	or     (%eax),%eax
    2a03:	00 05 3d 1b aa 05    	add    %al,0x5aa1b3d
    2a09:	00 00                	add    %al,(%eax)
    2a0b:	0d ca 05 00 00       	or     $0x5ca,%eax
    2a10:	0b 9a 00 00 00 eb    	or     -0x15000000(%edx),%ebx
    2a16:	05 00 00 0c 58       	add    $0x580c0000,%eax
    2a1b:	00 00                	add    %al,(%eax)
    2a1d:	00 13                	add    %dl,(%ebx)
    2a1f:	00 1a                	add    %bl,(%edx)
    2a21:	3b 0c 00             	cmp    (%eax,%eax,1),%ecx
    2a24:	00 01                	add    %al,(%ecx)
    2a26:	09 0e                	or     %ecx,(%esi)
    2a28:	db 05 00 00 05 03    	fildl  0x3050000
    2a2e:	80 49 30 00          	orb    $0x0,0x30(%ecx)
    2a32:	12 e6                	adc    %dh,%ah
    2a34:	00 00                	add    %al,(%eax)
    2a36:	00 06                	add    %al,(%esi)
    2a38:	0c 0a                	or     $0xa,%al
    2a3a:	10 06                	adc    %al,(%esi)
    2a3c:	00 00                	add    %al,(%eax)
    2a3e:	0f 10 06             	movups (%esi),%xmm0
    2a41:	00 00                	add    %al,(%eax)
    2a43:	13 00                	adc    (%eax),%eax
    2a45:	0d a6 00 00 00       	or     $0xa6,%eax
    2a4a:	12 4b 0c             	adc    0xc(%ebx),%cl
    2a4d:	00 00                	add    %al,(%eax)
    2a4f:	07                   	pop    %es
    2a50:	09 06                	or     %eax,(%esi)
    2a52:	27                   	daa    
    2a53:	06                   	push   %es
    2a54:	00 00                	add    %al,(%eax)
    2a56:	0f be 00             	movsbl (%eax),%eax
    2a59:	00 00                	add    %al,(%eax)
    2a5b:	00 1b                	add    %bl,(%ebx)
    2a5d:	a2 06 00 00 06       	mov    %al,0x6000006
    2a62:	0d 0a ab 00 00       	or     $0xab0a,%eax
    2a67:	00 3e                	add    %bh,(%esi)
    2a69:	06                   	push   %es
    2a6a:	00 00                	add    %al,(%eax)
    2a6c:	0f 10 06             	movups (%esi),%xmm0
    2a6f:	00 00                	add    %al,(%eax)
    2a71:	13 00                	adc    (%eax),%eax
    2a73:	1c 05                	sbb    $0x5,%al
    2a75:	0c 00                	or     $0x0,%al
    2a77:	00 01                	add    %al,(%ecx)
    2a79:	20 15 f8 3d 30 00    	and    %dl,0x303df8
    2a7f:	7c 01                	jl     2a82 <mbh-0x2fd57e>
    2a81:	00 00                	add    %al,(%eax)
    2a83:	01 9c 1d 63 74 78 00 	add    %ebx,0x787463(%ebp,%ebx,1)
    2a8a:	01 20                	add    %esp,(%eax)
    2a8c:	2a d6                	sub    %dh,%dl
    2a8e:	05 00 00 02 91       	add    $0x91020000,%eax
    2a93:	5c                   	pop    %esp
    2a94:	14 61                	adc    $0x61,%al
    2a96:	3e 30 00             	xor    %al,%ds:(%eax)
    2a99:	09 00                	or     %eax,(%eax)
    2a9b:	00 00                	add    %al,(%eax)
    2a9d:	79 06                	jns    2aa5 <mbh-0x2fd55b>
    2a9f:	00 00                	add    %al,(%eax)
    2aa1:	10 78 00             	adc    %bh,0x0(%eax)
    2aa4:	2c 07                	sub    $0x7,%al
    2aa6:	4c                   	dec    %esp
    2aa7:	00 00                	add    %al,(%eax)
    2aa9:	00 02                	add    %al,(%edx)
    2aab:	91                   	xchg   %eax,%ecx
    2aac:	6c                   	insb   (%dx),%es:(%edi)
    2aad:	00 14 17             	add    %dl,(%edi,%edx,1)
    2ab0:	3f                   	aas    
    2ab1:	30 00                	xor    %al,(%eax)
    2ab3:	09 00                	or     %eax,(%eax)
    2ab5:	00 00                	add    %al,(%eax)
    2ab7:	93                   	xchg   %eax,%ebx
    2ab8:	06                   	push   %es
    2ab9:	00 00                	add    %al,(%eax)
    2abb:	10 78 00             	adc    %bh,0x0(%eax)
    2abe:	3d 04 4c 00 00       	cmp    $0x4c04,%eax
    2ac3:	00 02                	add    %al,(%edx)
    2ac5:	91                   	xchg   %eax,%ecx
    2ac6:	68 00 1e 31 3f       	push   $0x3f311e00
    2acb:	30 00                	xor    %al,(%eax)
    2acd:	09 00                	or     %eax,(%eax)
    2acf:	00 00                	add    %al,(%eax)
    2ad1:	10 78 00             	adc    %bh,0x0(%eax)
    2ad4:	3e 04 4c             	ds add $0x4c,%al
    2ad7:	00 00                	add    %al,(%eax)
    2ad9:	00 02                	add    %al,(%edx)
    2adb:	91                   	xchg   %eax,%ecx
    2adc:	64 00 00             	add    %al,%fs:(%eax)
    2adf:	00 ef                	add    %ch,%bh
    2ae1:	00 00                	add    %al,(%eax)
    2ae3:	00 05 00 01 04 60    	add    %al,0x60040100
    2ae9:	0a 00                	or     (%eax),%al
    2aeb:	00 05 18 04 00 00    	add    %al,0x418
    2af1:	1d 23 01 00 00       	sbb    $0x123,%eax
    2af6:	00 00                	add    %al,(%eax)
    2af8:	00 00                	add    %al,(%eax)
    2afa:	74 3f                	je     2b3b <mbh-0x2fd4c5>
    2afc:	30 00                	xor    %al,(%eax)
    2afe:	56                   	push   %esi
    2aff:	00 00                	add    %al,(%eax)
    2b01:	00 03                	add    %al,(%ebx)
    2b03:	08 00                	or     %al,(%eax)
    2b05:	00 01                	add    %al,(%ecx)
    2b07:	01 08                	add    %ecx,(%eax)
    2b09:	c9                   	leave  
    2b0a:	01 00                	add    %eax,(%eax)
    2b0c:	00 01                	add    %al,(%ecx)
    2b0e:	02 07                	add    (%edi),%al
    2b10:	6b 02 00             	imul   $0x0,(%edx),%eax
    2b13:	00 01                	add    %al,(%ecx)
    2b15:	04 07                	add    $0x7,%al
    2b17:	0d 02 00 00 01       	or     $0x1000002,%eax
    2b1c:	08 07                	or     %al,(%edi)
    2b1e:	03 02                	add    (%edx),%eax
    2b20:	00 00                	add    %al,(%eax)
    2b22:	01 01                	add    %eax,(%ecx)
    2b24:	06                   	push   %es
    2b25:	cb                   	lret   
    2b26:	01 00                	add    %eax,(%eax)
    2b28:	00 01                	add    %al,(%ecx)
    2b2a:	02 05 9b 00 00 00    	add    0x9b,%al
    2b30:	06                   	push   %es
    2b31:	04 05                	add    $0x5,%al
    2b33:	69 6e 74 00 01 08 05 	imul   $0x5080100,0x74(%esi),%ebp
    2b3a:	58                   	pop    %eax
    2b3b:	01 00                	add    %eax,(%eax)
    2b3d:	00 01                	add    %al,(%ecx)
    2b3f:	01 06                	add    %eax,(%esi)
    2b41:	d2 01                	rolb   %cl,(%ecx)
    2b43:	00 00                	add    %al,(%eax)
    2b45:	07                   	pop    %es
    2b46:	5e                   	pop    %esi
    2b47:	00 00                	add    %al,(%eax)
    2b49:	00 02                	add    %al,(%edx)
    2b4b:	a5                   	movsl  %ds:(%esi),%es:(%edi)
    2b4c:	00 00                	add    %al,(%eax)
    2b4e:	00 25 74 00 00 00    	add    %ah,0x74
    2b54:	01 04 07             	add    %eax,(%edi,%eax,1)
    2b57:	08 02                	or     %al,(%edx)
    2b59:	00 00                	add    %al,(%eax)
    2b5b:	02 a6 07 00 00 26    	add    0x26000007(%esi),%ah
    2b61:	74 00                	je     2b63 <mbh-0x2fd49d>
    2b63:	00 00                	add    %al,(%eax)
    2b65:	08 57 0c             	or     %dl,0xc(%edi)
    2b68:	00 00                	add    %al,(%eax)
    2b6a:	01 06                	add    %eax,(%esi)
    2b6c:	11 7b 00             	adc    %edi,0x0(%ebx)
    2b6f:	00 00                	add    %al,(%eax)
    2b71:	09 a2 06 00 00 03    	or     %esp,0x3000006(%edx)
    2b77:	0d 0a 6a 00 00       	or     $0x6a0a,%eax
    2b7c:	00 a8 00 00 00 0a    	add    %ch,0xa000000(%eax)
    2b82:	a8 00                	test   $0x0,%al
    2b84:	00 00                	add    %al,(%eax)
    2b86:	0b 00                	or     (%eax),%eax
    2b88:	03 65 00             	add    0x0(%ebp),%esp
    2b8b:	00 00                	add    %al,(%eax)
    2b8d:	0c 4b                	or     $0x4b,%al
    2b8f:	0c 00                	or     $0x0,%al
    2b91:	00 01                	add    %al,(%ecx)
    2b93:	08 06                	or     %al,(%esi)
    2b95:	74 3f                	je     2bd6 <mbh-0x2fd42a>
    2b97:	30 00                	xor    %al,(%eax)
    2b99:	56                   	push   %esi
    2b9a:	00 00                	add    %al,(%eax)
    2b9c:	00 01                	add    %al,(%ecx)
    2b9e:	9c                   	pushf  
    2b9f:	ed                   	in     (%dx),%eax
    2ba0:	00 00                	add    %al,(%eax)
    2ba2:	00 0d 68 0c 00 00    	add    %cl,0xc68
    2ba8:	01 08                	add    %ecx,(%eax)
    2baa:	1b 7b 00             	sbb    0x0(%ebx),%edi
    2bad:	00 00                	add    %al,(%eax)
    2baf:	02 91 00 04 65 62    	add    0x62650400(%ecx),%dl
    2bb5:	70 00                	jo     2bb7 <mbh-0x2fd449>
    2bb7:	0e                   	push   %cs
    2bb8:	ed                   	in     (%dx),%eax
    2bb9:	00 00                	add    %al,(%eax)
    2bbb:	00 02                	add    %al,(%edx)
    2bbd:	91                   	xchg   %eax,%ecx
    2bbe:	6c                   	insb   (%dx),%es:(%edi)
    2bbf:	04 65                	add    $0x65,%al
    2bc1:	69 70 00 14 ed 00 00 	imul   $0xed14,0x0(%eax),%esi
    2bc8:	00 02                	add    %al,(%edx)
    2bca:	91                   	xchg   %eax,%ecx
    2bcb:	68 00 03 7b 00       	push   $0x7b0300
    2bd0:	00 00                	add    %al,(%eax)
    2bd2:	00 b1 04 00 00 05    	add    %dh,0x5000004(%ecx)
    2bd8:	00 01                	add    %al,(%ecx)
    2bda:	04 21                	add    $0x21,%al
    2bdc:	0b 00                	or     (%eax),%eax
    2bde:	00 11                	add    %dl,(%ecx)
    2be0:	18 04 00             	sbb    %al,(%eax,%eax,1)
    2be3:	00 1d 3a 01 00 00    	add    %bl,0x13a
    2be9:	00 00                	add    %al,(%eax)
    2beb:	00 00                	add    %al,(%eax)
    2bed:	ca 3f 30             	lret   $0x303f
    2bf0:	00 0b                	add    %cl,(%ebx)
    2bf2:	01 00                	add    %eax,(%eax)
    2bf4:	00 83 08 00 00 01    	add    %al,0x1000008(%ebx)
    2bfa:	e4 03                	in     $0x3,%al
    2bfc:	00 00                	add    %al,(%eax)
    2bfe:	02 1a                	add    (%edx),%bl
    2c00:	20 32                	and    %dh,(%edx)
    2c02:	00 00                	add    %al,(%eax)
    2c04:	00 05 01 08 c9 01    	add    %al,0x1c90801
    2c0a:	00 00                	add    %al,(%eax)
    2c0c:	01 09                	add    %ecx,(%ecx)
    2c0e:	01 00                	add    %eax,(%eax)
    2c10:	00 02                	add    %al,(%edx)
    2c12:	1b 20                	sbb    (%eax),%esp
    2c14:	45                   	inc    %ebp
    2c15:	00 00                	add    %al,(%eax)
    2c17:	00 05 02 07 6b 02    	add    %al,0x26b0702
    2c1d:	00 00                	add    %al,(%eax)
    2c1f:	01 92 00 00 00 02    	add    %edx,0x2000000(%edx)
    2c25:	1c 20                	sbb    $0x20,%al
    2c27:	58                   	pop    %eax
    2c28:	00 00                	add    %al,(%eax)
    2c2a:	00 05 04 07 0d 02    	add    %al,0x20d0704
    2c30:	00 00                	add    %al,(%eax)
    2c32:	01 88 02 00 00 02    	add    %ecx,0x2000002(%eax)
    2c38:	1d 20 6b 00 00       	sbb    $0x6b20,%eax
    2c3d:	00 05 08 07 03 02    	add    %al,0x2030708
    2c43:	00 00                	add    %al,(%eax)
    2c45:	05 01 06 cb 01       	add    $0x1cb0601,%eax
    2c4a:	00 00                	add    %al,(%eax)
    2c4c:	01 46 07             	add    %eax,0x7(%esi)
    2c4f:	00 00                	add    %al,(%eax)
    2c51:	02 20                	add    (%eax),%ah
    2c53:	20 85 00 00 00 05    	and    %al,0x5000000(%ebp)
    2c59:	02 05 9b 00 00 00    	add    0x9b,%al
    2c5f:	01 fb                	add    %edi,%ebx
    2c61:	05 00 00 02 21       	add    $0x21020000,%eax
    2c66:	20 98 00 00 00 12    	and    %bl,0x12000000(%eax)
    2c6c:	04 05                	add    $0x5,%al
    2c6e:	69 6e 74 00 01 dc 06 	imul   $0x6dc0100,0x74(%esi),%ebp
    2c75:	00 00                	add    %al,(%eax)
    2c77:	02 22                	add    (%edx),%ah
    2c79:	20 ab 00 00 00 05    	and    %ch,0x5000000(%ebx)
    2c7f:	08 05 58 01 00 00    	or     %al,0x158
    2c85:	05 01 06 d2 01       	add    $0x1d20601,%eax
    2c8a:	00 00                	add    %al,(%eax)
    2c8c:	13 b2 00 00 00 01    	adc    0x1000000(%edx),%esi
    2c92:	a5                   	movsl  %ds:(%esi),%es:(%edi)
    2c93:	00 00                	add    %al,(%eax)
    2c95:	00 02                	add    %al,(%edx)
    2c97:	25 20 ca 00 00       	and    $0xca20,%eax
    2c9c:	00 05 04 07 08 02    	add    %al,0x2080704
    2ca2:	00 00                	add    %al,(%eax)
    2ca4:	01 a6 07 00 00 02    	add    %esp,0x2000007(%esi)
    2caa:	26 20 ca             	es and %cl,%dl
    2cad:	00 00                	add    %al,(%eax)
    2caf:	00 06                	add    %al,(%esi)
    2cb1:	02 02                	add    (%edx),%al
    2cb3:	4c                   	dec    %esp
    2cb4:	04 01                	add    $0x1,%al
    2cb6:	01 00                	add    %eax,(%eax)
    2cb8:	00 02                	add    %al,(%edx)
    2cba:	eb 05                	jmp    2cc1 <mbh-0x2fd33f>
    2cbc:	00 00                	add    %al,(%eax)
    2cbe:	02 4e 0f             	add    0xf(%esi),%cl
    2cc1:	26 00 00             	add    %al,%es:(%eax)
    2cc4:	00 00                	add    %al,(%eax)
    2cc6:	02 e5                	add    %ch,%ah
    2cc8:	06                   	push   %es
    2cc9:	00 00                	add    %al,(%eax)
    2ccb:	02 4f 0f             	add    0xf(%edi),%cl
    2cce:	26 00 00             	add    %al,%es:(%eax)
    2cd1:	00 01                	add    %al,(%ecx)
    2cd3:	00 08                	add    %cl,(%eax)
    2cd5:	23 06                	and    (%esi),%eax
    2cd7:	00 00                	add    %al,(%eax)
    2cd9:	02 02                	add    (%edx),%al
    2cdb:	45                   	inc    %ebp
    2cdc:	36 01 00             	add    %eax,%ss:(%eax)
    2cdf:	00 09                	add    %cl,(%ecx)
    2ce1:	72 61                	jb     2d44 <mbh-0x2fd2bc>
    2ce3:	77 00                	ja     2ce5 <mbh-0x2fd31b>
    2ce5:	47                   	inc    %edi
    2ce6:	0d 39 00 00 00       	or     $0x39,%eax
    2ceb:	03 30                	add    (%eax),%esi
    2ced:	07                   	pop    %es
    2cee:	00 00                	add    %al,(%eax)
    2cf0:	02 48 0d             	add    0xd(%eax),%cl
    2cf3:	79 00                	jns    2cf5 <mbh-0x2fd30b>
    2cf5:	00 00                	add    %al,(%eax)
    2cf7:	03 a9 06 00 00 02    	add    0x2000006(%ecx),%ebp
    2cfd:	49                   	dec    %ecx
    2cfe:	0d 36 01 00 00       	or     $0x136,%eax
    2d03:	04 dd                	add    $0xdd,%al
    2d05:	00 00                	add    %al,(%eax)
    2d07:	00 00                	add    %al,(%eax)
    2d09:	0c 26                	or     $0x26,%al
    2d0b:	00 00                	add    %al,(%eax)
    2d0d:	00 46 01             	add    %al,0x1(%esi)
    2d10:	00 00                	add    %al,(%eax)
    2d12:	0d 58 00 00 00       	or     $0x58,%eax
    2d17:	01 00                	add    %eax,(%eax)
    2d19:	01 51 06             	add    %edx,0x6(%ecx)
    2d1c:	00 00                	add    %al,(%eax)
    2d1e:	02 53 1b             	add    0x1b(%ebx),%dl
    2d21:	01 01                	add    %eax,(%ecx)
    2d23:	00 00                	add    %al,(%eax)
    2d25:	06                   	push   %es
    2d26:	04 02                	add    $0x2,%al
    2d28:	5f                   	pop    %edi
    2d29:	04 76                	add    $0x76,%al
    2d2b:	01 00                	add    %eax,(%eax)
    2d2d:	00 02                	add    %al,(%edx)
    2d2f:	eb 06                	jmp    2d37 <mbh-0x2fd2c9>
    2d31:	00 00                	add    %al,(%eax)
    2d33:	02 61 0f             	add    0xf(%ecx),%ah
    2d36:	46                   	inc    %esi
    2d37:	01 00                	add    %eax,(%eax)
    2d39:	00 00                	add    %al,(%eax)
    2d3b:	02 f2                	add    %dl,%dh
    2d3d:	07                   	pop    %es
    2d3e:	00 00                	add    %al,(%eax)
    2d40:	02 62 0f             	add    0xf(%edx),%ah
    2d43:	46                   	inc    %esi
    2d44:	01 00                	add    %eax,(%eax)
    2d46:	00 02                	add    %al,(%edx)
    2d48:	00 06                	add    %al,(%esi)
    2d4a:	02 02                	add    (%edx),%al
    2d4c:	6b 0a 9a             	imul   $0xffffff9a,(%edx),%ecx
    2d4f:	01 00                	add    %eax,(%eax)
    2d51:	00 02                	add    %al,(%edx)
    2d53:	eb 05                	jmp    2d5a <mbh-0x2fd2a6>
    2d55:	00 00                	add    %al,(%eax)
    2d57:	02 6d 15             	add    0x15(%ebp),%ch
    2d5a:	26 00 00             	add    %al,%es:(%eax)
    2d5d:	00 00                	add    %al,(%eax)
    2d5f:	02 e5                	add    %ch,%ah
    2d61:	06                   	push   %es
    2d62:	00 00                	add    %al,(%eax)
    2d64:	02 6e 15             	add    0x15(%esi),%ch
    2d67:	26 00 00             	add    %al,%es:(%eax)
    2d6a:	00 01                	add    %al,(%ecx)
    2d6c:	00 0a                	add    %cl,(%edx)
    2d6e:	02 02                	add    (%edx),%al
    2d70:	69 07 b5 01 00 00    	imul   $0x1b5,(%edi),%eax
    2d76:	04 76                	add    $0x76,%al
    2d78:	01 00                	add    %eax,(%eax)
    2d7a:	00 03                	add    %al,(%ebx)
    2d7c:	ec                   	in     (%dx),%al
    2d7d:	06                   	push   %es
    2d7e:	00 00                	add    %al,(%eax)
    2d80:	02 72 13             	add    0x13(%edx),%dh
    2d83:	39 00                	cmp    %eax,(%eax)
    2d85:	00 00                	add    %al,(%eax)
    2d87:	00 06                	add    %al,(%esi)
    2d89:	04 02                	add    $0x2,%al
    2d8b:	67 04 d2             	addr16 add $0xd2,%al
    2d8e:	01 00                	add    %eax,(%eax)
    2d90:	00 0b                	add    %cl,(%ebx)
    2d92:	9a 01 00 00 00 02 f3 	lcall  $0xf302,$0x1
    2d99:	07                   	pop    %es
    2d9a:	00 00                	add    %al,(%eax)
    2d9c:	02 76 10             	add    0x10(%esi),%dh
    2d9f:	39 00                	cmp    %eax,(%eax)
    2da1:	00 00                	add    %al,(%eax)
    2da3:	02 00                	add    (%eax),%al
    2da5:	08 0a                	or     %cl,(%edx)
    2da7:	07                   	pop    %es
    2da8:	00 00                	add    %al,(%eax)
    2daa:	04 02                	add    $0x2,%al
    2dac:	58                   	pop    %eax
    2dad:	0c 02                	or     $0x2,%al
    2daf:	00 00                	add    %al,(%eax)
    2db1:	09 72 61             	or     %esi,0x61(%edx)
    2db4:	77 00                	ja     2db6 <mbh-0x2fd24a>
    2db6:	5a                   	pop    %edx
    2db7:	0d 4c 00 00 00       	or     $0x4c,%eax
    2dbc:	03 30                	add    (%eax),%esi
    2dbe:	07                   	pop    %es
    2dbf:	00 00                	add    %al,(%eax)
    2dc1:	02 5b 0d             	add    0xd(%ebx),%bl
    2dc4:	8c 00                	mov    %es,(%eax)
    2dc6:	00 00                	add    %al,(%eax)
    2dc8:	03 a9 06 00 00 02    	add    0x2000006(%ecx),%ebp
    2dce:	5c                   	pop    %esp
    2dcf:	0d 0c 02 00 00       	or     $0x20c,%eax
    2dd4:	04 52                	add    $0x52,%al
    2dd6:	01 00                	add    %eax,(%eax)
    2dd8:	00 04 b5 01 00 00 00 	add    %al,0x1(,%esi,4)
    2ddf:	0c 26                	or     $0x26,%al
    2de1:	00 00                	add    %al,(%eax)
    2de3:	00 1c 02             	add    %bl,(%edx,%eax,1)
    2de6:	00 00                	add    %al,(%eax)
    2de8:	0d 58 00 00 00       	or     $0x58,%eax
    2ded:	03 00                	add    (%eax),%eax
    2def:	01 74 07 00          	add    %esi,0x0(%edi,%eax,1)
    2df3:	00 02                	add    %al,(%edx)
    2df5:	7a 1b                	jp     2e12 <mbh-0x2fd1ee>
    2df7:	d2 01                	rolb   %cl,(%ecx)
    2df9:	00 00                	add    %al,(%eax)
    2dfb:	06                   	push   %es
    2dfc:	08 02                	or     %al,(%edx)
    2dfe:	86 04 4c             	xchg   %al,(%esp,%ecx,2)
    2e01:	02 00                	add    (%eax),%al
    2e03:	00 02                	add    %al,(%edx)
    2e05:	d7                   	xlat   %ds:(%ebx)
    2e06:	06                   	push   %es
    2e07:	00 00                	add    %al,(%eax)
    2e09:	02 88 0f 1c 02 00    	add    0x21c0f(%eax),%cl
    2e0f:	00 00                	add    %al,(%eax)
    2e11:	02 2a                	add    (%edx),%ch
    2e13:	07                   	pop    %es
    2e14:	00 00                	add    %al,(%eax)
    2e16:	02 89 0f 1c 02 00    	add    0x21c0f(%ecx),%cl
    2e1c:	00 04 00             	add    %al,(%eax,%eax,1)
    2e1f:	06                   	push   %es
    2e20:	02 02                	add    (%edx),%al
    2e22:	96                   	xchg   %eax,%esi
    2e23:	10 70 02             	adc    %dh,0x2(%eax)
    2e26:	00 00                	add    %al,(%eax)
    2e28:	02 eb                	add    %bl,%ch
    2e2a:	05 00 00 02 98       	add    $0x98020000,%eax
    2e2f:	1b 26                	sbb    (%esi),%esp
    2e31:	00 00                	add    %al,(%eax)
    2e33:	00 00                	add    %al,(%eax)
    2e35:	02 e5                	add    %ch,%ah
    2e37:	06                   	push   %es
    2e38:	00 00                	add    %al,(%eax)
    2e3a:	02 99 1b 26 00 00    	add    0x261b(%ecx),%bl
    2e40:	00 01                	add    %al,(%ecx)
    2e42:	00 0a                	add    %cl,(%edx)
    2e44:	02 02                	add    (%edx),%al
    2e46:	94                   	xchg   %eax,%esp
    2e47:	0d 8b 02 00 00       	or     $0x28b,%eax
    2e4c:	04 4c                	add    $0x4c,%al
    2e4e:	02 00                	add    (%eax),%al
    2e50:	00 03                	add    %al,(%ebx)
    2e52:	ec                   	in     (%dx),%al
    2e53:	06                   	push   %es
    2e54:	00 00                	add    %al,(%eax)
    2e56:	02 9d 19 39 00 00    	add    0x3919(%ebp),%bl
    2e5c:	00 00                	add    %al,(%eax)
    2e5e:	06                   	push   %es
    2e5f:	04 02                	add    $0x2,%al
    2e61:	92                   	xchg   %eax,%edx
    2e62:	0a a8 02 00 00 0b    	or     0xb000002(%eax),%ch
    2e68:	70 02                	jo     2e6c <mbh-0x2fd194>
    2e6a:	00 00                	add    %al,(%eax)
    2e6c:	00 02                	add    %al,(%edx)
    2e6e:	f3 07                	repz pop %es
    2e70:	00 00                	add    %al,(%eax)
    2e72:	02 a1 16 39 00 00    	add    0x3916(%ecx),%ah
    2e78:	00 02                	add    %al,(%edx)
    2e7a:	00 0a                	add    %cl,(%edx)
    2e7c:	04 02                	add    $0x2,%al
    2e7e:	90                   	nop
    2e7f:	07                   	pop    %es
    2e80:	c2 02 00             	ret    $0x2
    2e83:	00 04 8b             	add    %al,(%ebx,%ecx,4)
    2e86:	02 00                	add    (%eax),%al
    2e88:	00 09                	add    %cl,(%ecx)
    2e8a:	6c                   	insb   (%dx),%es:(%edi)
    2e8b:	6f                   	outsl  %ds:(%esi),(%dx)
    2e8c:	77 00                	ja     2e8e <mbh-0x2fd172>
    2e8e:	a5                   	movsl  %ds:(%esi),%es:(%edi)
    2e8f:	14 4c                	adc    $0x4c,%al
    2e91:	00 00                	add    %al,(%eax)
    2e93:	00 00                	add    %al,(%eax)
    2e95:	06                   	push   %es
    2e96:	08 02                	or     %al,(%edx)
    2e98:	8e 04 df             	mov    (%edi,%ebx,8),%es
    2e9b:	02 00                	add    (%eax),%al
    2e9d:	00 0b                	add    %cl,(%ebx)
    2e9f:	a8 02                	test   $0x2,%al
    2ea1:	00 00                	add    %al,(%eax)
    2ea3:	00 02                	add    %al,(%edx)
    2ea5:	2b 07                	sub    (%edi),%eax
    2ea7:	00 00                	add    %al,(%eax)
    2ea9:	02 a9 11 4c 00 00    	add    0x4c11(%ecx),%ch
    2eaf:	00 04 00             	add    %al,(%eax,%eax,1)
    2eb2:	08 72 06             	or     %dh,0x6(%edx)
    2eb5:	00 00                	add    %al,(%eax)
    2eb7:	08 02                	or     %al,(%edx)
    2eb9:	7f 19                	jg     2ed4 <mbh-0x2fd12c>
    2ebb:	03 00                	add    (%eax),%eax
    2ebd:	00 09                	add    %cl,(%ecx)
    2ebf:	72 61                	jb     2f22 <mbh-0x2fd0de>
    2ec1:	77 00                	ja     2ec3 <mbh-0x2fd13d>
    2ec3:	81 0d 5f 00 00 00 03 	orl    $0x73003,0x5f
    2eca:	30 07 00 
    2ecd:	00 02                	add    %al,(%edx)
    2ecf:	82 0d 9f 00 00 00 03 	orb    $0x3,0x9f
    2ed6:	a9 06 00 00 02       	test   $0x2000006,%eax
    2edb:	83 0d 19 03 00 00 04 	orl    $0x4,0x319
    2ee2:	28 02                	sub    %al,(%edx)
    2ee4:	00 00                	add    %al,(%eax)
    2ee6:	04 c2                	add    $0xc2,%al
    2ee8:	02 00                	add    (%eax),%al
    2eea:	00 00                	add    %al,(%eax)
    2eec:	0c 26                	or     $0x26,%al
    2eee:	00 00                	add    %al,(%eax)
    2ef0:	00 29                	add    %ch,(%ecx)
    2ef2:	03 00                	add    (%eax),%eax
    2ef4:	00 0d 58 00 00 00    	add    %cl,0x58
    2efa:	07                   	pop    %es
    2efb:	00 01                	add    %al,(%ecx)
    2efd:	07                   	pop    %es
    2efe:	08 00                	or     %al,(%eax)
    2f00:	00 02                	add    %al,(%edx)
    2f02:	ad                   	lods   %ds:(%esi),%eax
    2f03:	1b df                	sbb    %edi,%ebx
    2f05:	02 00                	add    (%eax),%al
    2f07:	00 06                	add    %al,(%esi)
    2f09:	08 03                	or     %al,(%ebx)
    2f0b:	46                   	inc    %esi
    2f0c:	04 a9                	add    $0xa9,%al
    2f0e:	03 00                	add    (%eax),%eax
    2f10:	00 07                	add    %al,(%edi)
    2f12:	8c 0b                	mov    %cs,(%ebx)
    2f14:	00 00                	add    %al,(%eax)
    2f16:	48                   	dec    %eax
    2f17:	5f                   	pop    %edi
    2f18:	00 00                	add    %al,(%eax)
    2f1a:	00 10                	add    %dl,(%eax)
    2f1c:	00 07                	add    %al,(%edi)
    2f1e:	0f 0c                	(bad)  
    2f20:	00 00                	add    %al,(%eax)
    2f22:	49                   	dec    %ecx
    2f23:	5f                   	pop    %edi
    2f24:	00 00                	add    %al,(%eax)
    2f26:	00 10                	add    %dl,(%eax)
    2f28:	10 0e                	adc    %cl,(%esi)
    2f2a:	69 73 74 00 4a 5f 00 	imul   $0x5f4a00,0x74(%ebx),%esi
    2f31:	00 00                	add    %al,(%eax)
    2f33:	03 20                	add    (%eax),%esp
    2f35:	07                   	pop    %es
    2f36:	18 0c 00             	sbb    %cl,(%eax,%eax,1)
    2f39:	00 4b 5f             	add    %cl,0x5f(%ebx)
    2f3c:	00 00                	add    %al,(%eax)
    2f3e:	00 05 23 07 f7 02    	add    %al,0x2f70723
    2f44:	00 00                	add    %al,(%eax)
    2f46:	4c                   	dec    %esp
    2f47:	5f                   	pop    %edi
    2f48:	00 00                	add    %al,(%eax)
    2f4a:	00 04 28             	add    %al,(%eax,%ebp,1)
    2f4d:	07                   	pop    %es
    2f4e:	1f                   	pop    %ds
    2f4f:	0c 00                	or     $0x0,%al
    2f51:	00 4d 5f             	add    %cl,0x5f(%ebp)
    2f54:	00 00                	add    %al,(%eax)
    2f56:	00 01                	add    %al,(%ecx)
    2f58:	2c 0e                	sub    $0xe,%al
    2f5a:	64 70 6c             	fs jo  2fc9 <mbh-0x2fd037>
    2f5d:	00 4e 5f             	add    %cl,0x5f(%esi)
    2f60:	00 00                	add    %al,(%eax)
    2f62:	00 02                	add    %al,(%edx)
    2f64:	2d 0e 70 00 4f       	sub    $0x4f00700e,%eax
    2f69:	5f                   	pop    %edi
    2f6a:	00 00                	add    %al,(%eax)
    2f6c:	00 01                	add    %al,(%ecx)
    2f6e:	2f                   	das    
    2f6f:	07                   	pop    %es
    2f70:	95                   	xchg   %eax,%ebp
    2f71:	0b 00                	or     (%eax),%eax
    2f73:	00 50 5f             	add    %dl,0x5f(%eax)
    2f76:	00 00                	add    %al,(%eax)
    2f78:	00 10                	add    %dl,(%eax)
    2f7a:	30 00                	xor    %al,(%eax)
    2f7c:	08 c7                	or     %al,%bh
    2f7e:	0a 00                	or     (%eax),%al
    2f80:	00 08                	add    %cl,(%eax)
    2f82:	03 44 c0 03          	add    0x3(%eax,%eax,8),%eax
    2f86:	00 00                	add    %al,(%eax)
    2f88:	04 35                	add    $0x35,%al
    2f8a:	03 00                	add    (%eax),%eax
    2f8c:	00 04 29             	add    %al,(%ecx,%ebp,1)
    2f8f:	03 00                	add    (%eax),%eax
    2f91:	00 00                	add    %al,(%eax)
    2f93:	01 9e 0b 00 00 03    	add    %ebx,0x300000b(%esi)
    2f99:	56                   	push   %esi
    2f9a:	1b a9 03 00 00 0a    	sbb    0xa000003(%ecx),%ebp
    2fa0:	04 03                	add    $0x3,%al
    2fa2:	5e                   	pop    %esi
    2fa3:	04 ee                	add    $0xee,%al
    2fa5:	03 00                	add    (%eax),%eax
    2fa7:	00 03                	add    %al,(%ebx)
    2fa9:	e6 05                	out    %al,$0x5
    2fab:	00 00                	add    %al,(%eax)
    2fad:	03 60 14             	add    0x14(%eax),%esp
    2fb0:	d1 00                	roll   (%eax)
    2fb2:	00 00                	add    %al,(%eax)
    2fb4:	03 36                	add    (%esi),%esi
    2fb6:	0b 00                	or     (%eax),%eax
    2fb8:	00 03                	add    %al,(%ebx)
    2fba:	61                   	popa   
    2fbb:	15 ee 03 00 00       	adc    $0x3ee,%eax
    2fc0:	00 10                	add    %dl,(%eax)
    2fc2:	c0 03 00             	rolb   $0x0,(%ebx)
    2fc5:	00 14 fe             	add    %dl,(%esi,%edi,8)
    2fc8:	0a 00                	or     (%eax),%al
    2fca:	00 06                	add    %al,(%esi)
    2fcc:	03 5b 10             	add    0x10(%ebx),%ebx
    2fcf:	14 04                	adc    $0x4,%al
    2fd1:	00 00                	add    %al,(%eax)
    2fd3:	02 f8                	add    %al,%bh
    2fd5:	0a 00                	or     (%eax),%al
    2fd7:	00 03                	add    %al,(%ebx)
    2fd9:	5d                   	pop    %ebp
    2fda:	14 39                	adc    $0x39,%al
    2fdc:	00 00                	add    %al,(%eax)
    2fde:	00 00                	add    %al,(%eax)
    2fe0:	0b cc                	or     %esp,%ecx
    2fe2:	03 00                	add    (%eax),%eax
    2fe4:	00 02                	add    %al,(%edx)
    2fe6:	00 01                	add    %al,(%ecx)
    2fe8:	58                   	pop    %eax
    2fe9:	0a 00                	or     (%eax),%al
    2feb:	00 03                	add    %al,(%ebx)
    2fed:	64 1b f3             	fs sbb %ebx,%esi
    2ff0:	03 00                	add    (%eax),%eax
    2ff2:	00 15 a2 06 00 00    	add    %dl,0x6a2
    2ff8:	04 0d                	add    $0xd,%al
    2ffa:	0a be 00 00 00 37    	or     0x37000000(%esi),%bh
    3000:	04 00                	add    $0x0,%al
    3002:	00 16                	add    %dl,(%esi)
    3004:	37                   	aaa    
    3005:	04 00                	add    $0x0,%al
    3007:	00 17                	add    %dl,(%edi)
    3009:	00 10                	add    %dl,(%eax)
    300b:	b9 00 00 00 18       	mov    $0x18000000,%ecx
    3010:	74 70                	je     3082 <mbh-0x2fcf7e>
    3012:	00 01                	add    %al,(%ecx)
    3014:	10 06                	adc    %al,(%esi)
    3016:	06                   	push   %es
    3017:	40                   	inc    %eax
    3018:	30 00                	xor    %al,(%eax)
    301a:	cf                   	iret   
    301b:	00 00                	add    %al,(%eax)
    301d:	00 01                	add    %al,(%ecx)
    301f:	9c                   	pushf  
    3020:	7c 04                	jl     3026 <mbh-0x2fcfda>
    3022:	00 00                	add    %al,(%eax)
    3024:	0f 6d                	(bad)
    3026:	0c 00                	or     $0x0,%al
    3028:	00 12                	add    %dl,(%edx)
    302a:	0f 58 00             	addps  (%eax),%xmm0
    302d:	00 00                	add    %al,(%eax)
    302f:	02 91 68 0f 84 0c    	add    0xc840f68(%ecx),%dl
    3035:	00 00                	add    %al,(%eax)
    3037:	16                   	push   %ss
    3038:	0c 14                	or     $0x14,%al
    303a:	04 00                	add    $0x0,%al
    303c:	00 02                	add    %al,(%edx)
    303e:	91                   	xchg   %eax,%ecx
    303f:	62 0f                	bound  %ecx,(%edi)
    3041:	75 0c                	jne    304f <mbh-0x2fcfb1>
    3043:	00 00                	add    %al,(%eax)
    3045:	1a 0f                	sbb    (%edi),%cl
    3047:	58                   	pop    %eax
    3048:	00 00                	add    %al,(%eax)
    304a:	00 02                	add    %al,(%edx)
    304c:	91                   	xchg   %eax,%ecx
    304d:	6c                   	insb   (%dx),%es:(%edi)
    304e:	00 19                	add    %bl,(%ecx)
    3050:	8c 0c 00             	mov    %cs,(%eax,%eax,1)
    3053:	00 01                	add    %al,(%ecx)
    3055:	09 06                	or     %eax,(%esi)
    3057:	e3 3f                	jecxz  3098 <mbh-0x2fcf68>
    3059:	30 00                	xor    %al,(%eax)
    305b:	23 00                	and    (%eax),%eax
    305d:	00 00                	add    %al,(%eax)
    305f:	01 9c a2 04 00 00 1a 	add    %ebx,0x1a000004(%edx,%eiz,4)
    3066:	76 61                	jbe    30c9 <mbh-0x2fcf37>
    3068:	6c                   	insb   (%dx),%es:(%edi)
    3069:	00 01                	add    %al,(%ecx)
    306b:	0a 0b                	or     (%ebx),%cl
    306d:	4c                   	dec    %esp
    306e:	00 00                	add    %al,(%eax)
    3070:	00 02                	add    %al,(%edx)
    3072:	91                   	xchg   %eax,%ecx
    3073:	6c                   	insb   (%dx),%es:(%edi)
    3074:	00 1b                	add    %bl,(%ebx)
    3076:	97                   	xchg   %eax,%edi
    3077:	0c 00                	or     $0x0,%al
    3079:	00 01                	add    %al,(%ecx)
    307b:	05 06 ca 3f 30       	add    $0x303fca06,%eax
    3080:	00 19                	add    %bl,(%ecx)
    3082:	00 00                	add    %al,(%eax)
    3084:	00 01                	add    %al,(%ecx)
    3086:	9c                   	pushf  
	...

Déassemblage de la section .debug_abbrev :

00000000 <.debug_abbrev>:
   0:	01 11                	add    %edx,(%ecx)
   2:	00 10                	add    %dl,(%eax)
   4:	17                   	pop    %ss
   5:	11 01                	adc    %eax,(%ecx)
   7:	12 0f                	adc    (%edi),%cl
   9:	03 0e                	add    (%esi),%ecx
   b:	1b 0e                	sbb    (%esi),%ecx
   d:	25 0e 13 05 00       	and    $0x5130e,%eax
  12:	00 00                	add    %al,(%eax)
  14:	01 0d 00 03 0e 3a    	add    %ecx,0x3a0e0300
  1a:	21 03                	and    %eax,(%ebx)
  1c:	3b 0b                	cmp    (%ebx),%ecx
  1e:	39 0b                	cmp    %ecx,(%ebx)
  20:	49                   	dec    %ecx
  21:	13 38                	adc    (%eax),%edi
  23:	0b 00                	or     (%eax),%eax
  25:	00 02                	add    %al,(%edx)
  27:	16                   	push   %ss
  28:	00 03                	add    %al,(%ebx)
  2a:	0e                   	push   %cs
  2b:	3a 0b                	cmp    (%ebx),%cl
  2d:	3b 0b                	cmp    (%ebx),%ecx
  2f:	39 0b                	cmp    %ecx,(%ebx)
  31:	49                   	dec    %ecx
  32:	13 00                	adc    (%eax),%eax
  34:	00 03                	add    %al,(%ebx)
  36:	24 00                	and    $0x0,%al
  38:	0b 0b                	or     (%ebx),%ecx
  3a:	3e 0b 03             	or     %ds:(%ebx),%eax
  3d:	0e                   	push   %cs
  3e:	00 00                	add    %al,(%eax)
  40:	04 18                	add    $0x18,%al
  42:	00 00                	add    %al,(%eax)
  44:	00 05 13 01 03 0e    	add    %al,0xe030113
  4a:	0b 0b                	or     (%ebx),%ecx
  4c:	3a 0b                	cmp    (%ebx),%cl
  4e:	3b 0b                	cmp    (%ebx),%ecx
  50:	39 0b                	cmp    %ecx,(%ebx)
  52:	01 13                	add    %edx,(%ebx)
  54:	00 00                	add    %al,(%eax)
  56:	06                   	push   %es
  57:	26 00 49 13          	add    %cl,%es:0x13(%ecx)
  5b:	00 00                	add    %al,(%eax)
  5d:	07                   	pop    %es
  5e:	0d 00 03 08 3a       	or     $0x3a080300,%eax
  63:	0b 3b                	or     (%ebx),%edi
  65:	0b 39                	or     (%ecx),%edi
  67:	0b 49 13             	or     0x13(%ecx),%ecx
  6a:	38 0b                	cmp    %cl,(%ebx)
  6c:	00 00                	add    %al,(%eax)
  6e:	08 0f                	or     %cl,(%edi)
  70:	00 0b                	add    %cl,(%ebx)
  72:	21 04 49             	and    %eax,(%ecx,%ecx,2)
  75:	13 00                	adc    (%eax),%eax
  77:	00 09                	add    %cl,(%ecx)
  79:	35 00 49 13 00       	xor    $0x134900,%eax
  7e:	00 0a                	add    %cl,(%edx)
  80:	17                   	pop    %ss
  81:	01 0b                	add    %ecx,(%ebx)
  83:	0b 3a                	or     (%edx),%edi
  85:	21 03                	and    %eax,(%ebx)
  87:	3b 0b                	cmp    (%ebx),%ecx
  89:	39 21                	cmp    %esp,(%ecx)
  8b:	03 01                	add    (%ecx),%eax
  8d:	13 00                	adc    (%eax),%eax
  8f:	00 0b                	add    %cl,(%ebx)
  91:	0d 00 03 0e 3a       	or     $0x3a0e0300,%eax
  96:	21 03                	and    %eax,(%ebx)
  98:	3b 0b                	cmp    (%ebx),%ecx
  9a:	39 0b                	cmp    %ecx,(%ebx)
  9c:	49                   	dec    %ecx
  9d:	13 00                	adc    (%eax),%eax
  9f:	00 0c 13             	add    %cl,(%ebx,%edx,1)
  a2:	01 0b                	add    %ecx,(%ebx)
  a4:	0b 3a                	or     (%edx),%edi
  a6:	21 03                	and    %eax,(%ebx)
  a8:	3b 0b                	cmp    (%ebx),%ecx
  aa:	39 21                	cmp    %esp,(%ecx)
  ac:	05 01 13 00 00       	add    $0x1301,%eax
  b1:	0d 0d 00 49 13       	or     $0x1349000d,%eax
  b6:	00 00                	add    %al,(%eax)
  b8:	0e                   	push   %cs
  b9:	05 00 49 13 00       	add    $0x134900,%eax
  be:	00 0f                	add    %cl,(%edi)
  c0:	2e 01 3f             	add    %edi,%cs:(%edi)
  c3:	19 03                	sbb    %eax,(%ebx)
  c5:	0e                   	push   %cs
  c6:	3a 0b                	cmp    (%ebx),%cl
  c8:	3b 05 39 0b 3c 19    	cmp    0x193c0b39,%eax
  ce:	01 13                	add    %edx,(%ebx)
  d0:	00 00                	add    %al,(%eax)
  d2:	10 11                	adc    %dl,(%ecx)
  d4:	01 25 0e 13 0b 03    	add    %esp,0x30b130e
  da:	1f                   	pop    %ds
  db:	1b 1f                	sbb    (%edi),%ebx
  dd:	11 01                	adc    %eax,(%ecx)
  df:	12 06                	adc    (%esi),%al
  e1:	10 17                	adc    %dl,(%edi)
  e3:	00 00                	add    %al,(%eax)
  e5:	11 24 00             	adc    %esp,(%eax,%eax,1)
  e8:	0b 0b                	or     (%ebx),%ecx
  ea:	3e 0b 03             	or     %ds:(%ebx),%eax
  ed:	08 00                	or     %al,(%eax)
  ef:	00 12                	add    %dl,(%edx)
  f1:	0d 00 49 13 38       	or     $0x38134900,%eax
  f6:	0b 00                	or     (%eax),%eax
  f8:	00 13                	add    %dl,(%ebx)
  fa:	01 01                	add    %eax,(%ecx)
  fc:	49                   	dec    %ecx
  fd:	13 01                	adc    (%ecx),%eax
  ff:	13 00                	adc    (%eax),%eax
 101:	00 14 21             	add    %dl,(%ecx,%eiz,1)
 104:	00 49 13             	add    %cl,0x13(%ecx)
 107:	2f                   	das    
 108:	0b 00                	or     (%eax),%eax
 10a:	00 15 34 00 03 08    	add    %dl,0x8030034
 110:	3a 0b                	cmp    (%ebx),%cl
 112:	3b 0b                	cmp    (%ebx),%ecx
 114:	39 0b                	cmp    %ecx,(%ebx)
 116:	49                   	dec    %ecx
 117:	13 3f                	adc    (%edi),%edi
 119:	19 88 01 0b 02 18    	sbb    %ecx,0x18020b01(%eax)
 11f:	00 00                	add    %al,(%eax)
 121:	16                   	push   %ss
 122:	34 00                	xor    $0x0,%al
 124:	03 0e                	add    (%esi),%ecx
 126:	3a 0b                	cmp    (%ebx),%cl
 128:	3b 0b                	cmp    (%ebx),%ecx
 12a:	39 0b                	cmp    %ecx,(%ebx)
 12c:	49                   	dec    %ecx
 12d:	13 88 01 0b 02 18    	adc    0x18020b01(%eax),%ecx
 133:	00 00                	add    %al,(%eax)
 135:	17                   	pop    %ss
 136:	34 00                	xor    $0x0,%al
 138:	03 0e                	add    (%esi),%ecx
 13a:	3a 0b                	cmp    (%ebx),%cl
 13c:	3b 0b                	cmp    (%ebx),%ecx
 13e:	39 0b                	cmp    %ecx,(%ebx)
 140:	49                   	dec    %ecx
 141:	13 3f                	adc    (%edi),%edi
 143:	19 02                	sbb    %eax,(%edx)
 145:	18 00                	sbb    %al,(%eax)
 147:	00 18                	add    %bl,(%eax)
 149:	2e 01 3f             	add    %edi,%cs:(%edi)
 14c:	19 03                	sbb    %eax,(%ebx)
 14e:	0e                   	push   %cs
 14f:	3a 0b                	cmp    (%ebx),%cl
 151:	3b 0b                	cmp    (%ebx),%ecx
 153:	39 0b                	cmp    %ecx,(%ebx)
 155:	27                   	daa    
 156:	19 3c 19             	sbb    %edi,(%ecx,%ebx,1)
 159:	01 13                	add    %edx,(%ebx)
 15b:	00 00                	add    %al,(%eax)
 15d:	19 2e                	sbb    %ebp,(%esi)
 15f:	01 3f                	add    %edi,(%edi)
 161:	19 03                	sbb    %eax,(%ebx)
 163:	08 3a                	or     %bh,(%edx)
 165:	0b 3b                	or     (%ebx),%edi
 167:	0b 39                	or     (%ecx),%edi
 169:	0b 3c 19             	or     (%ecx,%ebx,1),%edi
 16c:	01 13                	add    %edx,(%ebx)
 16e:	00 00                	add    %al,(%eax)
 170:	1a 2e                	sbb    (%esi),%ch
 172:	01 3f                	add    %edi,(%edi)
 174:	19 03                	sbb    %eax,(%ebx)
 176:	0e                   	push   %cs
 177:	3a 0b                	cmp    (%ebx),%cl
 179:	3b 0b                	cmp    (%ebx),%ecx
 17b:	39 0b                	cmp    %ecx,(%ebx)
 17d:	27                   	daa    
 17e:	19 49 13             	sbb    %ecx,0x13(%ecx)
 181:	3c 19                	cmp    $0x19,%al
 183:	01 13                	add    %edx,(%ebx)
 185:	00 00                	add    %al,(%eax)
 187:	1b 2e                	sbb    (%esi),%ebp
 189:	01 3f                	add    %edi,(%edi)
 18b:	19 03                	sbb    %eax,(%ebx)
 18d:	0e                   	push   %cs
 18e:	3a 0b                	cmp    (%ebx),%cl
 190:	3b 0b                	cmp    (%ebx),%ecx
 192:	39 0b                	cmp    %ecx,(%ebx)
 194:	3c 19                	cmp    $0x19,%al
 196:	01 13                	add    %edx,(%ebx)
 198:	00 00                	add    %al,(%eax)
 19a:	1c 2e                	sbb    $0x2e,%al
 19c:	01 3f                	add    %edi,(%edi)
 19e:	19 03                	sbb    %eax,(%ebx)
 1a0:	0e                   	push   %cs
 1a1:	3a 0b                	cmp    (%ebx),%cl
 1a3:	3b 0b                	cmp    (%ebx),%ecx
 1a5:	39 0b                	cmp    %ecx,(%ebx)
 1a7:	27                   	daa    
 1a8:	19 11                	sbb    %edx,(%ecx)
 1aa:	01 12                	add    %edx,(%edx)
 1ac:	06                   	push   %es
 1ad:	40                   	inc    %eax
 1ae:	18 7c 19 00          	sbb    %bh,0x0(%ecx,%ebx,1)
 1b2:	00 1d 05 00 03 08    	add    %bl,0x8030005
 1b8:	3a 0b                	cmp    (%ebx),%cl
 1ba:	3b 0b                	cmp    (%ebx),%ecx
 1bc:	39 0b                	cmp    %ecx,(%ebx)
 1be:	49                   	dec    %ecx
 1bf:	13 02                	adc    (%edx),%eax
 1c1:	18 00                	sbb    %al,(%eax)
 1c3:	00 00                	add    %al,(%eax)
 1c5:	01 05 00 03 08 3a    	add    %eax,0x3a080300
 1cb:	0b 3b                	or     (%ebx),%edi
 1cd:	0b 39                	or     (%ecx),%edi
 1cf:	0b 49 13             	or     0x13(%ecx),%ecx
 1d2:	02 18                	add    (%eax),%bl
 1d4:	00 00                	add    %al,(%eax)
 1d6:	02 16                	add    (%esi),%dl
 1d8:	00 03                	add    %al,(%ebx)
 1da:	0e                   	push   %cs
 1db:	3a 0b                	cmp    (%ebx),%cl
 1dd:	3b 0b                	cmp    (%ebx),%ecx
 1df:	39 0b                	cmp    %ecx,(%ebx)
 1e1:	49                   	dec    %ecx
 1e2:	13 00                	adc    (%eax),%eax
 1e4:	00 03                	add    %al,(%ebx)
 1e6:	0d 00 03 0e 3a       	or     $0x3a0e0300,%eax
 1eb:	21 03                	and    %eax,(%ebx)
 1ed:	3b 0b                	cmp    (%ebx),%ecx
 1ef:	39 0b                	cmp    %ecx,(%ebx)
 1f1:	49                   	dec    %ecx
 1f2:	13 38                	adc    (%eax),%edi
 1f4:	0b 00                	or     (%eax),%eax
 1f6:	00 04 34             	add    %al,(%esp,%esi,1)
 1f9:	00 03                	add    %al,(%ebx)
 1fb:	0e                   	push   %cs
 1fc:	3a 21                	cmp    (%ecx),%ah
 1fe:	02 3b                	add    (%ebx),%bh
 200:	0b 39                	or     (%ecx),%edi
 202:	0b 49 13             	or     0x13(%ecx),%ecx
 205:	02 18                	add    (%eax),%bl
 207:	00 00                	add    %al,(%eax)
 209:	05 05 00 03 0e       	add    $0xe030005,%eax
 20e:	3a 21                	cmp    (%ecx),%ah
 210:	02 3b                	add    (%ebx),%bh
 212:	0b 39                	or     (%ecx),%edi
 214:	0b 49 13             	or     0x13(%ecx),%ecx
 217:	02 18                	add    (%eax),%bl
 219:	00 00                	add    %al,(%eax)
 21b:	06                   	push   %es
 21c:	0d 00 03 08 3a       	or     $0x3a080300,%eax
 221:	21 03                	and    %eax,(%ebx)
 223:	3b 0b                	cmp    (%ebx),%ecx
 225:	39 0b                	cmp    %ecx,(%ebx)
 227:	49                   	dec    %ecx
 228:	13 00                	adc    (%eax),%eax
 22a:	00 07                	add    %al,(%edi)
 22c:	34 00                	xor    $0x0,%al
 22e:	03 08                	add    (%eax),%ecx
 230:	3a 21                	cmp    (%ecx),%ah
 232:	02 3b                	add    (%ebx),%bh
 234:	0b 39                	or     (%ecx),%edi
 236:	0b 49 13             	or     0x13(%ecx),%ecx
 239:	02 18                	add    (%eax),%bl
 23b:	00 00                	add    %al,(%eax)
 23d:	08 0f                	or     %cl,(%edi)
 23f:	00 0b                	add    %cl,(%ebx)
 241:	21 04 49             	and    %eax,(%ecx,%ecx,2)
 244:	13 00                	adc    (%eax),%eax
 246:	00 09                	add    %cl,(%ecx)
 248:	0d 00 03 0e 3a       	or     $0x3a0e0300,%eax
 24d:	21 03                	and    %eax,(%ebx)
 24f:	3b 0b                	cmp    (%ebx),%ecx
 251:	39 0b                	cmp    %ecx,(%ebx)
 253:	49                   	dec    %ecx
 254:	13 00                	adc    (%eax),%eax
 256:	00 0a                	add    %cl,(%edx)
 258:	24 00                	and    $0x0,%al
 25a:	0b 0b                	or     (%ebx),%ecx
 25c:	3e 0b 03             	or     %ds:(%ebx),%eax
 25f:	0e                   	push   %cs
 260:	00 00                	add    %al,(%eax)
 262:	0b 0d 00 49 13 00    	or     0x134900,%ecx
 268:	00 0c 13             	add    %cl,(%ebx,%edx,1)
 26b:	01 0b                	add    %ecx,(%ebx)
 26d:	0b 3a                	or     (%edx),%edi
 26f:	21 03                	and    %eax,(%ebx)
 271:	3b 0b                	cmp    (%ebx),%ecx
 273:	39 0b                	cmp    %ecx,(%ebx)
 275:	01 13                	add    %edx,(%ebx)
 277:	00 00                	add    %al,(%eax)
 279:	0d 0b 01 11 01       	or     $0x111010b,%eax
 27e:	12 06                	adc    (%esi),%al
 280:	01 13                	add    %edx,(%ebx)
 282:	00 00                	add    %al,(%eax)
 284:	0e                   	push   %cs
 285:	01 01                	add    %eax,(%ecx)
 287:	49                   	dec    %ecx
 288:	13 01                	adc    (%ecx),%eax
 28a:	13 00                	adc    (%eax),%eax
 28c:	00 0f                	add    %cl,(%edi)
 28e:	2e 01 03             	add    %eax,%cs:(%ebx)
 291:	0e                   	push   %cs
 292:	3a 21                	cmp    (%ecx),%ah
 294:	02 3b                	add    (%ebx),%bh
 296:	0b 39                	or     (%ecx),%edi
 298:	21 14 27             	and    %edx,(%edi,%eiz,1)
 29b:	19 11                	sbb    %edx,(%ecx)
 29d:	01 12                	add    %edx,(%edx)
 29f:	06                   	push   %es
 2a0:	40                   	inc    %eax
 2a1:	18 7c 19 01          	sbb    %bh,0x1(%ecx,%ebx,1)
 2a5:	13 00                	adc    (%eax),%eax
 2a7:	00 10                	add    %dl,(%eax)
 2a9:	21 00                	and    %eax,(%eax)
 2ab:	49                   	dec    %ecx
 2ac:	13 2f                	adc    (%edi),%ebp
 2ae:	0b 00                	or     (%eax),%eax
 2b0:	00 11                	add    %dl,(%ecx)
 2b2:	2e 01 3f             	add    %edi,%cs:(%edi)
 2b5:	19 03                	sbb    %eax,(%ebx)
 2b7:	0e                   	push   %cs
 2b8:	3a 21                	cmp    (%ecx),%ah
 2ba:	02 3b                	add    (%ebx),%bh
 2bc:	0b 39                	or     (%ecx),%edi
 2be:	21 08                	and    %ecx,(%eax)
 2c0:	27                   	daa    
 2c1:	19 49 13             	sbb    %ecx,0x13(%ecx)
 2c4:	11 01                	adc    %eax,(%ecx)
 2c6:	12 06                	adc    (%esi),%al
 2c8:	40                   	inc    %eax
 2c9:	18 7c 19 01          	sbb    %bh,0x1(%ecx,%ebx,1)
 2cd:	13 00                	adc    (%eax),%eax
 2cf:	00 12                	add    %dl,(%edx)
 2d1:	17                   	pop    %ss
 2d2:	01 03                	add    %eax,(%ebx)
 2d4:	0e                   	push   %cs
 2d5:	0b 0b                	or     (%ebx),%ecx
 2d7:	3a 21                	cmp    (%ecx),%ah
 2d9:	03 3b                	add    (%ebx),%edi
 2db:	0b 39                	or     (%ecx),%edi
 2dd:	21 0f                	and    %ecx,(%edi)
 2df:	01 13                	add    %edx,(%ebx)
 2e1:	00 00                	add    %al,(%eax)
 2e3:	13 13                	adc    (%ebx),%edx
 2e5:	01 03                	add    %eax,(%ebx)
 2e7:	0e                   	push   %cs
 2e8:	0b 0b                	or     (%ebx),%ecx
 2ea:	3a 21                	cmp    (%ecx),%ah
 2ec:	03 3b                	add    (%ebx),%edi
 2ee:	0b 39                	or     (%ecx),%edi
 2f0:	21 10                	and    %edx,(%eax)
 2f2:	01 13                	add    %edx,(%ebx)
 2f4:	00 00                	add    %al,(%eax)
 2f6:	14 18                	adc    $0x18,%al
 2f8:	00 00                	add    %al,(%eax)
 2fa:	00 15 17 01 0b 0b    	add    %dl,0xb0b0117
 300:	3a 21                	cmp    (%ecx),%ah
 302:	03 3b                	add    (%ebx),%edi
 304:	0b 39                	or     (%ecx),%edi
 306:	0b 01                	or     (%ecx),%eax
 308:	13 00                	adc    (%eax),%eax
 30a:	00 16                	add    %dl,(%esi)
 30c:	0d 00 49 13 38       	or     $0x38134900,%eax
 311:	21 00                	and    %eax,(%eax)
 313:	00 00                	add    %al,(%eax)
 315:	17                   	pop    %ss
 316:	28 00                	sub    %al,(%eax)
 318:	03 0e                	add    (%esi),%ecx
 31a:	1c 0b                	sbb    $0xb,%al
 31c:	00 00                	add    %al,(%eax)
 31e:	18 05 00 49 13 00    	sbb    %al,0x134900
 324:	00 19                	add    %bl,(%ecx)
 326:	11 01                	adc    %eax,(%ecx)
 328:	25 0e 13 0b 03       	and    $0x30b130e,%eax
 32d:	1f                   	pop    %ds
 32e:	1b 1f                	sbb    (%edi),%ebx
 330:	11 01                	adc    %eax,(%ecx)
 332:	12 06                	adc    (%esi),%al
 334:	10 17                	adc    %dl,(%edi)
 336:	00 00                	add    %al,(%eax)
 338:	1a 24 00             	sbb    (%eax,%eax,1),%ah
 33b:	0b 0b                	or     (%ebx),%ecx
 33d:	3e 0b 03             	or     %ds:(%ebx),%eax
 340:	08 00                	or     %al,(%eax)
 342:	00 1b                	add    %bl,(%ebx)
 344:	26 00 49 13          	add    %cl,%es:0x13(%ecx)
 348:	00 00                	add    %al,(%eax)
 34a:	1c 04                	sbb    $0x4,%al
 34c:	01 3e                	add    %edi,(%esi)
 34e:	0b 0b                	or     (%ebx),%ecx
 350:	0b 49 13             	or     0x13(%ecx),%ecx
 353:	3a 0b                	cmp    (%ebx),%cl
 355:	3b 0b                	cmp    (%ebx),%ecx
 357:	39 0b                	cmp    %ecx,(%ebx)
 359:	01 13                	add    %edx,(%ebx)
 35b:	00 00                	add    %al,(%eax)
 35d:	1d 0f 00 0b 0b       	sbb    $0xb0b000f,%eax
 362:	00 00                	add    %al,(%eax)
 364:	1e                   	push   %ds
 365:	0d 00 03 08 3a       	or     $0x3a080300,%eax
 36a:	0b 3b                	or     (%ebx),%edi
 36c:	0b 39                	or     (%ecx),%edi
 36e:	0b 49 13             	or     0x13(%ecx),%ecx
 371:	38 0b                	cmp    %cl,(%ebx)
 373:	00 00                	add    %al,(%eax)
 375:	1f                   	pop    %ds
 376:	0f 00 0b             	str    (%ebx)
 379:	0b 03                	or     (%ebx),%eax
 37b:	0e                   	push   %cs
 37c:	49                   	dec    %ecx
 37d:	13 00                	adc    (%eax),%eax
 37f:	00 20                	add    %ah,(%eax)
 381:	21 00                	and    %eax,(%eax)
 383:	49                   	dec    %ecx
 384:	13 2f                	adc    (%edi),%ebp
 386:	05 00 00 21 2e       	add    $0x2e210000,%eax
 38b:	01 3f                	add    %edi,(%edi)
 38d:	19 03                	sbb    %eax,(%ebx)
 38f:	0e                   	push   %cs
 390:	3a 0b                	cmp    (%ebx),%cl
 392:	3b 05 39 0b 27 19    	cmp    0x19270b39,%eax
 398:	49                   	dec    %ecx
 399:	13 3c 19             	adc    (%ecx,%ebx,1),%edi
 39c:	01 13                	add    %edx,(%ebx)
 39e:	00 00                	add    %al,(%eax)
 3a0:	22 2e                	and    (%esi),%ch
 3a2:	01 3f                	add    %edi,(%edi)
 3a4:	19 03                	sbb    %eax,(%ebx)
 3a6:	0e                   	push   %cs
 3a7:	3a 0b                	cmp    (%ebx),%cl
 3a9:	3b 05 39 0b 3c 19    	cmp    0x193c0b39,%eax
 3af:	01 13                	add    %edx,(%ebx)
 3b1:	00 00                	add    %al,(%eax)
 3b3:	23 0b                	and    (%ebx),%ecx
 3b5:	01 55 17             	add    %edx,0x17(%ebp)
 3b8:	01 13                	add    %edx,(%ebx)
 3ba:	00 00                	add    %al,(%eax)
 3bc:	24 0b                	and    $0xb,%al
 3be:	01 11                	add    %edx,(%ecx)
 3c0:	01 12                	add    %edx,(%edx)
 3c2:	06                   	push   %es
 3c3:	00 00                	add    %al,(%eax)
 3c5:	25 2e 01 3f 19       	and    $0x193f012e,%eax
 3ca:	03 0e                	add    (%esi),%ecx
 3cc:	3a 0b                	cmp    (%ebx),%cl
 3ce:	3b 0b                	cmp    (%ebx),%ecx
 3d0:	39 0b                	cmp    %ecx,(%ebx)
 3d2:	27                   	daa    
 3d3:	19 11                	sbb    %edx,(%ecx)
 3d5:	01 12                	add    %edx,(%edx)
 3d7:	06                   	push   %es
 3d8:	40                   	inc    %eax
 3d9:	18 7c 19 01          	sbb    %bh,0x1(%ecx,%ebx,1)
 3dd:	13 00                	adc    (%eax),%eax
 3df:	00 26                	add    %ah,(%esi)
 3e1:	2e 01 03             	add    %eax,%cs:(%ebx)
 3e4:	0e                   	push   %cs
 3e5:	3a 0b                	cmp    (%ebx),%cl
 3e7:	3b 0b                	cmp    (%ebx),%ecx
 3e9:	39 0b                	cmp    %ecx,(%ebx)
 3eb:	27                   	daa    
 3ec:	19 11                	sbb    %edx,(%ecx)
 3ee:	01 12                	add    %edx,(%edx)
 3f0:	06                   	push   %es
 3f1:	40                   	inc    %eax
 3f2:	18 7a 19             	sbb    %bh,0x19(%edx)
 3f5:	00 00                	add    %al,(%eax)
 3f7:	00 01                	add    %al,(%ecx)
 3f9:	16                   	push   %ss
 3fa:	00 03                	add    %al,(%ebx)
 3fc:	0e                   	push   %cs
 3fd:	3a 0b                	cmp    (%ebx),%cl
 3ff:	3b 0b                	cmp    (%ebx),%ecx
 401:	39 0b                	cmp    %ecx,(%ebx)
 403:	49                   	dec    %ecx
 404:	13 00                	adc    (%eax),%eax
 406:	00 02                	add    %al,(%edx)
 408:	0d 00 03 0e 3a       	or     $0x3a0e0300,%eax
 40d:	21 02                	and    %eax,(%edx)
 40f:	3b 0b                	cmp    (%ebx),%ecx
 411:	39 0b                	cmp    %ecx,(%ebx)
 413:	49                   	dec    %ecx
 414:	13 38                	adc    (%eax),%edi
 416:	0b 00                	or     (%eax),%eax
 418:	00 03                	add    %al,(%ebx)
 41a:	0d 00 03 08 3a       	or     $0x3a080300,%eax
 41f:	0b 3b                	or     (%ebx),%edi
 421:	0b 39                	or     (%ecx),%edi
 423:	0b 49 13             	or     0x13(%ecx),%ecx
 426:	00 00                	add    %al,(%eax)
 428:	04 0d                	add    $0xd,%al
 42a:	00 49 13             	add    %cl,0x13(%ecx)
 42d:	00 00                	add    %al,(%eax)
 42f:	05 0d 00 03 0e       	add    $0xe03000d,%eax
 434:	3a 21                	cmp    (%ecx),%ah
 436:	03 3b                	add    (%ebx),%edi
 438:	0b 39                	or     (%ecx),%edi
 43a:	0b 49 13             	or     0x13(%ecx),%ecx
 43d:	0d 0b 6b 0b 00       	or     $0xb6b0b,%eax
 442:	00 06                	add    %al,(%esi)
 444:	34 00                	xor    $0x0,%al
 446:	03 08                	add    (%eax),%ecx
 448:	3a 21                	cmp    (%ecx),%ah
 44a:	01 3b                	add    %edi,(%ebx)
 44c:	0b 39                	or     (%ecx),%edi
 44e:	0b 49 13             	or     0x13(%ecx),%ecx
 451:	02 18                	add    (%eax),%bl
 453:	00 00                	add    %al,(%eax)
 455:	07                   	pop    %es
 456:	13 01                	adc    (%ecx),%eax
 458:	0b 0b                	or     (%ebx),%ecx
 45a:	3a 0b                	cmp    (%ebx),%cl
 45c:	3b 0b                	cmp    (%ebx),%ecx
 45e:	39 0b                	cmp    %ecx,(%ebx)
 460:	01 13                	add    %edx,(%ebx)
 462:	00 00                	add    %al,(%eax)
 464:	08 0d 00 03 08 3a    	or     %cl,0x3a080300
 46a:	21 03                	and    %eax,(%ebx)
 46c:	3b 0b                	cmp    (%ebx),%ecx
 46e:	39 0b                	cmp    %ecx,(%ebx)
 470:	49                   	dec    %ecx
 471:	13 0d 21 01 6b 0b    	adc    0xb6b0121,%ecx
 477:	00 00                	add    %al,(%eax)
 479:	09 0d 00 03 0e 3a    	or     %ecx,0x3a0e0300
 47f:	21 02                	and    %eax,(%edx)
 481:	3b 0b                	cmp    (%ebx),%ecx
 483:	39 0b                	cmp    %ecx,(%ebx)
 485:	49                   	dec    %ecx
 486:	13 00                	adc    (%eax),%eax
 488:	00 0a                	add    %cl,(%edx)
 48a:	24 00                	and    $0x0,%al
 48c:	0b 0b                	or     (%ebx),%ecx
 48e:	3e 0b 03             	or     %ds:(%ebx),%eax
 491:	0e                   	push   %cs
 492:	00 00                	add    %al,(%eax)
 494:	0b 0f                	or     (%edi),%ecx
 496:	00 0b                	add    %cl,(%ebx)
 498:	21 04 49             	and    %eax,(%ecx,%ecx,2)
 49b:	13 00                	adc    (%eax),%eax
 49d:	00 0c 17             	add    %cl,(%edi,%edx,1)
 4a0:	01 03                	add    %eax,(%ebx)
 4a2:	0e                   	push   %cs
 4a3:	0b 0b                	or     (%ebx),%ecx
 4a5:	3a 0b                	cmp    (%ebx),%cl
 4a7:	3b 0b                	cmp    (%ebx),%ecx
 4a9:	39 21                	cmp    %esp,(%ecx)
 4ab:	0f 01 13             	lgdtl  (%ebx)
 4ae:	00 00                	add    %al,(%eax)
 4b0:	0d 05 00 03 0e       	or     $0xe030005,%eax
 4b5:	3a 21                	cmp    (%ecx),%ah
 4b7:	01 3b                	add    %edi,(%ebx)
 4b9:	0b 39                	or     (%ecx),%edi
 4bb:	0b 49 13             	or     0x13(%ecx),%ecx
 4be:	02 18                	add    (%eax),%bl
 4c0:	00 00                	add    %al,(%eax)
 4c2:	0e                   	push   %cs
 4c3:	05 00 03 08 3a       	add    $0x3a080300,%eax
 4c8:	21 01                	and    %eax,(%ecx)
 4ca:	3b 0b                	cmp    (%ebx),%ecx
 4cc:	39 0b                	cmp    %ecx,(%ebx)
 4ce:	49                   	dec    %ecx
 4cf:	13 02                	adc    (%edx),%eax
 4d1:	18 00                	sbb    %al,(%eax)
 4d3:	00 0f                	add    %cl,(%edi)
 4d5:	13 01                	adc    (%ecx),%eax
 4d7:	03 0e                	add    (%esi),%ecx
 4d9:	0b 0b                	or     (%ebx),%ecx
 4db:	3a 21                	cmp    (%ecx),%ah
 4dd:	02 3b                	add    (%ebx),%bh
 4df:	0b 39                	or     (%ecx),%edi
 4e1:	21 10                	and    %edx,(%eax)
 4e3:	01 13                	add    %edx,(%ebx)
 4e5:	00 00                	add    %al,(%eax)
 4e7:	10 0b                	adc    %cl,(%ebx)
 4e9:	01 11                	add    %edx,(%ecx)
 4eb:	01 12                	add    %edx,(%edx)
 4ed:	06                   	push   %es
 4ee:	00 00                	add    %al,(%eax)
 4f0:	11 01                	adc    %eax,(%ecx)
 4f2:	01 49 13             	add    %ecx,0x13(%ecx)
 4f5:	01 13                	add    %edx,(%ebx)
 4f7:	00 00                	add    %al,(%eax)
 4f9:	12 21                	adc    (%ecx),%ah
 4fb:	00 49 13             	add    %cl,0x13(%ecx)
 4fe:	2f                   	das    
 4ff:	0b 00                	or     (%eax),%eax
 501:	00 13                	add    %dl,(%ebx)
 503:	17                   	pop    %ss
 504:	01 0b                	add    %ecx,(%ebx)
 506:	0b 3a                	or     (%edx),%edi
 508:	21 02                	and    %eax,(%edx)
 50a:	3b 0b                	cmp    (%ebx),%ecx
 50c:	39 0b                	cmp    %ecx,(%ebx)
 50e:	01 13                	add    %edx,(%ebx)
 510:	00 00                	add    %al,(%eax)
 512:	14 0d                	adc    $0xd,%al
 514:	00 49 13             	add    %cl,0x13(%ecx)
 517:	38 21                	cmp    %ah,(%ecx)
 519:	00 00                	add    %al,(%eax)
 51b:	00 15 2e 01 03 0e    	add    %dl,0xe03012e
 521:	3a 21                	cmp    (%ecx),%ah
 523:	01 3b                	add    %edi,(%ebx)
 525:	0b 39                	or     (%ecx),%edi
 527:	0b 27                	or     (%edi),%esp
 529:	19 11                	sbb    %edx,(%ecx)
 52b:	01 12                	add    %edx,(%edx)
 52d:	06                   	push   %es
 52e:	40                   	inc    %eax
 52f:	18 7a 19             	sbb    %bh,0x19(%edx)
 532:	01 13                	add    %edx,(%ebx)
 534:	00 00                	add    %al,(%eax)
 536:	16                   	push   %ss
 537:	2e 01 3f             	add    %edi,%cs:(%edi)
 53a:	19 03                	sbb    %eax,(%ebx)
 53c:	0e                   	push   %cs
 53d:	3a 21                	cmp    (%ecx),%ah
 53f:	01 3b                	add    %edi,(%ebx)
 541:	0b 39                	or     (%ecx),%edi
 543:	21 08                	and    %ecx,(%eax)
 545:	27                   	daa    
 546:	19 49 13             	sbb    %ecx,0x13(%ecx)
 549:	11 01                	adc    %eax,(%ecx)
 54b:	12 06                	adc    (%esi),%al
 54d:	40                   	inc    %eax
 54e:	18 7c 19 01          	sbb    %bh,0x1(%ecx,%ebx,1)
 552:	13 00                	adc    (%eax),%eax
 554:	00 17                	add    %dl,(%edi)
 556:	0b 01                	or     (%ecx),%eax
 558:	11 01                	adc    %eax,(%ecx)
 55a:	12 06                	adc    (%esi),%al
 55c:	01 13                	add    %edx,(%ebx)
 55e:	00 00                	add    %al,(%eax)
 560:	18 11                	sbb    %dl,(%ecx)
 562:	01 25 0e 13 0b 03    	add    %esp,0x30b130e
 568:	1f                   	pop    %ds
 569:	1b 1f                	sbb    (%edi),%ebx
 56b:	11 01                	adc    %eax,(%ecx)
 56d:	12 06                	adc    (%esi),%al
 56f:	10 17                	adc    %dl,(%edi)
 571:	00 00                	add    %al,(%eax)
 573:	19 24 00             	sbb    %esp,(%eax,%eax,1)
 576:	0b 0b                	or     (%ebx),%ecx
 578:	3e 0b 03             	or     %ds:(%ebx),%eax
 57b:	08 00                	or     %al,(%eax)
 57d:	00 1a                	add    %bl,(%edx)
 57f:	0f 00 0b             	str    (%ebx)
 582:	0b 00                	or     (%eax),%eax
 584:	00 1b                	add    %bl,(%ebx)
 586:	0d 00 03 08 3a       	or     $0x3a080300,%eax
 58b:	0b 3b                	or     (%ebx),%edi
 58d:	0b 39                	or     (%ecx),%edi
 58f:	0b 49 13             	or     0x13(%ecx),%ecx
 592:	38 0b                	cmp    %cl,(%ebx)
 594:	00 00                	add    %al,(%eax)
 596:	1c 2e                	sbb    $0x2e,%al
 598:	01 3f                	add    %edi,(%edi)
 59a:	19 03                	sbb    %eax,(%ebx)
 59c:	0e                   	push   %cs
 59d:	3a 0b                	cmp    (%ebx),%cl
 59f:	3b 0b                	cmp    (%ebx),%ecx
 5a1:	39 0b                	cmp    %ecx,(%ebx)
 5a3:	11 01                	adc    %eax,(%ecx)
 5a5:	12 06                	adc    (%esi),%al
 5a7:	40                   	inc    %eax
 5a8:	18 7a 19             	sbb    %bh,0x19(%edx)
 5ab:	01 13                	add    %edx,(%ebx)
 5ad:	00 00                	add    %al,(%eax)
 5af:	1d 2e 00 3f 19       	sbb    $0x193f002e,%eax
 5b4:	03 0e                	add    (%esi),%ecx
 5b6:	3a 0b                	cmp    (%ebx),%cl
 5b8:	3b 0b                	cmp    (%ebx),%ecx
 5ba:	39 0b                	cmp    %ecx,(%ebx)
 5bc:	11 01                	adc    %eax,(%ecx)
 5be:	12 06                	adc    (%esi),%al
 5c0:	40                   	inc    %eax
 5c1:	18 7c 19 00          	sbb    %bh,0x0(%ecx,%ebx,1)
 5c5:	00 1e                	add    %bl,(%esi)
 5c7:	2e 01 03             	add    %eax,%cs:(%ebx)
 5ca:	0e                   	push   %cs
 5cb:	3a 0b                	cmp    (%ebx),%cl
 5cd:	3b 0b                	cmp    (%ebx),%ecx
 5cf:	39 0b                	cmp    %ecx,(%ebx)
 5d1:	27                   	daa    
 5d2:	19 11                	sbb    %edx,(%ecx)
 5d4:	01 12                	add    %edx,(%edx)
 5d6:	06                   	push   %es
 5d7:	40                   	inc    %eax
 5d8:	18 7c 19 01          	sbb    %bh,0x1(%ecx,%ebx,1)
 5dc:	13 00                	adc    (%eax),%eax
 5de:	00 1f                	add    %bl,(%edi)
 5e0:	2e 01 03             	add    %eax,%cs:(%ebx)
 5e3:	0e                   	push   %cs
 5e4:	3a 0b                	cmp    (%ebx),%cl
 5e6:	3b 0b                	cmp    (%ebx),%ecx
 5e8:	39 0b                	cmp    %ecx,(%ebx)
 5ea:	27                   	daa    
 5eb:	19 11                	sbb    %edx,(%ecx)
 5ed:	01 12                	add    %edx,(%edx)
 5ef:	06                   	push   %es
 5f0:	40                   	inc    %eax
 5f1:	18 7a 19             	sbb    %bh,0x19(%edx)
 5f4:	00 00                	add    %al,(%eax)
 5f6:	00 01                	add    %al,(%ecx)
 5f8:	0d 00 03 0e 3a       	or     $0x3a0e0300,%eax
 5fd:	21 02                	and    %eax,(%edx)
 5ff:	3b 0b                	cmp    (%ebx),%ecx
 601:	39 0b                	cmp    %ecx,(%ebx)
 603:	49                   	dec    %ecx
 604:	13 0d 0b 6b 0b 00    	adc    0xb6b0b,%ecx
 60a:	00 02                	add    %al,(%edx)
 60c:	24 00                	and    $0x0,%al
 60e:	0b 0b                	or     (%ebx),%ecx
 610:	3e 0b 03             	or     %ds:(%ebx),%eax
 613:	0e                   	push   %cs
 614:	00 00                	add    %al,(%eax)
 616:	03 16                	add    (%esi),%edx
 618:	00 03                	add    %al,(%ebx)
 61a:	0e                   	push   %cs
 61b:	3a 0b                	cmp    (%ebx),%cl
 61d:	3b 0b                	cmp    (%ebx),%ecx
 61f:	39 0b                	cmp    %ecx,(%ebx)
 621:	49                   	dec    %ecx
 622:	13 00                	adc    (%eax),%eax
 624:	00 04 13             	add    %al,(%ebx,%edx,1)
 627:	01 0b                	add    %ecx,(%ebx)
 629:	21 01                	and    %eax,(%ecx)
 62b:	3a 21                	cmp    (%ecx),%ah
 62d:	02 3b                	add    (%ebx),%bh
 62f:	0b 39                	or     (%ecx),%edi
 631:	21 04 01             	and    %eax,(%ecx,%eax,1)
 634:	13 00                	adc    (%eax),%eax
 636:	00 05 0d 00 03 08    	add    %al,0x803000d
 63c:	3a 21                	cmp    (%ecx),%ah
 63e:	02 3b                	add    (%ebx),%bh
 640:	0b 39                	or     (%ecx),%edi
 642:	21 11                	and    %edx,(%ecx)
 644:	49                   	dec    %ecx
 645:	13 0d 0b 6b 0b 00    	adc    0xb6b0b,%ecx
 64b:	00 06                	add    %al,(%esi)
 64d:	17                   	pop    %ss
 64e:	01 03                	add    %eax,(%ebx)
 650:	0e                   	push   %cs
 651:	0b 21                	or     (%ecx),%esp
 653:	01 3a                	add    %edi,(%edx)
 655:	21 02                	and    %eax,(%edx)
 657:	3b 0b                	cmp    (%ebx),%ecx
 659:	39 21                	cmp    %esp,(%ecx)
 65b:	0f 01 13             	lgdtl  (%ebx)
 65e:	00 00                	add    %al,(%eax)
 660:	07                   	pop    %es
 661:	0d 00 03 08 3a       	or     $0x3a080300,%eax
 666:	21 02                	and    %eax,(%edx)
 668:	3b 0b                	cmp    (%ebx),%ecx
 66a:	39 0b                	cmp    %ecx,(%ebx)
 66c:	49                   	dec    %ecx
 66d:	13 00                	adc    (%eax),%eax
 66f:	00 08                	add    %cl,(%eax)
 671:	34 00                	xor    $0x0,%al
 673:	03 0e                	add    (%esi),%ecx
 675:	3a 21                	cmp    (%ecx),%ah
 677:	01 3b                	add    %edi,(%ebx)
 679:	0b 39                	or     (%ecx),%edi
 67b:	21 11                	and    %edx,(%ecx)
 67d:	49                   	dec    %ecx
 67e:	13 02                	adc    (%edx),%eax
 680:	18 00                	sbb    %al,(%eax)
 682:	00 09                	add    %cl,(%ecx)
 684:	0d 00 49 13 00       	or     $0x134900,%eax
 689:	00 0a                	add    %cl,(%edx)
 68b:	0d 00 03 0e 3a       	or     $0x3a0e0300,%eax
 690:	21 02                	and    %eax,(%edx)
 692:	3b 0b                	cmp    (%ebx),%ecx
 694:	39 21                	cmp    %esp,(%ecx)
 696:	06                   	push   %es
 697:	49                   	dec    %ecx
 698:	13 00                	adc    (%eax),%eax
 69a:	00 0b                	add    %cl,(%ebx)
 69c:	11 01                	adc    %eax,(%ecx)
 69e:	25 0e 13 0b 03       	and    $0x30b130e,%eax
 6a3:	1f                   	pop    %ds
 6a4:	1b 1f                	sbb    (%edi),%ebx
 6a6:	11 01                	adc    %eax,(%ecx)
 6a8:	12 06                	adc    (%esi),%al
 6aa:	10 17                	adc    %dl,(%edi)
 6ac:	00 00                	add    %al,(%eax)
 6ae:	0c 24                	or     $0x24,%al
 6b0:	00 0b                	add    %cl,(%ebx)
 6b2:	0b 3e                	or     (%esi),%edi
 6b4:	0b 03                	or     (%ebx),%eax
 6b6:	08 00                	or     %al,(%eax)
 6b8:	00 0d 2e 01 3f 19    	add    %cl,0x193f012e
 6be:	03 0e                	add    (%esi),%ecx
 6c0:	3a 0b                	cmp    (%ebx),%cl
 6c2:	3b 0b                	cmp    (%ebx),%ecx
 6c4:	39 0b                	cmp    %ecx,(%ebx)
 6c6:	11 01                	adc    %eax,(%ecx)
 6c8:	12 06                	adc    (%esi),%al
 6ca:	40                   	inc    %eax
 6cb:	18 7a 19             	sbb    %bh,0x19(%edx)
 6ce:	00 00                	add    %al,(%eax)
 6d0:	00 01                	add    %al,(%ecx)
 6d2:	0d 00 03 08 3a       	or     $0x3a080300,%eax
 6d7:	0b 3b                	or     (%ebx),%edi
 6d9:	0b 39                	or     (%ecx),%edi
 6db:	0b 49 13             	or     0x13(%ecx),%ecx
 6de:	0d 0b 6b 0b 00       	or     $0xb6b0b,%eax
 6e3:	00 02                	add    %al,(%edx)
 6e5:	16                   	push   %ss
 6e6:	00 03                	add    %al,(%ebx)
 6e8:	0e                   	push   %cs
 6e9:	3a 0b                	cmp    (%ebx),%cl
 6eb:	3b 0b                	cmp    (%ebx),%ecx
 6ed:	39 0b                	cmp    %ecx,(%ebx)
 6ef:	49                   	dec    %ecx
 6f0:	13 00                	adc    (%eax),%eax
 6f2:	00 03                	add    %al,(%ebx)
 6f4:	0d 00 49 13 00       	or     $0x134900,%eax
 6f9:	00 04 0d 00 03 0e 3a 	add    %al,0x3a0e0300(,%ecx,1)
 700:	0b 3b                	or     (%ebx),%edi
 702:	0b 39                	or     (%ecx),%edi
 704:	0b 49 13             	or     0x13(%ecx),%ecx
 707:	38 0b                	cmp    %cl,(%ebx)
 709:	00 00                	add    %al,(%eax)
 70b:	05 0d 00 03 08       	add    $0x803000d,%eax
 710:	3a 0b                	cmp    (%ebx),%cl
 712:	3b 0b                	cmp    (%ebx),%ecx
 714:	39 0b                	cmp    %ecx,(%ebx)
 716:	49                   	dec    %ecx
 717:	13 38                	adc    (%eax),%edi
 719:	0b 00                	or     (%eax),%eax
 71b:	00 06                	add    %al,(%esi)
 71d:	13 01                	adc    (%ecx),%eax
 71f:	0b 0b                	or     (%ebx),%ecx
 721:	3a 0b                	cmp    (%ebx),%cl
 723:	3b 0b                	cmp    (%ebx),%ecx
 725:	39 0b                	cmp    %ecx,(%ebx)
 727:	01 13                	add    %edx,(%ebx)
 729:	00 00                	add    %al,(%eax)
 72b:	07                   	pop    %es
 72c:	0d 00 03 0e 3a       	or     $0x3a0e0300,%eax
 731:	0b 3b                	or     (%ebx),%edi
 733:	0b 39                	or     (%ecx),%edi
 735:	0b 49 13             	or     0x13(%ecx),%ecx
 738:	00 00                	add    %al,(%eax)
 73a:	08 24 00             	or     %ah,(%eax,%eax,1)
 73d:	0b 0b                	or     (%ebx),%ecx
 73f:	3e 0b 03             	or     %ds:(%ebx),%eax
 742:	0e                   	push   %cs
 743:	00 00                	add    %al,(%eax)
 745:	09 17                	or     %edx,(%edi)
 747:	01 03                	add    %eax,(%ebx)
 749:	0e                   	push   %cs
 74a:	0b 0b                	or     (%ebx),%ecx
 74c:	3a 0b                	cmp    (%ebx),%cl
 74e:	3b 0b                	cmp    (%ebx),%ecx
 750:	39 21                	cmp    %esp,(%ecx)
 752:	0f 01 13             	lgdtl  (%ebx)
 755:	00 00                	add    %al,(%eax)
 757:	0a 0d 00 03 08 3a    	or     0x3a080300,%cl
 75d:	0b 3b                	or     (%ebx),%edi
 75f:	0b 39                	or     (%ecx),%edi
 761:	0b 49 13             	or     0x13(%ecx),%ecx
 764:	00 00                	add    %al,(%eax)
 766:	0b 0d 00 03 0e 3a    	or     0x3a0e0300,%ecx
 76c:	0b 3b                	or     (%ebx),%edi
 76e:	0b 39                	or     (%ecx),%edi
 770:	0b 49 13             	or     0x13(%ecx),%ecx
 773:	0d 0b 6b 0b 00       	or     $0xb6b0b,%eax
 778:	00 0c 01             	add    %cl,(%ecx,%eax,1)
 77b:	01 49 13             	add    %ecx,0x13(%ecx)
 77e:	01 13                	add    %edx,(%ebx)
 780:	00 00                	add    %al,(%eax)
 782:	0d 21 00 49 13       	or     $0x13490021,%eax
 787:	2f                   	das    
 788:	0b 00                	or     (%eax),%eax
 78a:	00 0e                	add    %cl,(%esi)
 78c:	0d 00 49 13 38       	or     $0x38134900,%eax
 791:	0b 00                	or     (%eax),%eax
 793:	00 0f                	add    %cl,(%edi)
 795:	17                   	pop    %ss
 796:	01 0b                	add    %ecx,(%ebx)
 798:	0b 3a                	or     (%edx),%edi
 79a:	0b 3b                	or     (%ebx),%edi
 79c:	0b 39                	or     (%ecx),%edi
 79e:	0b 01                	or     (%ecx),%eax
 7a0:	13 00                	adc    (%eax),%eax
 7a2:	00 10                	add    %dl,(%eax)
 7a4:	13 01                	adc    (%ecx),%eax
 7a6:	03 0e                	add    (%esi),%ecx
 7a8:	0b 0b                	or     (%ebx),%ecx
 7aa:	3a 0b                	cmp    (%ebx),%cl
 7ac:	3b 0b                	cmp    (%ebx),%ecx
 7ae:	39 21                	cmp    %esp,(%ecx)
 7b0:	10 01                	adc    %al,(%ecx)
 7b2:	13 00                	adc    (%eax),%eax
 7b4:	00 11                	add    %dl,(%ecx)
 7b6:	0f 00 0b             	str    (%ebx)
 7b9:	21 04 49             	and    %eax,(%ecx,%ecx,2)
 7bc:	13 00                	adc    (%eax),%eax
 7be:	00 12                	add    %dl,(%edx)
 7c0:	34 00                	xor    $0x0,%al
 7c2:	03 08                	add    (%eax),%ecx
 7c4:	3a 21                	cmp    (%ecx),%ah
 7c6:	01 3b                	add    %edi,(%ebx)
 7c8:	0b 39                	or     (%ecx),%edi
 7ca:	0b 49 13             	or     0x13(%ecx),%ecx
 7cd:	02 18                	add    (%eax),%bl
 7cf:	00 00                	add    %al,(%eax)
 7d1:	13 34 00             	adc    (%eax,%eax,1),%esi
 7d4:	03 0e                	add    (%esi),%ecx
 7d6:	3a 21                	cmp    (%ecx),%ah
 7d8:	01 3b                	add    %edi,(%ebx)
 7da:	0b 39                	or     (%ecx),%edi
 7dc:	0b 49 13             	or     0x13(%ecx),%ecx
 7df:	02 18                	add    (%eax),%bl
 7e1:	00 00                	add    %al,(%eax)
 7e3:	14 05                	adc    $0x5,%al
 7e5:	00 49 13             	add    %cl,0x13(%ecx)
 7e8:	00 00                	add    %al,(%eax)
 7ea:	15 18 00 00 00       	adc    $0x18,%eax
 7ef:	16                   	push   %ss
 7f0:	11 01                	adc    %eax,(%ecx)
 7f2:	25 0e 13 0b 03       	and    $0x30b130e,%eax
 7f7:	1f                   	pop    %ds
 7f8:	1b 1f                	sbb    (%edi),%ebx
 7fa:	11 01                	adc    %eax,(%ecx)
 7fc:	12 06                	adc    (%esi),%al
 7fe:	10 17                	adc    %dl,(%edi)
 800:	00 00                	add    %al,(%eax)
 802:	17                   	pop    %ss
 803:	24 00                	and    $0x0,%al
 805:	0b 0b                	or     (%ebx),%ecx
 807:	3e 0b 03             	or     %ds:(%ebx),%eax
 80a:	08 00                	or     %al,(%eax)
 80c:	00 18                	add    %bl,(%eax)
 80e:	26 00 49 13          	add    %cl,%es:0x13(%ecx)
 812:	00 00                	add    %al,(%eax)
 814:	19 2e                	sbb    %ebp,(%esi)
 816:	01 3f                	add    %edi,(%edi)
 818:	19 03                	sbb    %eax,(%ebx)
 81a:	0e                   	push   %cs
 81b:	3a 0b                	cmp    (%ebx),%cl
 81d:	3b 0b                	cmp    (%ebx),%ecx
 81f:	39 0b                	cmp    %ecx,(%ebx)
 821:	27                   	daa    
 822:	19 3c 19             	sbb    %edi,(%ecx,%ebx,1)
 825:	01 13                	add    %edx,(%ebx)
 827:	00 00                	add    %al,(%eax)
 829:	1a 2e                	sbb    (%esi),%ch
 82b:	01 3f                	add    %edi,(%edi)
 82d:	19 03                	sbb    %eax,(%ebx)
 82f:	0e                   	push   %cs
 830:	3a 0b                	cmp    (%ebx),%cl
 832:	3b 0b                	cmp    (%ebx),%ecx
 834:	39 0b                	cmp    %ecx,(%ebx)
 836:	27                   	daa    
 837:	19 49 13             	sbb    %ecx,0x13(%ecx)
 83a:	3c 19                	cmp    $0x19,%al
 83c:	01 13                	add    %edx,(%ebx)
 83e:	00 00                	add    %al,(%eax)
 840:	1b 2e                	sbb    (%esi),%ebp
 842:	01 3f                	add    %edi,(%edi)
 844:	19 03                	sbb    %eax,(%ebx)
 846:	0e                   	push   %cs
 847:	3a 0b                	cmp    (%ebx),%cl
 849:	3b 0b                	cmp    (%ebx),%ecx
 84b:	39 0b                	cmp    %ecx,(%ebx)
 84d:	3c 19                	cmp    $0x19,%al
 84f:	01 13                	add    %edx,(%ebx)
 851:	00 00                	add    %al,(%eax)
 853:	1c 2e                	sbb    $0x2e,%al
 855:	01 3f                	add    %edi,(%edi)
 857:	19 03                	sbb    %eax,(%ebx)
 859:	0e                   	push   %cs
 85a:	3a 0b                	cmp    (%ebx),%cl
 85c:	3b 0b                	cmp    (%ebx),%ecx
 85e:	39 0b                	cmp    %ecx,(%ebx)
 860:	27                   	daa    
 861:	19 11                	sbb    %edx,(%ecx)
 863:	01 12                	add    %edx,(%edx)
 865:	06                   	push   %es
 866:	40                   	inc    %eax
 867:	18 7c 19 01          	sbb    %bh,0x1(%ecx,%ebx,1)
 86b:	13 00                	adc    (%eax),%eax
 86d:	00 1d 05 00 03 08    	add    %bl,0x8030005
 873:	3a 0b                	cmp    (%ebx),%cl
 875:	3b 0b                	cmp    (%ebx),%ecx
 877:	39 0b                	cmp    %ecx,(%ebx)
 879:	49                   	dec    %ecx
 87a:	13 02                	adc    (%edx),%eax
 87c:	18 00                	sbb    %al,(%eax)
 87e:	00 1e                	add    %bl,(%esi)
 880:	2e 01 3f             	add    %edi,%cs:(%edi)
 883:	19 03                	sbb    %eax,(%ebx)
 885:	0e                   	push   %cs
 886:	3a 0b                	cmp    (%ebx),%cl
 888:	3b 0b                	cmp    (%ebx),%ecx
 88a:	39 0b                	cmp    %ecx,(%ebx)
 88c:	11 01                	adc    %eax,(%ecx)
 88e:	12 06                	adc    (%esi),%al
 890:	40                   	inc    %eax
 891:	18 7a 19             	sbb    %bh,0x19(%edx)
 894:	00 00                	add    %al,(%eax)
 896:	1f                   	pop    %ds
 897:	0b 01                	or     (%ecx),%eax
 899:	11 01                	adc    %eax,(%ecx)
 89b:	12 06                	adc    (%esi),%al
 89d:	00 00                	add    %al,(%eax)
 89f:	00 01                	add    %al,(%ecx)
 8a1:	11 00                	adc    %eax,(%eax)
 8a3:	10 17                	adc    %dl,(%edi)
 8a5:	55                   	push   %ebp
 8a6:	17                   	pop    %ss
 8a7:	03 0e                	add    (%esi),%ecx
 8a9:	1b 0e                	sbb    (%esi),%ecx
 8ab:	25 0e 13 05 00       	and    $0x5130e,%eax
 8b0:	00 00                	add    %al,(%eax)
 8b2:	01 0d 00 03 08 3a    	add    %ecx,0x3a080300
 8b8:	0b 3b                	or     (%ebx),%edi
 8ba:	0b 39                	or     (%ecx),%edi
 8bc:	0b 49 13             	or     0x13(%ecx),%ecx
 8bf:	0d 0b 6b 0b 00       	or     $0xb6b0b,%eax
 8c4:	00 02                	add    %al,(%edx)
 8c6:	16                   	push   %ss
 8c7:	00 03                	add    %al,(%ebx)
 8c9:	0e                   	push   %cs
 8ca:	3a 0b                	cmp    (%ebx),%cl
 8cc:	3b 0b                	cmp    (%ebx),%ecx
 8ce:	39 0b                	cmp    %ecx,(%ebx)
 8d0:	49                   	dec    %ecx
 8d1:	13 00                	adc    (%eax),%eax
 8d3:	00 03                	add    %al,(%ebx)
 8d5:	0d 00 03 08 3a       	or     $0x3a080300,%eax
 8da:	0b 3b                	or     (%ebx),%edi
 8dc:	0b 39                	or     (%ecx),%edi
 8de:	0b 49 13             	or     0x13(%ecx),%ecx
 8e1:	38 0b                	cmp    %cl,(%ebx)
 8e3:	00 00                	add    %al,(%eax)
 8e5:	04 0d                	add    $0xd,%al
 8e7:	00 49 13             	add    %cl,0x13(%ecx)
 8ea:	00 00                	add    %al,(%eax)
 8ec:	05 24 00 0b 0b       	add    $0xb0b0024,%eax
 8f1:	3e 0b 03             	or     %ds:(%ebx),%eax
 8f4:	0e                   	push   %cs
 8f5:	00 00                	add    %al,(%eax)
 8f7:	06                   	push   %es
 8f8:	0d 00 03 0e 3a       	or     $0x3a0e0300,%eax
 8fd:	0b 3b                	or     (%ebx),%edi
 8ff:	0b 39                	or     (%ecx),%edi
 901:	0b 49 13             	or     0x13(%ecx),%ecx
 904:	38 0b                	cmp    %cl,(%ebx)
 906:	00 00                	add    %al,(%eax)
 908:	07                   	pop    %es
 909:	13 01                	adc    (%ecx),%eax
 90b:	0b 0b                	or     (%ebx),%ecx
 90d:	3a 0b                	cmp    (%ebx),%cl
 90f:	3b 0b                	cmp    (%ebx),%ecx
 911:	39 0b                	cmp    %ecx,(%ebx)
 913:	01 13                	add    %edx,(%ebx)
 915:	00 00                	add    %al,(%eax)
 917:	08 17                	or     %dl,(%edi)
 919:	01 03                	add    %eax,(%ebx)
 91b:	0e                   	push   %cs
 91c:	0b 0b                	or     (%ebx),%ecx
 91e:	3a 0b                	cmp    (%ebx),%cl
 920:	3b 0b                	cmp    (%ebx),%ecx
 922:	39 21                	cmp    %esp,(%ecx)
 924:	0f 01 13             	lgdtl  (%ebx)
 927:	00 00                	add    %al,(%eax)
 929:	09 0d 00 03 08 3a    	or     %ecx,0x3a080300
 92f:	0b 3b                	or     (%ebx),%edi
 931:	0b 39                	or     (%ecx),%edi
 933:	0b 49 13             	or     0x13(%ecx),%ecx
 936:	00 00                	add    %al,(%eax)
 938:	0a 0d 00 03 0e 3a    	or     0x3a0e0300,%cl
 93e:	21 02                	and    %eax,(%edx)
 940:	3b 0b                	cmp    (%ebx),%ecx
 942:	39 0b                	cmp    %ecx,(%ebx)
 944:	49                   	dec    %ecx
 945:	13 00                	adc    (%eax),%eax
 947:	00 0b                	add    %cl,(%ebx)
 949:	01 01                	add    %eax,(%ecx)
 94b:	49                   	dec    %ecx
 94c:	13 01                	adc    (%ecx),%eax
 94e:	13 00                	adc    (%eax),%eax
 950:	00 0c 21             	add    %cl,(%ecx,%eiz,1)
 953:	00 49 13             	add    %cl,0x13(%ecx)
 956:	2f                   	das    
 957:	0b 00                	or     (%eax),%eax
 959:	00 0d 0f 00 0b 21    	add    %cl,0x210b000f
 95f:	04 49                	add    $0x49,%al
 961:	13 00                	adc    (%eax),%eax
 963:	00 0e                	add    %cl,(%esi)
 965:	13 01                	adc    (%ecx),%eax
 967:	03 0e                	add    (%esi),%ecx
 969:	0b 0b                	or     (%ebx),%ecx
 96b:	3a 0b                	cmp    (%ebx),%cl
 96d:	3b 0b                	cmp    (%ebx),%ecx
 96f:	39 21                	cmp    %esp,(%ecx)
 971:	10 01                	adc    %al,(%ecx)
 973:	13 00                	adc    (%eax),%eax
 975:	00 0f                	add    %cl,(%edi)
 977:	05 00 49 13 00       	add    $0x134900,%eax
 97c:	00 10                	add    %dl,(%eax)
 97e:	34 00                	xor    $0x0,%al
 980:	03 08                	add    (%eax),%ecx
 982:	3a 21                	cmp    (%ecx),%ah
 984:	01 3b                	add    %edi,(%ebx)
 986:	0b 39                	or     (%ecx),%edi
 988:	0b 49 13             	or     0x13(%ecx),%ecx
 98b:	02 18                	add    (%eax),%bl
 98d:	00 00                	add    %al,(%eax)
 98f:	11 0d 00 49 13 38    	adc    %ecx,0x38134900
 995:	0b 00                	or     (%eax),%eax
 997:	00 12                	add    %dl,(%edx)
 999:	2e 01 3f             	add    %edi,%cs:(%edi)
 99c:	19 03                	sbb    %eax,(%ebx)
 99e:	0e                   	push   %cs
 99f:	3a 0b                	cmp    (%ebx),%cl
 9a1:	3b 0b                	cmp    (%ebx),%ecx
 9a3:	39 0b                	cmp    %ecx,(%ebx)
 9a5:	27                   	daa    
 9a6:	19 3c 19             	sbb    %edi,(%ecx,%ebx,1)
 9a9:	01 13                	add    %edx,(%ebx)
 9ab:	00 00                	add    %al,(%eax)
 9ad:	13 18                	adc    (%eax),%ebx
 9af:	00 00                	add    %al,(%eax)
 9b1:	00 14 0b             	add    %dl,(%ebx,%ecx,1)
 9b4:	01 11                	add    %edx,(%ecx)
 9b6:	01 12                	add    %edx,(%edx)
 9b8:	06                   	push   %es
 9b9:	01 13                	add    %edx,(%ebx)
 9bb:	00 00                	add    %al,(%eax)
 9bd:	15 11 01 25 0e       	adc    $0xe250111,%eax
 9c2:	13 0b                	adc    (%ebx),%ecx
 9c4:	03 1f                	add    (%edi),%ebx
 9c6:	1b 1f                	sbb    (%edi),%ebx
 9c8:	11 01                	adc    %eax,(%ecx)
 9ca:	12 06                	adc    (%esi),%al
 9cc:	10 17                	adc    %dl,(%edi)
 9ce:	00 00                	add    %al,(%eax)
 9d0:	16                   	push   %ss
 9d1:	24 00                	and    $0x0,%al
 9d3:	0b 0b                	or     (%ebx),%ecx
 9d5:	3e 0b 03             	or     %ds:(%ebx),%eax
 9d8:	08 00                	or     %al,(%eax)
 9da:	00 17                	add    %dl,(%edi)
 9dc:	26 00 49 13          	add    %cl,%es:0x13(%ecx)
 9e0:	00 00                	add    %al,(%eax)
 9e2:	18 17                	sbb    %dl,(%edi)
 9e4:	01 0b                	add    %ecx,(%ebx)
 9e6:	0b 3a                	or     (%edx),%edi
 9e8:	0b 3b                	or     (%ebx),%edi
 9ea:	0b 39                	or     (%ecx),%edi
 9ec:	0b 01                	or     (%ecx),%eax
 9ee:	13 00                	adc    (%eax),%eax
 9f0:	00 19                	add    %bl,(%ecx)
 9f2:	0d 00 03 0e 3a       	or     $0x3a0e0300,%eax
 9f7:	0b 3b                	or     (%ebx),%edi
 9f9:	0b 39                	or     (%ecx),%edi
 9fb:	0b 49 13             	or     0x13(%ecx),%ecx
 9fe:	0d 0b 6b 0b 00       	or     $0xb6b0b,%eax
 a03:	00 1a                	add    %bl,(%edx)
 a05:	34 00                	xor    $0x0,%al
 a07:	03 0e                	add    (%esi),%ecx
 a09:	3a 0b                	cmp    (%ebx),%cl
 a0b:	3b 0b                	cmp    (%ebx),%ecx
 a0d:	39 0b                	cmp    %ecx,(%ebx)
 a0f:	49                   	dec    %ecx
 a10:	13 02                	adc    (%edx),%eax
 a12:	18 00                	sbb    %al,(%eax)
 a14:	00 1b                	add    %bl,(%ebx)
 a16:	2e 01 3f             	add    %edi,%cs:(%edi)
 a19:	19 03                	sbb    %eax,(%ebx)
 a1b:	0e                   	push   %cs
 a1c:	3a 0b                	cmp    (%ebx),%cl
 a1e:	3b 0b                	cmp    (%ebx),%ecx
 a20:	39 0b                	cmp    %ecx,(%ebx)
 a22:	27                   	daa    
 a23:	19 49 13             	sbb    %ecx,0x13(%ecx)
 a26:	3c 19                	cmp    $0x19,%al
 a28:	01 13                	add    %edx,(%ebx)
 a2a:	00 00                	add    %al,(%eax)
 a2c:	1c 2e                	sbb    $0x2e,%al
 a2e:	01 3f                	add    %edi,(%edi)
 a30:	19 03                	sbb    %eax,(%ebx)
 a32:	0e                   	push   %cs
 a33:	3a 0b                	cmp    (%ebx),%cl
 a35:	3b 0b                	cmp    (%ebx),%ecx
 a37:	39 0b                	cmp    %ecx,(%ebx)
 a39:	27                   	daa    
 a3a:	19 11                	sbb    %edx,(%ecx)
 a3c:	01 12                	add    %edx,(%edx)
 a3e:	06                   	push   %es
 a3f:	40                   	inc    %eax
 a40:	18 7c 19 00          	sbb    %bh,0x0(%ecx,%ebx,1)
 a44:	00 1d 05 00 03 08    	add    %bl,0x8030005
 a4a:	3a 0b                	cmp    (%ebx),%cl
 a4c:	3b 0b                	cmp    (%ebx),%ecx
 a4e:	39 0b                	cmp    %ecx,(%ebx)
 a50:	49                   	dec    %ecx
 a51:	13 02                	adc    (%edx),%eax
 a53:	18 00                	sbb    %al,(%eax)
 a55:	00 1e                	add    %bl,(%esi)
 a57:	0b 01                	or     (%ecx),%eax
 a59:	11 01                	adc    %eax,(%ecx)
 a5b:	12 06                	adc    (%esi),%al
 a5d:	00 00                	add    %al,(%eax)
 a5f:	00 01                	add    %al,(%ecx)
 a61:	24 00                	and    $0x0,%al
 a63:	0b 0b                	or     (%ebx),%ecx
 a65:	3e 0b 03             	or     %ds:(%ebx),%eax
 a68:	0e                   	push   %cs
 a69:	00 00                	add    %al,(%eax)
 a6b:	02 16                	add    (%esi),%dl
 a6d:	00 03                	add    %al,(%ebx)
 a6f:	0e                   	push   %cs
 a70:	3a 21                	cmp    (%ecx),%ah
 a72:	02 3b                	add    (%ebx),%bh
 a74:	0b 39                	or     (%ecx),%edi
 a76:	21 20                	and    %esp,(%eax)
 a78:	49                   	dec    %ecx
 a79:	13 00                	adc    (%eax),%eax
 a7b:	00 03                	add    %al,(%ebx)
 a7d:	0f 00 0b             	str    (%ebx)
 a80:	21 04 49             	and    %eax,(%ecx,%ecx,2)
 a83:	13 00                	adc    (%eax),%eax
 a85:	00 04 34             	add    %al,(%esp,%esi,1)
 a88:	00 03                	add    %al,(%ebx)
 a8a:	08 3a                	or     %bh,(%edx)
 a8c:	21 01                	and    %eax,(%ecx)
 a8e:	3b 21                	cmp    (%ecx),%esp
 a90:	0a 39                	or     (%ecx),%bh
 a92:	0b 49 13             	or     0x13(%ecx),%ecx
 a95:	02 18                	add    (%eax),%bl
 a97:	00 00                	add    %al,(%eax)
 a99:	05 11 01 25 0e       	add    $0xe250111,%eax
 a9e:	13 0b                	adc    (%ebx),%ecx
 aa0:	03 1f                	add    (%edi),%ebx
 aa2:	1b 1f                	sbb    (%edi),%ebx
 aa4:	11 01                	adc    %eax,(%ecx)
 aa6:	12 06                	adc    (%esi),%al
 aa8:	10 17                	adc    %dl,(%edi)
 aaa:	00 00                	add    %al,(%eax)
 aac:	06                   	push   %es
 aad:	24 00                	and    $0x0,%al
 aaf:	0b 0b                	or     (%ebx),%ecx
 ab1:	3e 0b 03             	or     %ds:(%ebx),%eax
 ab4:	08 00                	or     %al,(%eax)
 ab6:	00 07                	add    %al,(%edi)
 ab8:	26 00 49 13          	add    %cl,%es:0x13(%ecx)
 abc:	00 00                	add    %al,(%eax)
 abe:	08 34 00             	or     %dh,(%eax,%eax,1)
 ac1:	03 0e                	add    (%esi),%ecx
 ac3:	3a 0b                	cmp    (%ebx),%cl
 ac5:	3b 0b                	cmp    (%ebx),%ecx
 ac7:	39 0b                	cmp    %ecx,(%ebx)
 ac9:	49                   	dec    %ecx
 aca:	13 3f                	adc    (%edi),%edi
 acc:	19 3c 19             	sbb    %edi,(%ecx,%ebx,1)
 acf:	00 00                	add    %al,(%eax)
 ad1:	09 2e                	or     %ebp,(%esi)
 ad3:	01 3f                	add    %edi,(%edi)
 ad5:	19 03                	sbb    %eax,(%ebx)
 ad7:	0e                   	push   %cs
 ad8:	3a 0b                	cmp    (%ebx),%cl
 ada:	3b 0b                	cmp    (%ebx),%ecx
 adc:	39 0b                	cmp    %ecx,(%ebx)
 ade:	27                   	daa    
 adf:	19 49 13             	sbb    %ecx,0x13(%ecx)
 ae2:	3c 19                	cmp    $0x19,%al
 ae4:	01 13                	add    %edx,(%ebx)
 ae6:	00 00                	add    %al,(%eax)
 ae8:	0a 05 00 49 13 00    	or     0x134900,%al
 aee:	00 0b                	add    %cl,(%ebx)
 af0:	18 00                	sbb    %al,(%eax)
 af2:	00 00                	add    %al,(%eax)
 af4:	0c 2e                	or     $0x2e,%al
 af6:	01 3f                	add    %edi,(%edi)
 af8:	19 03                	sbb    %eax,(%ebx)
 afa:	0e                   	push   %cs
 afb:	3a 0b                	cmp    (%ebx),%cl
 afd:	3b 0b                	cmp    (%ebx),%ecx
 aff:	39 0b                	cmp    %ecx,(%ebx)
 b01:	27                   	daa    
 b02:	19 11                	sbb    %edx,(%ecx)
 b04:	01 12                	add    %edx,(%edx)
 b06:	06                   	push   %es
 b07:	40                   	inc    %eax
 b08:	18 7c 19 01          	sbb    %bh,0x1(%ecx,%ebx,1)
 b0c:	13 00                	adc    (%eax),%eax
 b0e:	00 0d 05 00 03 0e    	add    %cl,0xe030005
 b14:	3a 0b                	cmp    (%ebx),%cl
 b16:	3b 0b                	cmp    (%ebx),%ecx
 b18:	39 0b                	cmp    %ecx,(%ebx)
 b1a:	49                   	dec    %ecx
 b1b:	13 02                	adc    (%edx),%eax
 b1d:	18 00                	sbb    %al,(%eax)
 b1f:	00 00                	add    %al,(%eax)
 b21:	01 16                	add    %edx,(%esi)
 b23:	00 03                	add    %al,(%ebx)
 b25:	0e                   	push   %cs
 b26:	3a 0b                	cmp    (%ebx),%cl
 b28:	3b 0b                	cmp    (%ebx),%ecx
 b2a:	39 0b                	cmp    %ecx,(%ebx)
 b2c:	49                   	dec    %ecx
 b2d:	13 00                	adc    (%eax),%eax
 b2f:	00 02                	add    %al,(%edx)
 b31:	0d 00 03 0e 3a       	or     $0x3a0e0300,%eax
 b36:	0b 3b                	or     (%ebx),%edi
 b38:	0b 39                	or     (%ecx),%edi
 b3a:	0b 49 13             	or     0x13(%ecx),%ecx
 b3d:	38 0b                	cmp    %cl,(%ebx)
 b3f:	00 00                	add    %al,(%eax)
 b41:	03 0d 00 03 0e 3a    	add    0x3a0e0300,%ecx
 b47:	0b 3b                	or     (%ebx),%edi
 b49:	0b 39                	or     (%ecx),%edi
 b4b:	0b 49 13             	or     0x13(%ecx),%ecx
 b4e:	00 00                	add    %al,(%eax)
 b50:	04 0d                	add    $0xd,%al
 b52:	00 49 13             	add    %cl,0x13(%ecx)
 b55:	00 00                	add    %al,(%eax)
 b57:	05 24 00 0b 0b       	add    $0xb0b0024,%eax
 b5c:	3e 0b 03             	or     %ds:(%ebx),%eax
 b5f:	0e                   	push   %cs
 b60:	00 00                	add    %al,(%eax)
 b62:	06                   	push   %es
 b63:	13 01                	adc    (%ecx),%eax
 b65:	0b 0b                	or     (%ebx),%ecx
 b67:	3a 0b                	cmp    (%ebx),%cl
 b69:	3b 0b                	cmp    (%ebx),%ecx
 b6b:	39 0b                	cmp    %ecx,(%ebx)
 b6d:	01 13                	add    %edx,(%ebx)
 b6f:	00 00                	add    %al,(%eax)
 b71:	07                   	pop    %es
 b72:	0d 00 03 0e 3a       	or     $0x3a0e0300,%eax
 b77:	21 03                	and    %eax,(%ebx)
 b79:	3b 0b                	cmp    (%ebx),%ecx
 b7b:	39 21                	cmp    %esp,(%ecx)
 b7d:	11 49 13             	adc    %ecx,0x13(%ecx)
 b80:	0d 0b 6b 0b 00       	or     $0xb6b0b,%eax
 b85:	00 08                	add    %cl,(%eax)
 b87:	17                   	pop    %ss
 b88:	01 03                	add    %eax,(%ebx)
 b8a:	0e                   	push   %cs
 b8b:	0b 0b                	or     (%ebx),%ecx
 b8d:	3a 0b                	cmp    (%ebx),%cl
 b8f:	3b 0b                	cmp    (%ebx),%ecx
 b91:	39 21                	cmp    %esp,(%ecx)
 b93:	0f 01 13             	lgdtl  (%ebx)
 b96:	00 00                	add    %al,(%eax)
 b98:	09 0d 00 03 08 3a    	or     %ecx,0x3a080300
 b9e:	21 02                	and    %eax,(%edx)
 ba0:	3b 0b                	cmp    (%ebx),%ecx
 ba2:	39 0b                	cmp    %ecx,(%ebx)
 ba4:	49                   	dec    %ecx
 ba5:	13 00                	adc    (%eax),%eax
 ba7:	00 0a                	add    %cl,(%edx)
 ba9:	17                   	pop    %ss
 baa:	01 0b                	add    %ecx,(%ebx)
 bac:	0b 3a                	or     (%edx),%edi
 bae:	0b 3b                	or     (%ebx),%edi
 bb0:	0b 39                	or     (%ecx),%edi
 bb2:	0b 01                	or     (%ecx),%eax
 bb4:	13 00                	adc    (%eax),%eax
 bb6:	00 0b                	add    %cl,(%ebx)
 bb8:	0d 00 49 13 38       	or     $0x38134900,%eax
 bbd:	0b 00                	or     (%eax),%eax
 bbf:	00 0c 01             	add    %cl,(%ecx,%eax,1)
 bc2:	01 49 13             	add    %ecx,0x13(%ecx)
 bc5:	01 13                	add    %edx,(%ebx)
 bc7:	00 00                	add    %al,(%eax)
 bc9:	0d 21 00 49 13       	or     $0x13490021,%eax
 bce:	2f                   	das    
 bcf:	0b 00                	or     (%eax),%eax
 bd1:	00 0e                	add    %cl,(%esi)
 bd3:	0d 00 03 08 3a       	or     $0x3a080300,%eax
 bd8:	21 03                	and    %eax,(%ebx)
 bda:	3b 0b                	cmp    (%ebx),%ecx
 bdc:	39 21                	cmp    %esp,(%ecx)
 bde:	11 49 13             	adc    %ecx,0x13(%ecx)
 be1:	0d 0b 6b 0b 00       	or     $0xb6b0b,%eax
 be6:	00 0f                	add    %cl,(%edi)
 be8:	34 00                	xor    $0x0,%al
 bea:	03 0e                	add    (%esi),%ecx
 bec:	3a 21                	cmp    (%ecx),%ah
 bee:	01 3b                	add    %edi,(%ebx)
 bf0:	0b 39                	or     (%ecx),%edi
 bf2:	0b 49 13             	or     0x13(%ecx),%ecx
 bf5:	02 18                	add    (%eax),%bl
 bf7:	00 00                	add    %al,(%eax)
 bf9:	10 0f                	adc    %cl,(%edi)
 bfb:	00 0b                	add    %cl,(%ebx)
 bfd:	21 04 49             	and    %eax,(%ecx,%ecx,2)
 c00:	13 00                	adc    (%eax),%eax
 c02:	00 11                	add    %dl,(%ecx)
 c04:	11 01                	adc    %eax,(%ecx)
 c06:	25 0e 13 0b 03       	and    $0x30b130e,%eax
 c0b:	1f                   	pop    %ds
 c0c:	1b 1f                	sbb    (%edi),%ebx
 c0e:	11 01                	adc    %eax,(%ecx)
 c10:	12 06                	adc    (%esi),%al
 c12:	10 17                	adc    %dl,(%edi)
 c14:	00 00                	add    %al,(%eax)
 c16:	12 24 00             	adc    (%eax,%eax,1),%ah
 c19:	0b 0b                	or     (%ebx),%ecx
 c1b:	3e 0b 03             	or     %ds:(%ebx),%eax
 c1e:	08 00                	or     %al,(%eax)
 c20:	00 13                	add    %dl,(%ebx)
 c22:	26 00 49 13          	add    %cl,%es:0x13(%ecx)
 c26:	00 00                	add    %al,(%eax)
 c28:	14 13                	adc    $0x13,%al
 c2a:	01 03                	add    %eax,(%ebx)
 c2c:	0e                   	push   %cs
 c2d:	0b 0b                	or     (%ebx),%ecx
 c2f:	3a 0b                	cmp    (%ebx),%cl
 c31:	3b 0b                	cmp    (%ebx),%ecx
 c33:	39 0b                	cmp    %ecx,(%ebx)
 c35:	01 13                	add    %edx,(%ebx)
 c37:	00 00                	add    %al,(%eax)
 c39:	15 2e 01 3f 19       	adc    $0x193f012e,%eax
 c3e:	03 0e                	add    (%esi),%ecx
 c40:	3a 0b                	cmp    (%ebx),%cl
 c42:	3b 0b                	cmp    (%ebx),%ecx
 c44:	39 0b                	cmp    %ecx,(%ebx)
 c46:	27                   	daa    
 c47:	19 49 13             	sbb    %ecx,0x13(%ecx)
 c4a:	3c 19                	cmp    $0x19,%al
 c4c:	01 13                	add    %edx,(%ebx)
 c4e:	00 00                	add    %al,(%eax)
 c50:	16                   	push   %ss
 c51:	05 00 49 13 00       	add    $0x134900,%eax
 c56:	00 17                	add    %dl,(%edi)
 c58:	18 00                	sbb    %al,(%eax)
 c5a:	00 00                	add    %al,(%eax)
 c5c:	18 2e                	sbb    %ch,(%esi)
 c5e:	01 3f                	add    %edi,(%edi)
 c60:	19 03                	sbb    %eax,(%ebx)
 c62:	08 3a                	or     %bh,(%edx)
 c64:	0b 3b                	or     (%ebx),%edi
 c66:	0b 39                	or     (%ecx),%edi
 c68:	0b 11                	or     (%ecx),%edx
 c6a:	01 12                	add    %edx,(%edx)
 c6c:	06                   	push   %es
 c6d:	40                   	inc    %eax
 c6e:	18 7c 19 01          	sbb    %bh,0x1(%ecx,%ebx,1)
 c72:	13 00                	adc    (%eax),%eax
 c74:	00 19                	add    %bl,(%ecx)
 c76:	2e 01 3f             	add    %edi,%cs:(%edi)
 c79:	19 03                	sbb    %eax,(%ebx)
 c7b:	0e                   	push   %cs
 c7c:	3a 0b                	cmp    (%ebx),%cl
 c7e:	3b 0b                	cmp    (%ebx),%ecx
 c80:	39 0b                	cmp    %ecx,(%ebx)
 c82:	11 01                	adc    %eax,(%ecx)
 c84:	12 06                	adc    (%esi),%al
 c86:	40                   	inc    %eax
 c87:	18 7c 19 01          	sbb    %bh,0x1(%ecx,%ebx,1)
 c8b:	13 00                	adc    (%eax),%eax
 c8d:	00 1a                	add    %bl,(%edx)
 c8f:	34 00                	xor    $0x0,%al
 c91:	03 08                	add    (%eax),%ecx
 c93:	3a 0b                	cmp    (%ebx),%cl
 c95:	3b 0b                	cmp    (%ebx),%ecx
 c97:	39 0b                	cmp    %ecx,(%ebx)
 c99:	49                   	dec    %ecx
 c9a:	13 02                	adc    (%edx),%eax
 c9c:	18 00                	sbb    %al,(%eax)
 c9e:	00 1b                	add    %bl,(%ebx)
 ca0:	2e 00 3f             	add    %bh,%cs:(%edi)
 ca3:	19 03                	sbb    %eax,(%ebx)
 ca5:	0e                   	push   %cs
 ca6:	3a 0b                	cmp    (%ebx),%cl
 ca8:	3b 0b                	cmp    (%ebx),%ecx
 caa:	39 0b                	cmp    %ecx,(%ebx)
 cac:	11 01                	adc    %eax,(%ecx)
 cae:	12 06                	adc    (%esi),%al
 cb0:	40                   	inc    %eax
 cb1:	18 7c 19 00          	sbb    %bh,0x0(%ecx,%ebx,1)
	...

Déassemblage de la section .debug_aranges :

00000000 <.debug_aranges>:
   0:	1c 00                	sbb    $0x0,%al
   2:	00 00                	add    %al,(%eax)
   4:	02 00                	add    (%eax),%al
   6:	00 00                	add    %al,(%eax)
   8:	00 00                	add    %al,(%eax)
   a:	04 00                	add    $0x0,%al
   c:	00 00                	add    %al,(%eax)
   e:	00 00                	add    %al,(%eax)
  10:	10 30                	adc    %dh,(%eax)
  12:	30 00                	xor    %al,(%eax)
  14:	13 00                	adc    (%eax),%eax
	...
  1e:	00 00                	add    %al,(%eax)
  20:	1c 00                	sbb    $0x0,%al
  22:	00 00                	add    %al,(%eax)
  24:	02 00                	add    (%eax),%al
  26:	24 00                	and    $0x0,%al
  28:	00 00                	add    %al,(%eax)
  2a:	04 00                	add    $0x0,%al
  2c:	00 00                	add    %al,(%eax)
  2e:	00 00                	add    %al,(%eax)
  30:	23 30                	and    (%eax),%esi
  32:	30 00                	xor    %al,(%eax)
  34:	4a                   	dec    %edx
	...
  3d:	00 00                	add    %al,(%eax)
  3f:	00 1c 00             	add    %bl,(%eax,%eax,1)
  42:	00 00                	add    %al,(%eax)
  44:	02 00                	add    (%eax),%al
  46:	99                   	cltd   
  47:	04 00                	add    $0x0,%al
  49:	00 04 00             	add    %al,(%eax,%eax,1)
  4c:	00 00                	add    %al,(%eax)
  4e:	00 00                	add    %al,(%eax)
  50:	6d                   	insl   (%dx),%es:(%edi)
  51:	30 30                	xor    %dh,(%eax)
  53:	00 97 08 00 00 00    	add    %dl,0x8(%edi)
  59:	00 00                	add    %al,(%eax)
  5b:	00 00                	add    %al,(%eax)
  5d:	00 00                	add    %al,(%eax)
  5f:	00 1c 00             	add    %bl,(%eax,%eax,1)
  62:	00 00                	add    %al,(%eax)
  64:	02 00                	add    (%eax),%al
  66:	56                   	push   %esi
  67:	0f 00 00             	sldt   (%eax)
  6a:	04 00                	add    $0x0,%al
  6c:	00 00                	add    %al,(%eax)
  6e:	00 00                	add    %al,(%eax)
  70:	04 39                	add    $0x39,%al
  72:	30 00                	xor    %al,(%eax)
  74:	a5                   	movsl  %ds:(%esi),%es:(%edi)
  75:	02 00                	add    (%eax),%al
	...
  7f:	00 1c 00             	add    %bl,(%eax,%eax,1)
  82:	00 00                	add    %al,(%eax)
  84:	02 00                	add    (%eax),%al
  86:	6a 18                	push   $0x18
  88:	00 00                	add    %al,(%eax)
  8a:	04 00                	add    $0x0,%al
  8c:	00 00                	add    %al,(%eax)
  8e:	00 00                	add    %al,(%eax)
  90:	a9 3b 30 00 88       	test   $0x8800303b,%eax
	...
  9d:	00 00                	add    %al,(%eax)
  9f:	00 1c 00             	add    %bl,(%eax,%eax,1)
  a2:	00 00                	add    %al,(%eax)
  a4:	02 00                	add    (%eax),%al
  a6:	2a 1b                	sub    (%ebx),%bl
  a8:	00 00                	add    %al,(%eax)
  aa:	04 00                	add    $0x0,%al
  ac:	00 00                	add    %al,(%eax)
  ae:	00 00                	add    %al,(%eax)
  b0:	31 3c 30             	xor    %edi,(%eax,%esi,1)
  b3:	00 ad 01 00 00 00    	add    %ch,0x1(%ebp)
  b9:	00 00                	add    %al,(%eax)
  bb:	00 00                	add    %al,(%eax)
  bd:	00 00                	add    %al,(%eax)
  bf:	00 24 00             	add    %ah,(%eax,%eax,1)
  c2:	00 00                	add    %al,(%eax)
  c4:	02 00                	add    (%eax),%al
  c6:	12 24 00             	adc    (%eax,%eax,1),%ah
  c9:	00 04 00             	add    %al,(%eax,%eax,1)
  cc:	00 00                	add    %al,(%eax)
  ce:	00 00                	add    %al,(%eax)
  d0:	de 3d 30 00 1a 00    	fidivrs 0x1a0030
  d6:	00 00                	add    %al,(%eax)
  d8:	10 20                	adc    %ah,(%eax)
  da:	30 00                	xor    %al,(%eax)
  dc:	fc                   	cld    
  dd:	0f 00 00             	sldt   (%eax)
	...
  e8:	1c 00                	sbb    $0x0,%al
  ea:	00 00                	add    %al,(%eax)
  ec:	02 00                	add    (%eax),%al
  ee:	35 24 00 00 04       	xor    $0x4000024,%eax
  f3:	00 00                	add    %al,(%eax)
  f5:	00 00                	add    %al,(%eax)
  f7:	00 f8                	add    %bh,%al
  f9:	3d 30 00 7c 01       	cmp    $0x17c0030,%eax
	...
 106:	00 00                	add    %al,(%eax)
 108:	1c 00                	sbb    $0x0,%al
 10a:	00 00                	add    %al,(%eax)
 10c:	02 00                	add    (%eax),%al
 10e:	e0 2a                	loopne 13a <mbh-0x2ffec6>
 110:	00 00                	add    %al,(%eax)
 112:	04 00                	add    $0x0,%al
 114:	00 00                	add    %al,(%eax)
 116:	00 00                	add    %al,(%eax)
 118:	74 3f                	je     159 <mbh-0x2ffea7>
 11a:	30 00                	xor    %al,(%eax)
 11c:	56                   	push   %esi
	...
 125:	00 00                	add    %al,(%eax)
 127:	00 1c 00             	add    %bl,(%eax,%eax,1)
 12a:	00 00                	add    %al,(%eax)
 12c:	02 00                	add    (%eax),%al
 12e:	d3 2b                	shrl   %cl,(%ebx)
 130:	00 00                	add    %al,(%eax)
 132:	04 00                	add    $0x0,%al
 134:	00 00                	add    %al,(%eax)
 136:	00 00                	add    %al,(%eax)
 138:	ca 3f 30             	lret   $0x303f
 13b:	00 0b                	add    %cl,(%ebx)
 13d:	01 00                	add    %eax,(%eax)
	...

Déassemblage de la section .debug_str :

00000000 <.debug_str>:
   0:	2e 2e 2f             	cs cs das 
   3:	6b 65 72 6e          	imul   $0x6e,0x72(%ebp),%esp
   7:	65 6c                	gs insb (%dx),%es:(%edi)
   9:	2f                   	das    
   a:	63 6f 72             	arpl   %bp,0x72(%edi)
   d:	65 2f                	gs das 
   f:	65 6e                	outsb  %gs:(%esi),(%dx)
  11:	74 72                	je     85 <mbh-0x2fff7b>
  13:	79 2e                	jns    43 <mbh-0x2fffbd>
  15:	73 00                	jae    17 <mbh-0x2fffe9>
  17:	2f                   	das    
  18:	72 6f                	jb     89 <mbh-0x2fff77>
  1a:	6f                   	outsl  %ds:(%esi),(%dx)
  1b:	74 2f                	je     4c <mbh-0x2fffb4>
  1d:	73 65                	jae    84 <mbh-0x2fff7c>
  1f:	63 6f 73             	arpl   %bp,0x73(%edi)
  22:	2d 6e 67 2f 74       	sub    $0x742f676e,%eax
  27:	70 32                	jo     5b <mbh-0x2fffa5>
  29:	00 47 4e             	add    %al,0x4e(%edi)
  2c:	55                   	push   %ebp
  2d:	20 41 53             	and    %al,0x53(%ecx)
  30:	20 32                	and    %dh,(%edx)
  32:	2e 33 38             	xor    %cs:(%eax),%edi
  35:	00 75 61             	add    %dh,0x61(%ebp)
  38:	72 74                	jb     ae <mbh-0x2fff52>
  3a:	5f                   	pop    %edi
  3b:	69 6e 69 74 00 66 72 	imul   $0x72660074,0x69(%esi),%ebp
  42:	61                   	popa   
  43:	6d                   	insl   (%dx),%es:(%edi)
  44:	65 62 75 66          	bound  %esi,%gs:0x66(%ebp)
  48:	66 65 72 5f          	data16 gs jb ab <mbh-0x2fff55>
  4c:	62 6c 75 65          	bound  %ebp,0x65(%ebp,%esi,2)
  50:	5f                   	pop    %edi
  51:	6d                   	insl   (%dx),%es:(%edi)
  52:	61                   	popa   
  53:	73 6b                	jae    c0 <mbh-0x2fff40>
  55:	5f                   	pop    %edi
  56:	73 69                	jae    c1 <mbh-0x2fff3f>
  58:	7a 65                	jp     bf <mbh-0x2fff41>
  5a:	00 6d 6d             	add    %ch,0x6d(%ebp)
  5d:	61                   	popa   
  5e:	70 5f                	jo     bf <mbh-0x2fff41>
  60:	61                   	popa   
  61:	64 64 72 00          	fs fs jb 65 <mbh-0x2fff9b>
  65:	66 72 61             	data16 jb c9 <mbh-0x2fff37>
  68:	6d                   	insl   (%dx),%es:(%edi)
  69:	65 62 75 66          	bound  %esi,%gs:0x66(%ebp)
  6d:	66 65 72 5f          	data16 gs jb d0 <mbh-0x2fff30>
  71:	61                   	popa   
  72:	64 64 72 00          	fs fs jb 76 <mbh-0x2fff8a>
  76:	76 62                	jbe    da <mbh-0x2fff26>
  78:	65 5f                	gs pop %edi
  7a:	69 6e 74 65 72 66 61 	imul   $0x61667265,0x74(%esi),%ebp
  81:	63 65 5f             	arpl   %sp,0x5f(%ebp)
  84:	6f                   	outsl  %ds:(%esi),(%dx)
  85:	66 66 00 6d 75       	data16 data16 add %ch,0x75(%ebp)
  8a:	6c                   	insb   (%dx),%es:(%edi)
  8b:	74 69                	je     f6 <mbh-0x2fff0a>
  8d:	62 6f 6f             	bound  %ebp,0x6f(%edi)
  90:	74 5f                	je     f1 <mbh-0x2fff0f>
  92:	75 69                	jne    fd <mbh-0x2fff03>
  94:	6e                   	outsb  %ds:(%esi),(%dx)
  95:	74 33                	je     ca <mbh-0x2fff36>
  97:	32 5f 74             	xor    0x74(%edi),%bl
  9a:	00 73 68             	add    %dh,0x68(%ebx)
  9d:	6f                   	outsl  %ds:(%esi),(%dx)
  9e:	72 74                	jb     114 <mbh-0x2ffeec>
  a0:	20 69 6e             	and    %ch,0x6e(%ecx)
  a3:	74 00                	je     a5 <mbh-0x2fff5b>
  a5:	73 69                	jae    110 <mbh-0x2ffef0>
  a7:	7a 65                	jp     10e <mbh-0x2ffef2>
  a9:	5f                   	pop    %edi
  aa:	74 00                	je     ac <mbh-0x2fff54>
  ac:	66 72 61             	data16 jb 110 <mbh-0x2ffef0>
  af:	6d                   	insl   (%dx),%es:(%edi)
  b0:	65 62 75 66          	bound  %esi,%gs:0x66(%ebp)
  b4:	66 65 72 5f          	data16 gs jb 117 <mbh-0x2ffee9>
  b8:	72 65                	jb     11f <mbh-0x2ffee1>
  ba:	64 5f                	fs pop %edi
  bc:	66 69 65 6c 64 5f    	imul   $0x5f64,0x6c(%ebp),%sp
  c2:	70 6f                	jo     133 <mbh-0x2ffecd>
  c4:	73 69                	jae    12f <mbh-0x2ffed1>
  c6:	74 69                	je     131 <mbh-0x2ffecf>
  c8:	6f                   	outsl  %ds:(%esi),(%dx)
  c9:	6e                   	outsb  %ds:(%esi),(%dx)
  ca:	00 5f 5f             	add    %bl,0x5f(%edi)
  cd:	69 6e 66 6f 00 64 72 	imul   $0x7264006f,0x66(%esi),%ebp
  d4:	69 76 65 73 5f 61 64 	imul   $0x64615f73,0x65(%esi),%esi
  db:	64 72 00             	fs jb  de <mbh-0x2fff22>
  de:	63 6d 64             	arpl   %bp,0x64(%ebp)
  e1:	6c                   	insb   (%dx),%es:(%edi)
  e2:	69 6e 65 00 70 61 6e 	imul   $0x6e617000,0x65(%esi),%ebp
  e9:	69 63 00 61 6f 75 74 	imul   $0x74756f61,0x0(%ebx),%esp
  f0:	5f                   	pop    %edi
  f1:	73 79                	jae    16c <mbh-0x2ffe94>
  f3:	6d                   	insl   (%dx),%es:(%edi)
  f4:	00 6d 6f             	add    %ch,0x6f(%ebp)
  f7:	64 73 5f             	fs jae 159 <mbh-0x2ffea7>
  fa:	61                   	popa   
  fb:	64 64 72 00          	fs fs jb ff <mbh-0x2fff01>
  ff:	6d                   	insl   (%dx),%es:(%edi)
 100:	75 6c                	jne    16e <mbh-0x2ffe92>
 102:	74 69                	je     16d <mbh-0x2ffe93>
 104:	62 6f 6f             	bound  %ebp,0x6f(%edi)
 107:	74 5f                	je     168 <mbh-0x2ffe98>
 109:	75 69                	jne    174 <mbh-0x2ffe8c>
 10b:	6e                   	outsb  %ds:(%esi),(%dx)
 10c:	74 31                	je     13f <mbh-0x2ffec1>
 10e:	36 5f                	ss pop %edi
 110:	74 00                	je     112 <mbh-0x2ffeee>
 112:	73 74                	jae    188 <mbh-0x2ffe78>
 114:	72 73                	jb     189 <mbh-0x2ffe77>
 116:	69 7a 65 00 70 69 63 	imul   $0x63697000,0x65(%edx),%edi
 11d:	5f                   	pop    %edi
 11e:	69 6e 69 74 00 6d 75 	imul   $0x756d0074,0x69(%esi),%ebp
 125:	6c                   	insb   (%dx),%es:(%edi)
 126:	74 69                	je     191 <mbh-0x2ffe6f>
 128:	62 6f 6f             	bound  %ebp,0x6f(%edi)
 12b:	74 5f                	je     18c <mbh-0x2ffe74>
 12d:	65 6c                	gs insb (%dx),%es:(%edi)
 12f:	66 5f                	pop    %di
 131:	73 65                	jae    198 <mbh-0x2ffe68>
 133:	63 74 69 6f          	arpl   %si,0x6f(%ecx,%ebp,2)
 137:	6e                   	outsb  %ds:(%esi),(%dx)
 138:	5f                   	pop    %edi
 139:	68 65 61 64 65       	push   $0x65646165
 13e:	72 5f                	jb     19f <mbh-0x2ffe61>
 140:	74 61                	je     1a3 <mbh-0x2ffe5d>
 142:	62 6c 65 5f          	bound  %ebp,0x5f(%ebp,%eiz,2)
 146:	74 00                	je     148 <mbh-0x2ffeb8>
 148:	73 68                	jae    1b2 <mbh-0x2ffe4e>
 14a:	6e                   	outsb  %ds:(%esi),(%dx)
 14b:	64 78 00             	fs js  14e <mbh-0x2ffeb2>
 14e:	61                   	popa   
 14f:	70 6d                	jo     1be <mbh-0x2ffe42>
 151:	5f                   	pop    %edi
 152:	74 61                	je     1b5 <mbh-0x2ffe4b>
 154:	62 6c 65 00          	bound  %ebp,0x0(%ebp,%eiz,2)
 158:	6c                   	insb   (%dx),%es:(%edi)
 159:	6f                   	outsl  %ds:(%esi),(%dx)
 15a:	6e                   	outsb  %ds:(%esi),(%dx)
 15b:	67 20 6c 6f          	and    %ch,0x6f(%si)
 15f:	6e                   	outsb  %ds:(%esi),(%dx)
 160:	67 20 69 6e          	and    %ch,0x6e(%bx,%di)
 164:	74 00                	je     166 <mbh-0x2ffe9a>
 166:	6d                   	insl   (%dx),%es:(%edi)
 167:	62 69 5f             	bound  %ebp,0x5f(%ecx)
 16a:	74 00                	je     16c <mbh-0x2ffe94>
 16c:	66 72 61             	data16 jb 1d0 <mbh-0x2ffe30>
 16f:	6d                   	insl   (%dx),%es:(%edi)
 170:	65 62 75 66          	bound  %esi,%gs:0x66(%ebp)
 174:	66 65 72 5f          	data16 gs jb 1d7 <mbh-0x2ffe29>
 178:	70 61                	jo     1db <mbh-0x2ffe25>
 17a:	6c                   	insb   (%dx),%es:(%edi)
 17b:	65 74 74             	gs je  1f2 <mbh-0x2ffe0e>
 17e:	65 5f                	gs pop %edi
 180:	6e                   	outsb  %ds:(%esi),(%dx)
 181:	75 6d                	jne    1f0 <mbh-0x2ffe10>
 183:	5f                   	pop    %edi
 184:	63 6f 6c             	arpl   %bp,0x6c(%edi)
 187:	6f                   	outsl  %ds:(%esi),(%dx)
 188:	72 73                	jb     1fd <mbh-0x2ffe03>
 18a:	00 66 72             	add    %ah,0x72(%esi)
 18d:	61                   	popa   
 18e:	6d                   	insl   (%dx),%es:(%edi)
 18f:	65 62 75 66          	bound  %esi,%gs:0x66(%ebp)
 193:	66 65 72 5f          	data16 gs jb 1f6 <mbh-0x2ffe0a>
 197:	62 6c 75 65          	bound  %ebp,0x65(%ebp,%esi,2)
 19b:	5f                   	pop    %edi
 19c:	66 69 65 6c 64 5f    	imul   $0x5f64,0x6c(%ebp),%sp
 1a2:	70 6f                	jo     213 <mbh-0x2ffded>
 1a4:	73 69                	jae    20f <mbh-0x2ffdf1>
 1a6:	74 69                	je     211 <mbh-0x2ffdef>
 1a8:	6f                   	outsl  %ds:(%esi),(%dx)
 1a9:	6e                   	outsb  %ds:(%esi),(%dx)
 1aa:	00 66 72             	add    %ah,0x72(%esi)
 1ad:	61                   	popa   
 1ae:	6d                   	insl   (%dx),%es:(%edi)
 1af:	65 62 75 66          	bound  %esi,%gs:0x66(%ebp)
 1b3:	66 65 72 5f          	data16 gs jb 216 <mbh-0x2ffdea>
 1b7:	62 70 70             	bound  %esi,0x70(%eax)
 1ba:	00 76 62             	add    %dh,0x62(%esi)
 1bd:	65 5f                	gs pop %edi
 1bf:	6d                   	insl   (%dx),%es:(%edi)
 1c0:	6f                   	outsl  %ds:(%esi),(%dx)
 1c1:	64 65 5f             	fs gs pop %edi
 1c4:	69 6e 66 6f 00 75 6e 	imul   $0x6e75006f,0x66(%esi),%ebp
 1cb:	73 69                	jae    236 <mbh-0x2ffdca>
 1cd:	67 6e                	outsb  %ds:(%si),(%dx)
 1cf:	65 64 20 63 68       	gs and %ah,%fs:0x68(%ebx)
 1d4:	61                   	popa   
 1d5:	72 00                	jb     1d7 <mbh-0x2ffe29>
 1d7:	76 62                	jbe    23b <mbh-0x2ffdc5>
 1d9:	65 5f                	gs pop %edi
 1db:	63 6f 6e             	arpl   %bp,0x6e(%edi)
 1de:	74 72                	je     252 <mbh-0x2ffdae>
 1e0:	6f                   	outsl  %ds:(%esi),(%dx)
 1e1:	6c                   	insb   (%dx),%es:(%edi)
 1e2:	5f                   	pop    %edi
 1e3:	69 6e 66 6f 00 65 6c 	imul   $0x6c65006f,0x66(%esi),%ebp
 1ea:	66 5f                	pop    %di
 1ec:	73 65                	jae    253 <mbh-0x2ffdad>
 1ee:	63 00                	arpl   %ax,(%eax)
 1f0:	6d                   	insl   (%dx),%es:(%edi)
 1f1:	65 6d                	gs insl (%dx),%es:(%edi)
 1f3:	5f                   	pop    %edi
 1f4:	6c                   	insb   (%dx),%es:(%edi)
 1f5:	6f                   	outsl  %ds:(%esi),(%dx)
 1f6:	77 65                	ja     25d <mbh-0x2ffda3>
 1f8:	72 00                	jb     1fa <mbh-0x2ffe06>
 1fa:	76 62                	jbe    25e <mbh-0x2ffda2>
 1fc:	65 5f                	gs pop %edi
 1fe:	6d                   	insl   (%dx),%es:(%edi)
 1ff:	6f                   	outsl  %ds:(%esi),(%dx)
 200:	64 65 00 6c 6f 6e    	fs add %ch,%gs:0x6e(%edi,%ebp,2)
 206:	67 20 6c 6f          	and    %ch,0x6f(%si)
 20a:	6e                   	outsb  %ds:(%esi),(%dx)
 20b:	67 20 75 6e          	and    %dh,0x6e(%di)
 20f:	73 69                	jae    27a <mbh-0x2ffd86>
 211:	67 6e                	outsb  %ds:(%si),(%dx)
 213:	65 64 20 69 6e       	gs and %ch,%fs:0x6e(%ecx)
 218:	74 00                	je     21a <mbh-0x2ffde6>
 21a:	66 72 61             	data16 jb 27e <mbh-0x2ffd82>
 21d:	6d                   	insl   (%dx),%es:(%edi)
 21e:	65 62 75 66          	bound  %esi,%gs:0x66(%ebp)
 222:	66 65 72 5f          	data16 gs jb 285 <mbh-0x2ffd7b>
 226:	77 69                	ja     291 <mbh-0x2ffd6f>
 228:	64 74 68             	fs je  293 <mbh-0x2ffd6d>
 22b:	00 6d 6d             	add    %ch,0x6d(%ebp)
 22e:	61                   	popa   
 22f:	70 5f                	jo     290 <mbh-0x2ffd70>
 231:	6c                   	insb   (%dx),%es:(%edi)
 232:	65 6e                	outsb  %gs:(%esi),(%dx)
 234:	67 74 68             	addr16 je 29f <mbh-0x2ffd61>
 237:	00 66 72             	add    %ah,0x72(%esi)
 23a:	61                   	popa   
 23b:	6d                   	insl   (%dx),%es:(%edi)
 23c:	65 62 75 66          	bound  %esi,%gs:0x66(%ebp)
 240:	66 65 72 5f          	data16 gs jb 2a3 <mbh-0x2ffd5d>
 244:	67 72 65             	addr16 jb 2ac <mbh-0x2ffd54>
 247:	65 6e                	outsb  %gs:(%esi),(%dx)
 249:	5f                   	pop    %edi
 24a:	66 69 65 6c 64 5f    	imul   $0x5f64,0x6c(%ebp),%sp
 250:	70 6f                	jo     2c1 <mbh-0x2ffd3f>
 252:	73 69                	jae    2bd <mbh-0x2ffd43>
 254:	74 69                	je     2bf <mbh-0x2ffd41>
 256:	6f                   	outsl  %ds:(%esi),(%dx)
 257:	6e                   	outsb  %ds:(%esi),(%dx)
 258:	00 69 6e             	add    %ch,0x6e(%ecx)
 25b:	66 6f                	outsw  %ds:(%esi),(%dx)
 25d:	72 6d                	jb     2cc <mbh-0x2ffd34>
 25f:	61                   	popa   
 260:	74 69                	je     2cb <mbh-0x2ffd35>
 262:	6f                   	outsl  %ds:(%esi),(%dx)
 263:	6e                   	outsb  %ds:(%esi),(%dx)
 264:	00 73 74             	add    %dh,0x74(%ebx)
 267:	61                   	popa   
 268:	72 74                	jb     2de <mbh-0x2ffd22>
 26a:	00 73 68             	add    %dh,0x68(%ebx)
 26d:	6f                   	outsl  %ds:(%esi),(%dx)
 26e:	72 74                	jb     2e4 <mbh-0x2ffd1c>
 270:	20 75 6e             	and    %dh,0x6e(%ebp)
 273:	73 69                	jae    2de <mbh-0x2ffd22>
 275:	67 6e                	outsb  %ds:(%si),(%dx)
 277:	65 64 20 69 6e       	gs and %ch,%fs:0x6e(%ecx)
 27c:	74 00                	je     27e <mbh-0x2ffd82>
 27e:	6d                   	insl   (%dx),%es:(%edi)
 27f:	75 6c                	jne    2ed <mbh-0x2ffd13>
 281:	74 69                	je     2ec <mbh-0x2ffd14>
 283:	62 6f 6f             	bound  %ebp,0x6f(%edi)
 286:	74 5f                	je     2e7 <mbh-0x2ffd19>
 288:	75 69                	jne    2f3 <mbh-0x2ffd0d>
 28a:	6e                   	outsb  %ds:(%esi),(%dx)
 28b:	74 36                	je     2c3 <mbh-0x2ffd3d>
 28d:	34 5f                	xor    $0x5f,%al
 28f:	74 00                	je     291 <mbh-0x2ffd6f>
 291:	69 6e 74 72 5f 69 6e 	imul   $0x6e695f72,0x74(%esi),%ebp
 298:	69 74 00 62 6f 6f 74 	imul   $0x5f746f6f,0x62(%eax,%eax,1),%esi
 29f:	5f 
 2a0:	64 65 76 69          	fs gs jbe 30d <mbh-0x2ffcf3>
 2a4:	63 65 00             	arpl   %sp,0x0(%ebp)
 2a7:	6d                   	insl   (%dx),%es:(%edi)
 2a8:	75 6c                	jne    316 <mbh-0x2ffcea>
 2aa:	74 69                	je     315 <mbh-0x2ffceb>
 2ac:	62 6f 6f             	bound  %ebp,0x6f(%edi)
 2af:	74 5f                	je     310 <mbh-0x2ffcf0>
 2b1:	69 6e 66 6f 00 6d 75 	imul   $0x756d006f,0x66(%esi),%ebp
 2b8:	6c                   	insb   (%dx),%es:(%edi)
 2b9:	74 69                	je     324 <mbh-0x2ffcdc>
 2bb:	62 6f 6f             	bound  %ebp,0x6f(%edi)
 2be:	74 5f                	je     31f <mbh-0x2ffce1>
 2c0:	65 6c                	gs insb (%dx),%es:(%edi)
 2c2:	66 5f                	pop    %di
 2c4:	73 65                	jae    32b <mbh-0x2ffcd5>
 2c6:	63 74 69 6f          	arpl   %si,0x6f(%ecx,%ebp,2)
 2ca:	6e                   	outsb  %ds:(%esi),(%dx)
 2cb:	5f                   	pop    %edi
 2cc:	68 65 61 64 65       	push   $0x65646165
 2d1:	72 5f                	jb     332 <mbh-0x2ffcce>
 2d3:	74 61                	je     336 <mbh-0x2ffcca>
 2d5:	62 6c 65 00          	bound  %ebp,0x0(%ebp,%eiz,2)
 2d9:	66 72 61             	data16 jb 33d <mbh-0x2ffcc3>
 2dc:	6d                   	insl   (%dx),%es:(%edi)
 2dd:	65 62 75 66          	bound  %esi,%gs:0x66(%ebp)
 2e1:	66 65 72 5f          	data16 gs jb 344 <mbh-0x2ffcbc>
 2e5:	70 69                	jo     350 <mbh-0x2ffcb0>
 2e7:	74 63                	je     34c <mbh-0x2ffcb4>
 2e9:	68 00 66 72 61       	push   $0x61726600
 2ee:	6d                   	insl   (%dx),%es:(%edi)
 2ef:	65 62 75 66          	bound  %esi,%gs:0x66(%ebp)
 2f3:	66 65 72 5f          	data16 gs jb 356 <mbh-0x2ffcaa>
 2f7:	74 79                	je     372 <mbh-0x2ffc8e>
 2f9:	70 65                	jo     360 <mbh-0x2ffca0>
 2fb:	00 6d 75             	add    %ch,0x75(%ebp)
 2fe:	6c                   	insb   (%dx),%es:(%edi)
 2ff:	74 69                	je     36a <mbh-0x2ffc96>
 301:	62 6f 6f             	bound  %ebp,0x6f(%edi)
 304:	74 5f                	je     365 <mbh-0x2ffc9b>
 306:	61                   	popa   
 307:	6f                   	outsl  %ds:(%esi),(%dx)
 308:	75 74                	jne    37e <mbh-0x2ffc82>
 30a:	5f                   	pop    %edi
 30b:	73 79                	jae    386 <mbh-0x2ffc7a>
 30d:	6d                   	insl   (%dx),%es:(%edi)
 30e:	62 6f 6c             	bound  %ebp,0x6c(%edi)
 311:	5f                   	pop    %edi
 312:	74 61                	je     375 <mbh-0x2ffc8b>
 314:	62 6c 65 5f          	bound  %ebp,0x5f(%ebp,%eiz,2)
 318:	74 00                	je     31a <mbh-0x2ffce6>
 31a:	76 62                	jbe    37e <mbh-0x2ffc82>
 31c:	65 5f                	gs pop %edi
 31e:	69 6e 74 65 72 66 61 	imul   $0x61667265,0x74(%esi),%ebp
 325:	63 65 5f             	arpl   %sp,0x5f(%ebp)
 328:	6c                   	insb   (%dx),%es:(%edi)
 329:	65 6e                	outsb  %gs:(%esi),(%dx)
 32b:	00 74 61 62          	add    %dh,0x62(%ecx,%eiz,2)
 32f:	73 69                	jae    39a <mbh-0x2ffc66>
 331:	7a 65                	jp     398 <mbh-0x2ffc68>
 333:	00 66 72             	add    %ah,0x72(%esi)
 336:	61                   	popa   
 337:	6d                   	insl   (%dx),%es:(%edi)
 338:	65 62 75 66          	bound  %esi,%gs:0x66(%ebp)
 33c:	66 65 72 5f          	data16 gs jb 39f <mbh-0x2ffc61>
 340:	72 65                	jb     3a7 <mbh-0x2ffc59>
 342:	64 5f                	fs pop %edi
 344:	6d                   	insl   (%dx),%es:(%edi)
 345:	61                   	popa   
 346:	73 6b                	jae    3b3 <mbh-0x2ffc4d>
 348:	5f                   	pop    %edi
 349:	73 69                	jae    3b4 <mbh-0x2ffc4c>
 34b:	7a 65                	jp     3b2 <mbh-0x2ffc4e>
 34d:	00 64 72 69          	add    %ah,0x69(%edx,%esi,2)
 351:	76 65                	jbe    3b8 <mbh-0x2ffc48>
 353:	73 5f                	jae    3b4 <mbh-0x2ffc4c>
 355:	6c                   	insb   (%dx),%es:(%edi)
 356:	65 6e                	outsb  %gs:(%esi),(%dx)
 358:	67 74 68             	addr16 je 3c3 <mbh-0x2ffc3d>
 35b:	00 6d 65             	add    %ch,0x65(%ebp)
 35e:	6d                   	insl   (%dx),%es:(%edi)
 35f:	5f                   	pop    %edi
 360:	75 70                	jne    3d2 <mbh-0x2ffc2e>
 362:	70 65                	jo     3c9 <mbh-0x2ffc37>
 364:	72 00                	jb     366 <mbh-0x2ffc9a>
 366:	63 6f 6e             	arpl   %bp,0x6e(%edi)
 369:	66 69 67 5f 74 61    	imul   $0x6174,0x5f(%edi),%sp
 36f:	62 6c 65 00          	bound  %ebp,0x0(%ebp,%eiz,2)
 373:	66 72 61             	data16 jb 3d7 <mbh-0x2ffc29>
 376:	6d                   	insl   (%dx),%es:(%edi)
 377:	65 62 75 66          	bound  %esi,%gs:0x66(%ebp)
 37b:	66 65 72 5f          	data16 gs jb 3de <mbh-0x2ffc22>
 37f:	67 72 65             	addr16 jb 3e7 <mbh-0x2ffc19>
 382:	65 6e                	outsb  %gs:(%esi),(%dx)
 384:	5f                   	pop    %edi
 385:	6d                   	insl   (%dx),%es:(%edi)
 386:	61                   	popa   
 387:	73 6b                	jae    3f4 <mbh-0x2ffc0c>
 389:	5f                   	pop    %edi
 38a:	73 69                	jae    3f5 <mbh-0x2ffc0b>
 38c:	7a 65                	jp     3f3 <mbh-0x2ffc0d>
 38e:	00 6d 75             	add    %ch,0x75(%ebp)
 391:	6c                   	insb   (%dx),%es:(%edi)
 392:	74 69                	je     3fd <mbh-0x2ffc03>
 394:	62 6f 6f             	bound  %ebp,0x6f(%edi)
 397:	74 5f                	je     3f8 <mbh-0x2ffc08>
 399:	69 6e 66 6f 5f 74 00 	imul   $0x745f6f,0x66(%esi),%ebp
 3a0:	66 72 61             	data16 jb 404 <mbh-0x2ffbfc>
 3a3:	6d                   	insl   (%dx),%es:(%edi)
 3a4:	65 62 75 66          	bound  %esi,%gs:0x66(%ebp)
 3a8:	66 65 72 5f          	data16 gs jb 40b <mbh-0x2ffbf5>
 3ac:	68 65 69 67 68       	push   $0x68676965
 3b1:	74 00                	je     3b3 <mbh-0x2ffc4d>
 3b3:	6d                   	insl   (%dx),%es:(%edi)
 3b4:	75 6c                	jne    422 <mbh-0x2ffbde>
 3b6:	74 69                	je     421 <mbh-0x2ffbdf>
 3b8:	62 6f 6f             	bound  %ebp,0x6f(%edi)
 3bb:	74 5f                	je     41c <mbh-0x2ffbe4>
 3bd:	61                   	popa   
 3be:	6f                   	outsl  %ds:(%esi),(%dx)
 3bf:	75 74                	jne    435 <mbh-0x2ffbcb>
 3c1:	5f                   	pop    %edi
 3c2:	73 79                	jae    43d <mbh-0x2ffbc3>
 3c4:	6d                   	insl   (%dx),%es:(%edi)
 3c5:	62 6f 6c             	bound  %ebp,0x6c(%edi)
 3c8:	5f                   	pop    %edi
 3c9:	74 61                	je     42c <mbh-0x2ffbd4>
 3cb:	62 6c 65 00          	bound  %ebp,0x0(%ebp,%eiz,2)
 3cf:	6d                   	insl   (%dx),%es:(%edi)
 3d0:	6f                   	outsl  %ds:(%esi),(%dx)
 3d1:	64 73 5f             	fs jae 433 <mbh-0x2ffbcd>
 3d4:	63 6f 75             	arpl   %bp,0x75(%edi)
 3d7:	6e                   	outsb  %ds:(%esi),(%dx)
 3d8:	74 00                	je     3da <mbh-0x2ffc26>
 3da:	6d                   	insl   (%dx),%es:(%edi)
 3db:	75 6c                	jne    449 <mbh-0x2ffbb7>
 3dd:	74 69                	je     448 <mbh-0x2ffbb8>
 3df:	62 6f 6f             	bound  %ebp,0x6f(%edi)
 3e2:	74 5f                	je     443 <mbh-0x2ffbbd>
 3e4:	75 69                	jne    44f <mbh-0x2ffbb1>
 3e6:	6e                   	outsb  %ds:(%esi),(%dx)
 3e7:	74 38                	je     421 <mbh-0x2ffbdf>
 3e9:	5f                   	pop    %edi
 3ea:	74 00                	je     3ec <mbh-0x2ffc14>
 3ec:	62 6f 6f             	bound  %ebp,0x6f(%edi)
 3ef:	74 5f                	je     450 <mbh-0x2ffbb0>
 3f1:	6c                   	insb   (%dx),%es:(%edi)
 3f2:	6f                   	outsl  %ds:(%esi),(%dx)
 3f3:	61                   	popa   
 3f4:	64 65 72 5f          	fs gs jb 457 <mbh-0x2ffba9>
 3f8:	6e                   	outsb  %ds:(%esi),(%dx)
 3f9:	61                   	popa   
 3fa:	6d                   	insl   (%dx),%es:(%edi)
 3fb:	65 00 76 62          	add    %dh,%gs:0x62(%esi)
 3ff:	65 5f                	gs pop %edi
 401:	69 6e 74 65 72 66 61 	imul   $0x61667265,0x74(%esi),%ebp
 408:	63 65 5f             	arpl   %sp,0x5f(%ebp)
 40b:	73 65                	jae    472 <mbh-0x2ffb8e>
 40d:	67 00 72 65          	add    %dh,0x65(%bp,%si)
 411:	73 65                	jae    478 <mbh-0x2ffb88>
 413:	72 76                	jb     48b <mbh-0x2ffb75>
 415:	65 64 00 47 4e       	gs add %al,%fs:0x4e(%edi)
 41a:	55                   	push   %ebp
 41b:	20 43 31             	and    %al,0x31(%ebx)
 41e:	37                   	aaa    
 41f:	20 31                	and    %dh,(%ecx)
 421:	31 2e                	xor    %ebp,(%esi)
 423:	34 2e                	xor    $0x2e,%al
 425:	30 20                	xor    %ah,(%eax)
 427:	2d 6d 6e 6f 2d       	sub    $0x2d6f6e6d,%eax
 42c:	6d                   	insl   (%dx),%es:(%edi)
 42d:	6d                   	insl   (%dx),%es:(%edi)
 42e:	78 20                	js     450 <mbh-0x2ffbb0>
 430:	2d 6d 6e 6f 2d       	sub    $0x2d6f6e6d,%eax
 435:	73 73                	jae    4aa <mbh-0x2ffb56>
 437:	65 20 2d 6d 6e 6f 2d 	and    %ch,%gs:0x2d6f6e6d
 43e:	73 73                	jae    4b3 <mbh-0x2ffb4d>
 440:	65 32 20             	xor    %gs:(%eax),%ah
 443:	2d 6d 6e 6f 2d       	sub    $0x2d6f6e6d,%eax
 448:	73 73                	jae    4bd <mbh-0x2ffb43>
 44a:	65 33 20             	xor    %gs:(%eax),%esp
 44d:	2d 6d 6e 6f 2d       	sub    $0x2d6f6e6d,%eax
 452:	73 73                	jae    4c7 <mbh-0x2ffb39>
 454:	73 65                	jae    4bb <mbh-0x2ffb45>
 456:	33 20                	xor    (%eax),%esp
 458:	2d 6d 6e 6f 2d       	sub    $0x2d6f6e6d,%eax
 45d:	73 73                	jae    4d2 <mbh-0x2ffb2e>
 45f:	65 34 2e             	gs xor $0x2e,%al
 462:	31 20                	xor    %esp,(%eax)
 464:	2d 6d 6e 6f 2d       	sub    $0x2d6f6e6d,%eax
 469:	73 73                	jae    4de <mbh-0x2ffb22>
 46b:	65 34 2e             	gs xor $0x2e,%al
 46e:	32 20                	xor    (%eax),%ah
 470:	2d 6d 6e 6f 2d       	sub    $0x2d6f6e6d,%eax
 475:	73 73                	jae    4ea <mbh-0x2ffb16>
 477:	65 34 20             	gs xor $0x20,%al
 47a:	2d 6d 6e 6f 2d       	sub    $0x2d6f6e6d,%eax
 47f:	61                   	popa   
 480:	76 78                	jbe    4fa <mbh-0x2ffb06>
 482:	20 2d 6d 6e 6f 2d    	and    %ch,0x2d6f6e6d
 488:	61                   	popa   
 489:	76 78                	jbe    503 <mbh-0x2ffafd>
 48b:	32 20                	xor    (%eax),%ah
 48d:	2d 6d 6e 6f 2d       	sub    $0x2d6f6e6d,%eax
 492:	61                   	popa   
 493:	65 73 20             	gs jae 4b6 <mbh-0x2ffb4a>
 496:	2d 6d 6e 6f 2d       	sub    $0x2d6f6e6d,%eax
 49b:	70 63                	jo     500 <mbh-0x2ffb00>
 49d:	6c                   	insb   (%dx),%es:(%edi)
 49e:	6d                   	insl   (%dx),%es:(%edi)
 49f:	75 6c                	jne    50d <mbh-0x2ffaf3>
 4a1:	20 2d 6d 6e 6f 2d    	and    %ch,0x2d6f6e6d
 4a7:	66 73 67             	data16 jae 511 <mbh-0x2ffaef>
 4aa:	73 62                	jae    50e <mbh-0x2ffaf2>
 4ac:	61                   	popa   
 4ad:	73 65                	jae    514 <mbh-0x2ffaec>
 4af:	20 2d 6d 6e 6f 2d    	and    %ch,0x2d6f6e6d
 4b5:	72 64                	jb     51b <mbh-0x2ffae5>
 4b7:	72 6e                	jb     527 <mbh-0x2ffad9>
 4b9:	64 20 2d 6d 6e 6f 2d 	and    %ch,%fs:0x2d6f6e6d
 4c0:	66 31 36             	xor    %si,(%esi)
 4c3:	63 20                	arpl   %sp,(%eax)
 4c5:	2d 6d 6e 6f 2d       	sub    $0x2d6f6e6d,%eax
 4ca:	66 6d                	insw   (%dx),%es:(%edi)
 4cc:	61                   	popa   
 4cd:	20 2d 6d 6e 6f 2d    	and    %ch,0x2d6f6e6d
 4d3:	73 73                	jae    548 <mbh-0x2ffab8>
 4d5:	65 34 61             	gs xor $0x61,%al
 4d8:	20 2d 6d 6e 6f 2d    	and    %ch,0x2d6f6e6d
 4de:	66 6d                	insw   (%dx),%es:(%edi)
 4e0:	61                   	popa   
 4e1:	34 20                	xor    $0x20,%al
 4e3:	2d 6d 6e 6f 2d       	sub    $0x2d6f6e6d,%eax
 4e8:	78 6f                	js     559 <mbh-0x2ffaa7>
 4ea:	70 20                	jo     50c <mbh-0x2ffaf4>
 4ec:	2d 6d 6e 6f 2d       	sub    $0x2d6f6e6d,%eax
 4f1:	6c                   	insb   (%dx),%es:(%edi)
 4f2:	77 70                	ja     564 <mbh-0x2ffa9c>
 4f4:	20 2d 6d 6e 6f 2d    	and    %ch,0x2d6f6e6d
 4fa:	33 64 6e 6f          	xor    0x6f(%esi,%ebp,2),%esp
 4fe:	77 20                	ja     520 <mbh-0x2ffae0>
 500:	2d 6d 6e 6f 2d       	sub    $0x2d6f6e6d,%eax
 505:	70 6f                	jo     576 <mbh-0x2ffa8a>
 507:	70 63                	jo     56c <mbh-0x2ffa94>
 509:	6e                   	outsb  %ds:(%esi),(%dx)
 50a:	74 20                	je     52c <mbh-0x2ffad4>
 50c:	2d 6d 6e 6f 2d       	sub    $0x2d6f6e6d,%eax
 511:	61                   	popa   
 512:	62 6d 20             	bound  %ebp,0x20(%ebp)
 515:	2d 6d 6e 6f 2d       	sub    $0x2d6f6e6d,%eax
 51a:	62 6d 69             	bound  %ebp,0x69(%ebp)
 51d:	20 2d 6d 6e 6f 2d    	and    %ch,0x2d6f6e6d
 523:	62 6d 69             	bound  %ebp,0x69(%ebp)
 526:	32 20                	xor    (%eax),%ah
 528:	2d 6d 6e 6f 2d       	sub    $0x2d6f6e6d,%eax
 52d:	6c                   	insb   (%dx),%es:(%edi)
 52e:	7a 63                	jp     593 <mbh-0x2ffa6d>
 530:	6e                   	outsb  %ds:(%esi),(%dx)
 531:	74 20                	je     553 <mbh-0x2ffaad>
 533:	2d 6d 6e 6f 2d       	sub    $0x2d6f6e6d,%eax
 538:	74 62                	je     59c <mbh-0x2ffa64>
 53a:	6d                   	insl   (%dx),%es:(%edi)
 53b:	20 2d 6d 33 32 20    	and    %ch,0x2032336d
 541:	2d 6d 74 75 6e       	sub    $0x6e75746d,%eax
 546:	65 3d 67 65 6e 65    	gs cmp $0x656e6567,%eax
 54c:	72 69                	jb     5b7 <mbh-0x2ffa49>
 54e:	63 20                	arpl   %sp,(%eax)
 550:	2d 6d 61 72 63       	sub    $0x6372616d,%eax
 555:	68 3d 69 36 38       	push   $0x3836693d
 55a:	36 20 2d 67 20 2d 66 	and    %ch,%ss:0x662d2067
 561:	66 72 65             	data16 jb 5c9 <mbh-0x2ffa37>
 564:	65 73 74             	gs jae 5db <mbh-0x2ffa25>
 567:	61                   	popa   
 568:	6e                   	outsb  %ds:(%esi),(%dx)
 569:	64 69 6e 67 20 2d 66 	imul   $0x6d662d20,%fs:0x67(%esi),%ebp
 570:	6d 
 571:	73 2d                	jae    5a0 <mbh-0x2ffa60>
 573:	65 78 74             	gs js  5ea <mbh-0x2ffa16>
 576:	65 6e                	outsb  %gs:(%esi),(%dx)
 578:	73 69                	jae    5e3 <mbh-0x2ffa1d>
 57a:	6f                   	outsl  %ds:(%esi),(%dx)
 57b:	6e                   	outsb  %ds:(%esi),(%dx)
 57c:	73 20                	jae    59e <mbh-0x2ffa62>
 57e:	2d 66 6e 6f 2d       	sub    $0x2d6f6e66,%eax
 583:	73 74                	jae    5f9 <mbh-0x2ffa07>
 585:	61                   	popa   
 586:	63 6b 2d             	arpl   %bp,0x2d(%ebx)
 589:	70 72                	jo     5fd <mbh-0x2ffa03>
 58b:	6f                   	outsl  %ds:(%esi),(%dx)
 58c:	74 65                	je     5f3 <mbh-0x2ffa0d>
 58e:	63 74 6f 72          	arpl   %si,0x72(%edi,%ebp,2)
 592:	20 2d 66 6e 6f 2d    	and    %ch,0x2d6f6e66
 598:	70 69                	jo     603 <mbh-0x2ff9fd>
 59a:	63 20                	arpl   %sp,(%eax)
 59c:	2d 66 61 73 79       	sub    $0x79736166,%eax
 5a1:	6e                   	outsb  %ds:(%esi),(%dx)
 5a2:	63 68 72             	arpl   %bp,0x72(%eax)
 5a5:	6f                   	outsl  %ds:(%esi),(%dx)
 5a6:	6e                   	outsb  %ds:(%esi),(%dx)
 5a7:	6f                   	outsl  %ds:(%esi),(%dx)
 5a8:	75 73                	jne    61d <mbh-0x2ff9e3>
 5aa:	2d 75 6e 77 69       	sub    $0x69776e75,%eax
 5af:	6e                   	outsb  %ds:(%esi),(%dx)
 5b0:	64 2d 74 61 62 6c    	fs sub $0x6c626174,%eax
 5b6:	65 73 20             	gs jae 5d9 <mbh-0x2ffa27>
 5b9:	2d 66 73 74 61       	sub    $0x61747366,%eax
 5be:	63 6b 2d             	arpl   %bp,0x2d(%ebx)
 5c1:	63 6c 61 73          	arpl   %bp,0x73(%ecx,%eiz,2)
 5c5:	68 2d 70 72 6f       	push   $0x6f72702d
 5ca:	74 65                	je     631 <mbh-0x2ff9cf>
 5cc:	63 74 69 6f          	arpl   %si,0x6f(%ecx,%ebp,2)
 5d0:	6e                   	outsb  %ds:(%esi),(%dx)
 5d1:	00 66 72             	add    %ah,0x72(%esi)
 5d4:	61                   	popa   
 5d5:	6d                   	insl   (%dx),%es:(%edi)
 5d6:	65 62 75 66          	bound  %esi,%gs:0x66(%ebp)
 5da:	66 65 72 5f          	data16 gs jb 63d <mbh-0x2ff9c3>
 5de:	70 61                	jo     641 <mbh-0x2ff9bf>
 5e0:	6c                   	insb   (%dx),%es:(%edi)
 5e1:	65 74 74             	gs je  658 <mbh-0x2ff9a8>
 5e4:	65 5f                	gs pop %edi
 5e6:	61                   	popa   
 5e7:	64 64 72 00          	fs fs jb 5eb <mbh-0x2ffa15>
 5eb:	62 6c 6f 77          	bound  %ebp,0x77(%edi,%ebp,2)
 5ef:	00 75 61             	add    %dh,0x61(%ebp)
 5f2:	72 74                	jb     668 <mbh-0x2ff998>
 5f4:	5f                   	pop    %edi
 5f5:	66 6c                	data16 insb (%dx),%es:(%edi)
 5f7:	75 73                	jne    66c <mbh-0x2ff994>
 5f9:	68 00 73 69 6e       	push   $0x6e697300
 5fe:	74 33                	je     633 <mbh-0x2ff9cd>
 600:	32 5f 74             	xor    0x74(%edi),%bl
 603:	00 73 74             	add    %dh,0x74(%ebx)
 606:	72 69                	jb     671 <mbh-0x2ff98f>
 608:	6e                   	outsb  %ds:(%esi),(%dx)
 609:	67 00 76 70          	add    %dh,0x70(%bp)
 60d:	72 69                	jb     678 <mbh-0x2ff988>
 60f:	6e                   	outsb  %ds:(%esi),(%dx)
 610:	74 5f                	je     671 <mbh-0x2ff98f>
 612:	62 75 66             	bound  %esi,0x66(%ebp)
 615:	66 65 72 00          	data16 gs jb 619 <mbh-0x2ff9e7>
 619:	66 61                	popaw  
 61b:	72 5f                	jb     67c <mbh-0x2ff984>
 61d:	70 74                	jo     693 <mbh-0x2ff96d>
 61f:	72 36                	jb     657 <mbh-0x2ff9a9>
 621:	34 00                	xor    $0x0,%al
 623:	72 61                	jb     686 <mbh-0x2ff97a>
 625:	77 5f                	ja     686 <mbh-0x2ff97a>
 627:	31 36                	xor    %esi,(%esi)
 629:	5f                   	pop    %edi
 62a:	62 69 74             	bound  %ebp,0x74(%ecx)
 62d:	73 5f                	jae    68e <mbh-0x2ff972>
 62f:	65 6e                	outsb  %gs:(%esi),(%dx)
 631:	74 72                	je     6a5 <mbh-0x2ff95b>
 633:	79 00                	jns    635 <mbh-0x2ff9cb>
 635:	66 70 74             	data16 jo 6ac <mbh-0x2ff954>
 638:	72 33                	jb     66d <mbh-0x2ff993>
 63a:	32 5f 74             	xor    0x74(%edi),%bl
 63d:	00 6c 69 6e          	add    %ch,0x6e(%ecx,%ebp,2)
 641:	65 61                	gs popa 
 643:	72 00                	jb     645 <mbh-0x2ff9bb>
 645:	62 75 66             	bound  %esi,0x66(%ebp)
 648:	66 00 62 6f          	data16 add %ah,0x6f(%edx)
 64c:	6f                   	outsl  %ds:(%esi),(%dx)
 64d:	6c                   	insb   (%dx),%es:(%edi)
 64e:	5f                   	pop    %edi
 64f:	74 00                	je     651 <mbh-0x2ff9af>
 651:	72 61                	jb     6b4 <mbh-0x2ff94c>
 653:	77 31                	ja     686 <mbh-0x2ff97a>
 655:	36 5f                	ss pop %edi
 657:	74 00                	je     659 <mbh-0x2ff9a7>
 659:	69 6e 74 65 72 70 00 	imul   $0x707265,0x74(%esi),%ebp
 660:	5f                   	pop    %edi
 661:	5f                   	pop    %edi
 662:	62 75 69             	bound  %esi,0x69(%ebp)
 665:	6c                   	insb   (%dx),%es:(%edi)
 666:	74 69                	je     6d1 <mbh-0x2ff92f>
 668:	6e                   	outsb  %ds:(%esi),(%dx)
 669:	5f                   	pop    %edi
 66a:	76 61                	jbe    6cd <mbh-0x2ff933>
 66c:	5f                   	pop    %edi
 66d:	6c                   	insb   (%dx),%es:(%edi)
 66e:	69 73 74 00 72 61 77 	imul   $0x77617200,0x74(%ebx),%esi
 675:	5f                   	pop    %edi
 676:	36 34 5f             	ss xor $0x5f,%al
 679:	62 69 74             	bound  %ebp,0x74(%ecx)
 67c:	73 5f                	jae    6dd <mbh-0x2ff923>
 67e:	65 6e                	outsb  %gs:(%esi),(%dx)
 680:	74 72                	je     6f4 <mbh-0x2ff90c>
 682:	79 00                	jns    684 <mbh-0x2ff97c>
 684:	72 65                	jb     6eb <mbh-0x2ff915>
 686:	74 76                	je     6fe <mbh-0x2ff902>
 688:	61                   	popa   
 689:	6c                   	insb   (%dx),%es:(%edi)
 68a:	00 5f 5f             	add    %bl,0x5f(%edi)
 68d:	66 6f                	outsw  %ds:(%esi),(%dx)
 68f:	72 6d                	jb     6fe <mbh-0x2ff902>
 691:	61                   	popa   
 692:	74 5f                	je     6f3 <mbh-0x2ff90d>
 694:	61                   	popa   
 695:	64 64 5f             	fs fs pop %edi
 698:	75 64                	jne    6fe <mbh-0x2ff902>
 69a:	65 63 00             	arpl   %ax,%gs:(%eax)
 69d:	5f                   	pop    %edi
 69e:	5f                   	pop    %edi
 69f:	76 73                	jbe    714 <mbh-0x2ff8ec>
 6a1:	6e                   	outsb  %ds:(%esi),(%dx)
 6a2:	70 72                	jo     716 <mbh-0x2ff8ea>
 6a4:	69 6e 74 66 00 62 79 	imul   $0x79620066,0x74(%esi),%ebp
 6ab:	74 65                	je     712 <mbh-0x2ff8ee>
 6ad:	00 73 65             	add    %dh,0x65(%ebx)
 6b0:	67 6d                	insl   (%dx),%es:(%di)
 6b2:	65 6e                	outsb  %gs:(%esi),(%dx)
 6b4:	74 00                	je     6b6 <mbh-0x2ff94a>
 6b6:	62 75 66             	bound  %esi,0x66(%ebp)
 6b9:	66 65 72 5f          	data16 gs jb 71c <mbh-0x2ff8e4>
 6bd:	74 00                	je     6bf <mbh-0x2ff941>
 6bf:	76 61                	jbe    722 <mbh-0x2ff8de>
 6c1:	6c                   	insb   (%dx),%es:(%edi)
 6c2:	75 65                	jne    729 <mbh-0x2ff8d7>
 6c4:	00 5f 5f             	add    %bl,0x5f(%edi)
 6c7:	66 6f                	outsw  %ds:(%esi),(%dx)
 6c9:	72 6d                	jb     738 <mbh-0x2ff8c8>
 6cb:	61                   	popa   
 6cc:	74 5f                	je     72d <mbh-0x2ff8d3>
 6ce:	61                   	popa   
 6cf:	64 64 5f             	fs fs pop %edi
 6d2:	69 64 65 63 00 5f 6c 	imul   $0x6f6c5f00,0x63(%ebp,%eiz,2),%esp
 6d9:	6f 
 6da:	77 00                	ja     6dc <mbh-0x2ff924>
 6dc:	73 69                	jae    747 <mbh-0x2ff8b9>
 6de:	6e                   	outsb  %ds:(%esi),(%dx)
 6df:	74 36                	je     717 <mbh-0x2ff8e9>
 6e1:	34 5f                	xor    $0x5f,%al
 6e3:	74 00                	je     6e5 <mbh-0x2ff91b>
 6e5:	62 68 69             	bound  %ebp,0x69(%eax)
 6e8:	67 68 00 5f 77 6c    	addr16 push $0x6c775f00
 6ee:	6f                   	outsl  %ds:(%esi),(%dx)
 6ef:	77 00                	ja     6f1 <mbh-0x2ff90f>
 6f1:	64 61                	fs popa 
 6f3:	74 61                	je     756 <mbh-0x2ff8aa>
 6f5:	00 66 61             	add    %ah,0x61(%esi)
 6f8:	72 5f                	jb     759 <mbh-0x2ff8a7>
 6fa:	70 74                	jo     770 <mbh-0x2ff890>
 6fc:	72 31                	jb     72f <mbh-0x2ff8d1>
 6fe:	36 00 5f 5f          	add    %bl,%ss:0x5f(%edi)
 702:	62 75 66             	bound  %esi,0x66(%ebp)
 705:	5f                   	pop    %edi
 706:	61                   	popa   
 707:	64 64 00 72 61       	fs add %dh,%fs:0x61(%edx)
 70c:	77 5f                	ja     76d <mbh-0x2ff893>
 70e:	33 32                	xor    (%edx),%esi
 710:	5f                   	pop    %edi
 711:	62 69 74             	bound  %ebp,0x74(%ecx)
 714:	73 5f                	jae    775 <mbh-0x2ff88b>
 716:	65 6e                	outsb  %gs:(%esi),(%dx)
 718:	74 72                	je     78c <mbh-0x2ff874>
 71a:	79 00                	jns    71c <mbh-0x2ff8e4>
 71c:	75 69                	jne    787 <mbh-0x2ff879>
 71e:	6e                   	outsb  %ds:(%esi),(%dx)
 71f:	74 36                	je     757 <mbh-0x2ff8a9>
 721:	34 5f                	xor    $0x5f,%al
 723:	74 6f                	je     794 <mbh-0x2ff86c>
 725:	5f                   	pop    %edi
 726:	68 65 78 00 5f       	push   $0x5f007865
 72b:	68 69 67 68 00       	push   $0x686769
 730:	73 72                	jae    7a4 <mbh-0x2ff85c>
 732:	61                   	popa   
 733:	77 00                	ja     735 <mbh-0x2ff8cb>
 735:	5f                   	pop    %edi
 736:	5f                   	pop    %edi
 737:	66 6f                	outsw  %ds:(%esi),(%dx)
 739:	72 6d                	jb     7a8 <mbh-0x2ff858>
 73b:	61                   	popa   
 73c:	74 5f                	je     79d <mbh-0x2ff863>
 73e:	61                   	popa   
 73f:	64 64 5f             	fs fs pop %edi
 742:	73 74                	jae    7b8 <mbh-0x2ff848>
 744:	72 00                	jb     746 <mbh-0x2ff8ba>
 746:	73 69                	jae    7b1 <mbh-0x2ff84f>
 748:	6e                   	outsb  %ds:(%esi),(%dx)
 749:	74 31                	je     77c <mbh-0x2ff884>
 74b:	36 5f                	ss pop %edi
 74d:	74 00                	je     74f <mbh-0x2ff8b1>
 74f:	5f                   	pop    %edi
 750:	5f                   	pop    %edi
 751:	66 6f                	outsw  %ds:(%esi),(%dx)
 753:	72 6d                	jb     7c2 <mbh-0x2ff83e>
 755:	61                   	popa   
 756:	74 5f                	je     7b7 <mbh-0x2ff849>
 758:	61                   	popa   
 759:	64 64 5f             	fs fs pop %edi
 75c:	68 65 78 00 5f       	push   $0x5f007865
 761:	5f                   	pop    %edi
 762:	68 65 78 74 61       	push   $0x61747865
 767:	62 6c 65 00          	bound  %ebp,0x0(%ebp,%eiz,2)
 76b:	66 70 74             	data16 jo 7e2 <mbh-0x2ff81e>
 76e:	72 36                	jb     7a6 <mbh-0x2ff85a>
 770:	34 5f                	xor    $0x5f,%al
 772:	74 00                	je     774 <mbh-0x2ff88c>
 774:	72 61                	jb     7d7 <mbh-0x2ff829>
 776:	77 33                	ja     7ab <mbh-0x2ff855>
 778:	32 5f 74             	xor    0x74(%edi),%bl
 77b:	00 66 61             	add    %ah,0x61(%esi)
 77e:	72 5f                	jb     7df <mbh-0x2ff821>
 780:	70 74                	jo     7f6 <mbh-0x2ff80a>
 782:	72 33                	jb     7b7 <mbh-0x2ff849>
 784:	32 00                	xor    (%eax),%al
 786:	66 61                	popaw  
 788:	6c                   	insb   (%dx),%es:(%edi)
 789:	73 65                	jae    7f0 <mbh-0x2ff810>
 78b:	00 66 6f             	add    %ah,0x6f(%esi)
 78e:	72 6d                	jb     7fd <mbh-0x2ff803>
 790:	61                   	popa   
 791:	74 00                	je     793 <mbh-0x2ff86d>
 793:	5f                   	pop    %edi
 794:	5f                   	pop    %edi
 795:	76 70                	jbe    807 <mbh-0x2ff7f9>
 797:	72 69                	jb     802 <mbh-0x2ff7fe>
 799:	6e                   	outsb  %ds:(%esi),(%dx)
 79a:	74 66                	je     802 <mbh-0x2ff7fe>
 79c:	00 6c 6f 63          	add    %ch,0x63(%edi,%ebp,2)
 7a0:	61                   	popa   
 7a1:	74 69                	je     80c <mbh-0x2ff7f4>
 7a3:	6f                   	outsl  %ds:(%esi),(%dx)
 7a4:	6e                   	outsb  %ds:(%esi),(%dx)
 7a5:	00 6f 66             	add    %ch,0x66(%edi)
 7a8:	66 73 65             	data16 jae 810 <mbh-0x2ff7f0>
 7ab:	74 5f                	je     80c <mbh-0x2ff7f4>
 7ad:	74 00                	je     7af <mbh-0x2ff851>
 7af:	70 61                	jo     812 <mbh-0x2ff7ee>
 7b1:	72 61                	jb     814 <mbh-0x2ff7ec>
 7b3:	6d                   	insl   (%dx),%es:(%edi)
 7b4:	73 00                	jae    7b6 <mbh-0x2ff84a>
 7b6:	70 72                	jo     82a <mbh-0x2ff7d6>
 7b8:	65 63 69 73          	arpl   %bp,%gs:0x73(%ecx)
 7bc:	69 6f 6e 00 6f 66 66 	imul   $0x66666f00,0x6e(%edi),%ebp
 7c3:	73 65                	jae    82a <mbh-0x2ff7d6>
 7c5:	74 00                	je     7c7 <mbh-0x2ff839>
 7c7:	5f                   	pop    %edi
 7c8:	5f                   	pop    %edi
 7c9:	66 6f                	outsw  %ds:(%esi),(%dx)
 7cb:	72 6d                	jb     83a <mbh-0x2ff7c6>
 7cd:	61                   	popa   
 7ce:	74 5f                	je     82f <mbh-0x2ff7d1>
 7d0:	61                   	popa   
 7d1:	64 64 5f             	fs fs pop %edi
 7d4:	62 69 6e             	bound  %ebp,0x6e(%ecx)
 7d7:	00 5f 5f             	add    %bl,0x5f(%edi)
 7da:	66 6f                	outsw  %ds:(%esi),(%dx)
 7dc:	72 6d                	jb     84b <mbh-0x2ff7b5>
 7de:	61                   	popa   
 7df:	74 5f                	je     840 <mbh-0x2ff7c0>
 7e1:	61                   	popa   
 7e2:	64 64 5f             	fs fs pop %edi
 7e5:	63 68 72             	arpl   %bp,0x72(%eax)
 7e8:	00 66 70             	add    %ah,0x70(%esi)
 7eb:	74 72                	je     85f <mbh-0x2ff7a1>
 7ed:	31 36                	xor    %esi,(%esi)
 7ef:	5f                   	pop    %edi
 7f0:	74 00                	je     7f2 <mbh-0x2ff80e>
 7f2:	5f                   	pop    %edi
 7f3:	77 68                	ja     85d <mbh-0x2ff7a3>
 7f5:	69 67 68 00 73 69 6e 	imul   $0x6e697300,0x68(%edi),%esp
 7fc:	74 38                	je     836 <mbh-0x2ff7ca>
 7fe:	5f                   	pop    %edi
 7ff:	74 00                	je     801 <mbh-0x2ff7ff>
 801:	6c                   	insb   (%dx),%es:(%edi)
 802:	6f                   	outsl  %ds:(%esi),(%dx)
 803:	63 5f 74             	arpl   %bx,0x74(%edi)
 806:	00 72 61             	add    %dh,0x61(%edx)
 809:	77 36                	ja     841 <mbh-0x2ff7bf>
 80b:	34 5f                	xor    $0x5f,%al
 80d:	74 00                	je     80f <mbh-0x2ff7f1>
 80f:	74 72                	je     883 <mbh-0x2ff77d>
 811:	75 65                	jne    878 <mbh-0x2ff788>
 813:	00 73 65             	add    %dh,0x65(%ebx)
 816:	72 69                	jb     881 <mbh-0x2ff77f>
 818:	61                   	popa   
 819:	6c                   	insb   (%dx),%es:(%edi)
 81a:	5f                   	pop    %edi
 81b:	6c                   	insb   (%dx),%es:(%edi)
 81c:	63 72 5f             	arpl   %si,0x5f(%edx)
 81f:	72 65                	jb     886 <mbh-0x2ff77a>
 821:	67 69 73 74 65 72 00 	imul   $0x74007265,0x74(%bp,%di),%esi
 828:	74 
 829:	68 72 65 00 78       	push   $0x78006572
 82e:	6f                   	outsl  %ds:(%esi),(%dx)
 82f:	66 66 00 5f 5f       	data16 data16 add %bl,0x5f(%edi)
 834:	75 61                	jne    897 <mbh-0x2ff769>
 836:	72 74                	jb     8ac <mbh-0x2ff754>
 838:	5f                   	pop    %edi
 839:	66 6c                	data16 insb (%dx),%es:(%edi)
 83b:	75 73                	jne    8b0 <mbh-0x2ff750>
 83d:	68 5f 72 65 63       	push   $0x6365725f
 842:	76 00                	jbe    844 <mbh-0x2ff7bc>
 844:	72 78                	jb     8be <mbh-0x2ff742>
 846:	5f                   	pop    %edi
 847:	74 72                	je     8bb <mbh-0x2ff745>
 849:	69 67 67 65 72 00 73 	imul   $0x73007265,0x67(%edi),%esp
 850:	65 72 69             	gs jb  8bc <mbh-0x2ff744>
 853:	61                   	popa   
 854:	6c                   	insb   (%dx),%es:(%edi)
 855:	5f                   	pop    %edi
 856:	69 65 72 5f 72 65 67 	imul   $0x6765725f,0x72(%ebp),%esp
 85d:	69 73 74 65 72 00 5f 	imul   $0x5f007265,0x74(%ebx),%esi
 864:	5f                   	pop    %edi
 865:	75 61                	jne    8c8 <mbh-0x2ff738>
 867:	72 74                	jb     8dd <mbh-0x2ff723>
 869:	5f                   	pop    %edi
 86a:	63 6f 6d             	arpl   %bp,0x6d(%edi)
 86d:	6d                   	insl   (%dx),%es:(%edi)
 86e:	6f                   	outsl  %ds:(%esi),(%dx)
 86f:	6e                   	outsb  %ds:(%esi),(%dx)
 870:	5f                   	pop    %edi
 871:	69 6e 69 74 00 5f 5f 	imul   $0x5f5f0074,0x69(%esi),%ebp
 878:	75 61                	jne    8db <mbh-0x2ff725>
 87a:	72 74                	jb     8f0 <mbh-0x2ff710>
 87c:	5f                   	pop    %edi
 87d:	77 72                	ja     8f1 <mbh-0x2ff70f>
 87f:	69 74 65 00 73 65 72 	imul   $0x69726573,0x0(%ebp,%eiz,2),%esi
 886:	69 
 887:	61                   	popa   
 888:	6c                   	insb   (%dx),%es:(%edi)
 889:	5f                   	pop    %edi
 88a:	66 63 72 5f          	data16 arpl %si,0x5f(%edx)
 88e:	72 65                	jb     8f5 <mbh-0x2ff70b>
 890:	67 69 73 74 65 72 00 	imul   $0x73007265,0x74(%bp,%di),%esi
 897:	73 
 898:	65 72 69             	gs jb  904 <mbh-0x2ff6fc>
 89b:	61                   	popa   
 89c:	6c                   	insb   (%dx),%es:(%edi)
 89d:	5f                   	pop    %edi
 89e:	66 63 72 5f          	data16 arpl %si,0x5f(%edx)
 8a2:	72 65                	jb     909 <mbh-0x2ff6f7>
 8a4:	67 5f                	addr16 pop %edi
 8a6:	74 00                	je     8a8 <mbh-0x2ff758>
 8a8:	70 61                	jo     90b <mbh-0x2ff6f5>
 8aa:	72 69                	jb     915 <mbh-0x2ff6eb>
 8ac:	74 79                	je     927 <mbh-0x2ff6d9>
 8ae:	00 73 65             	add    %dh,0x65(%ebx)
 8b1:	72 69                	jb     91c <mbh-0x2ff6e4>
 8b3:	61                   	popa   
 8b4:	6c                   	insb   (%dx),%es:(%edi)
 8b5:	5f                   	pop    %edi
 8b6:	65 66 72 5f          	gs data16 jb 919 <mbh-0x2ff6e7>
 8ba:	72 65                	jb     921 <mbh-0x2ff6df>
 8bc:	67 69 73 74 65 72 00 	imul   $0x73007265,0x74(%bp,%di),%esi
 8c3:	73 
 8c4:	6c                   	insb   (%dx),%es:(%edi)
 8c5:	65 65 70 00          	gs gs jo 8c9 <mbh-0x2ff737>
 8c9:	73 74                	jae    93f <mbh-0x2ff6c1>
 8cb:	6f                   	outsl  %ds:(%esi),(%dx)
 8cc:	70 00                	jo     8ce <mbh-0x2ff732>
 8ce:	61                   	popa   
 8cf:	5f                   	pop    %edi
 8d0:	63 74 73 00          	arpl   %si,0x0(%ebx,%esi,2)
 8d4:	73 65                	jae    93b <mbh-0x2ff6c5>
 8d6:	72 69                	jb     941 <mbh-0x2ff6bf>
 8d8:	61                   	popa   
 8d9:	6c                   	insb   (%dx),%es:(%edi)
 8da:	5f                   	pop    %edi
 8db:	65 66 72 5f          	gs data16 jb 93e <mbh-0x2ff6c2>
 8df:	72 65                	jb     946 <mbh-0x2ff6ba>
 8e1:	67 5f                	addr16 pop %edi
 8e3:	74 00                	je     8e5 <mbh-0x2ff71b>
 8e5:	65 6e                	outsb  %gs:(%esi),(%dx)
 8e7:	61                   	popa   
 8e8:	62 6c 65 00          	bound  %ebp,0x0(%ebp,%eiz,2)
 8ec:	5f                   	pop    %edi
 8ed:	5f                   	pop    %edi
 8ee:	75 61                	jne    951 <mbh-0x2ff6af>
 8f0:	72 74                	jb     966 <mbh-0x2ff69a>
 8f2:	5f                   	pop    %edi
 8f3:	66 69 66 6f 5f 69    	imul   $0x695f,0x6f(%esi),%sp
 8f9:	6e                   	outsb  %ds:(%esi),(%dx)
 8fa:	69 74 00 70 6f 72 74 	imul   $0x74726f,0x70(%eax,%eax,1),%esi
 901:	00 
 902:	73 65                	jae    969 <mbh-0x2ff697>
 904:	72 69                	jb     96f <mbh-0x2ff691>
 906:	61                   	popa   
 907:	6c                   	insb   (%dx),%es:(%edi)
 908:	5f                   	pop    %edi
 909:	6c                   	insb   (%dx),%es:(%edi)
 90a:	63 72 5f             	arpl   %si,0x5f(%edx)
 90d:	72 65                	jb     974 <mbh-0x2ff68c>
 90f:	67 5f                	addr16 pop %edi
 911:	74 00                	je     913 <mbh-0x2ff6ed>
 913:	66 6c                	data16 insb (%dx),%es:(%edi)
 915:	6f                   	outsl  %ds:(%esi),(%dx)
 916:	77 5f                	ja     977 <mbh-0x2ff689>
 918:	63 74 6c 00          	arpl   %si,0x0(%esp,%ebp,2)
 91c:	73 65                	jae    983 <mbh-0x2ff67d>
 91e:	72 69                	jb     989 <mbh-0x2ff677>
 920:	61                   	popa   
 921:	6c                   	insb   (%dx),%es:(%edi)
 922:	5f                   	pop    %edi
 923:	69 65 72 5f 72 65 67 	imul   $0x6765725f,0x72(%ebp),%esp
 92a:	5f                   	pop    %edi
 92b:	74 00                	je     92d <mbh-0x2ff6d3>
 92d:	61                   	popa   
 92e:	5f                   	pop    %edi
 92f:	72 74                	jb     9a5 <mbh-0x2ff65b>
 931:	73 00                	jae    933 <mbh-0x2ff6cd>
 933:	5f                   	pop    %edi
 934:	5f                   	pop    %edi
 935:	75 61                	jne    998 <mbh-0x2ff668>
 937:	72 74                	jb     9ad <mbh-0x2ff653>
 939:	5f                   	pop    %edi
 93a:	72 65                	jb     9a1 <mbh-0x2ff65f>
 93c:	61                   	popa   
 93d:	64 00 77 6f          	add    %dh,%fs:0x6f(%edi)
 941:	72 64                	jb     9a7 <mbh-0x2ff659>
 943:	5f                   	pop    %edi
 944:	6c                   	insb   (%dx),%es:(%edi)
 945:	65 6e                	outsb  %gs:(%esi),(%dx)
 947:	00 74 78 5f          	add    %dh,0x5f(%eax,%edi,2)
 94b:	74 72                	je     9bf <mbh-0x2ff641>
 94d:	69 67 67 65 72 00 70 	imul   $0x70007265,0x67(%edi),%esp
 954:	69 63 5f 69 63 77 31 	imul   $0x31776369,0x5f(%ebx),%esp
 95b:	5f                   	pop    %edi
 95c:	74 00                	je     95e <mbh-0x2ff6a2>
 95e:	70 69                	jo     9c9 <mbh-0x2ff637>
 960:	63 5f 69             	arpl   %bx,0x69(%edi)
 963:	6e                   	outsb  %ds:(%esi),(%dx)
 964:	69 74 5f 63 6f 6d 6d 	imul   $0x616d6d6f,0x63(%edi,%ebx,2),%esi
 96b:	61 
 96c:	6e                   	outsb  %ds:(%esi),(%dx)
 96d:	64 5f                	fs pop %edi
 96f:	77 6f                	ja     9e0 <mbh-0x2ff620>
 971:	72 64                	jb     9d7 <mbh-0x2ff629>
 973:	5f                   	pop    %edi
 974:	31 00                	xor    %eax,(%eax)
 976:	70 69                	jo     9e1 <mbh-0x2ff61f>
 978:	63 5f 69             	arpl   %bx,0x69(%edi)
 97b:	6e                   	outsb  %ds:(%esi),(%dx)
 97c:	69 74 5f 63 6f 6d 6d 	imul   $0x616d6d6f,0x63(%edi,%ebx,2),%esi
 983:	61 
 984:	6e                   	outsb  %ds:(%esi),(%dx)
 985:	64 5f                	fs pop %edi
 987:	77 6f                	ja     9f8 <mbh-0x2ff608>
 989:	72 64                	jb     9ef <mbh-0x2ff611>
 98b:	5f                   	pop    %edi
 98c:	32 00                	xor    (%eax),%al
 98e:	69 72 71 30 00 69 72 	imul   $0x72690030,0x71(%edx),%esi
 995:	71 31                	jno    9c8 <mbh-0x2ff638>
 997:	00 69 72             	add    %ch,0x72(%ecx)
 99a:	71 32                	jno    9ce <mbh-0x2ff632>
 99c:	00 69 72             	add    %ch,0x72(%ecx)
 99f:	71 33                	jno    9d4 <mbh-0x2ff62c>
 9a1:	00 69 72             	add    %ch,0x72(%ecx)
 9a4:	71 34                	jno    9da <mbh-0x2ff626>
 9a6:	00 69 72             	add    %ch,0x72(%ecx)
 9a9:	71 35                	jno    9e0 <mbh-0x2ff620>
 9ab:	00 69 72             	add    %ch,0x72(%ecx)
 9ae:	71 36                	jno    9e6 <mbh-0x2ff61a>
 9b0:	00 69 72             	add    %ch,0x72(%ecx)
 9b3:	71 37                	jno    9ec <mbh-0x2ff614>
 9b5:	00 61 65             	add    %ah,0x65(%ecx)
 9b8:	6f                   	outsl  %ds:(%esi),(%dx)
 9b9:	69 00 73 69 6e 67    	imul   $0x676e6973,(%eax),%eax
 9bf:	6c                   	insb   (%dx),%es:(%edi)
 9c0:	65 00 76 65          	add    %dh,%gs:0x65(%esi)
 9c4:	63 74 00 69          	arpl   %si,0x69(%eax,%eax,1)
 9c8:	63 77 32             	arpl   %si,0x32(%edi)
 9cb:	00 69 63             	add    %ch,0x63(%ecx)
 9ce:	77 33                	ja     a03 <mbh-0x2ff5fd>
 9d0:	00 69 63             	add    %ch,0x63(%ecx)
 9d3:	77 34                	ja     a09 <mbh-0x2ff5f7>
 9d5:	00 6d 61             	add    %ch,0x61(%ebp)
 9d8:	73 74                	jae    a4e <mbh-0x2ff5b2>
 9da:	65 72 00             	gs jb  9dd <mbh-0x2ff623>
 9dd:	69 72 71 5f 62 61 73 	imul   $0x7361625f,0x71(%edx),%esi
 9e4:	65 00 73 6c          	add    %dh,%gs:0x6c(%ebx)
 9e8:	61                   	popa   
 9e9:	76 65                	jbe    a50 <mbh-0x2ff5b0>
 9eb:	00 70 69             	add    %dh,0x69(%eax)
 9ee:	63 5f 69             	arpl   %bx,0x69(%edi)
 9f1:	6e                   	outsb  %ds:(%esi),(%dx)
 9f2:	69 74 5f 63 6f 6d 6d 	imul   $0x616d6d6f,0x63(%edi,%ebx,2),%esi
 9f9:	61 
 9fa:	6e                   	outsb  %ds:(%esi),(%dx)
 9fb:	64 5f                	fs pop %edi
 9fd:	77 6f                	ja     a6e <mbh-0x2ff592>
 9ff:	72 64                	jb     a65 <mbh-0x2ff59b>
 a01:	5f                   	pop    %edi
 a02:	33 00                	xor    (%eax),%eax
 a04:	70 69                	jo     a6f <mbh-0x2ff591>
 a06:	63 5f 69             	arpl   %bx,0x69(%edi)
 a09:	6e                   	outsb  %ds:(%esi),(%dx)
 a0a:	69 74 5f 63 6f 6d 6d 	imul   $0x616d6d6f,0x63(%edi,%ebx,2),%esi
 a11:	61 
 a12:	6e                   	outsb  %ds:(%esi),(%dx)
 a13:	64 5f                	fs pop %edi
 a15:	77 6f                	ja     a86 <mbh-0x2ff57a>
 a17:	72 64                	jb     a7d <mbh-0x2ff583>
 a19:	5f                   	pop    %edi
 a1a:	34 00                	xor    $0x0,%al
 a1c:	6c                   	insb   (%dx),%es:(%edi)
 a1d:	74 69                	je     a88 <mbh-0x2ff578>
 a1f:	6d                   	insl   (%dx),%es:(%edi)
 a20:	00 70 69             	add    %dh,0x69(%eax)
 a23:	63 5f 69             	arpl   %bx,0x69(%edi)
 a26:	63 77 34             	arpl   %si,0x34(%edi)
 a29:	5f                   	pop    %edi
 a2a:	74 00                	je     a2c <mbh-0x2ff5d4>
 a2c:	70 69                	jo     a97 <mbh-0x2ff569>
 a2e:	63 5f 69             	arpl   %bx,0x69(%edi)
 a31:	63 77 33             	arpl   %si,0x33(%edi)
 a34:	5f                   	pop    %edi
 a35:	74 00                	je     a37 <mbh-0x2ff5c9>
 a37:	70 69                	jo     aa2 <mbh-0x2ff55e>
 a39:	63 5f 69             	arpl   %bx,0x69(%edi)
 a3c:	63 77 32             	arpl   %si,0x32(%edi)
 a3f:	5f                   	pop    %edi
 a40:	74 00                	je     a42 <mbh-0x2ff5be>
 a42:	69 63 77 31 00 75 6e 	imul   $0x6e750031,0x77(%ebx),%esp
 a49:	75 73                	jne    abe <mbh-0x2ff542>
 a4b:	65 64 00 73 66       	gs add %dh,%fs:0x66(%ebx)
 a50:	6e                   	outsb  %ds:(%esi),(%dx)
 a51:	6d                   	insl   (%dx),%es:(%edi)
 a52:	00 7a 65             	add    %bh,0x65(%edx)
 a55:	72 6f                	jb     ac6 <mbh-0x2ff53a>
 a57:	00 69 64             	add    %ch,0x64(%ecx)
 a5a:	74 5f                	je     abb <mbh-0x2ff545>
 a5c:	72 65                	jb     ac3 <mbh-0x2ff53d>
 a5e:	67 5f                	addr16 pop %edi
 a60:	74 00                	je     a62 <mbh-0x2ff59e>
 a62:	76 65                	jbe    ac9 <mbh-0x2ff537>
 a64:	63 74 6f 72          	arpl   %si,0x72(%edi,%ebp,2)
 a68:	00 70 61             	add    %dh,0x61(%eax)
 a6b:	67 65 5f             	addr16 gs pop %edi
 a6e:	66 61                	popaw  
 a70:	75 6c                	jne    ade <mbh-0x2ff522>
 a72:	74 5f                	je     ad3 <mbh-0x2ff52d>
 a74:	65 72 72             	gs jb  ae9 <mbh-0x2ff517>
 a77:	6f                   	outsl  %ds:(%esi),(%dx)
 a78:	72 5f                	jb     ad9 <mbh-0x2ff527>
 a7a:	63 6f 64             	arpl   %bp,0x64(%edi)
 a7d:	65 00 65 66          	add    %ah,%gs:0x66(%ebp)
 a81:	6c                   	insb   (%dx),%es:(%edi)
 a82:	61                   	popa   
 a83:	67 73 5f             	addr16 jae ae5 <mbh-0x2ff51b>
 a86:	72 65                	jb     aed <mbh-0x2ff513>
 a88:	67 5f                	addr16 pop %edi
 a8a:	74 00                	je     a8c <mbh-0x2ff574>
 a8c:	70 66                	jo     af4 <mbh-0x2ff50c>
 a8e:	5f                   	pop    %edi
 a8f:	65 72 72             	gs jb  b04 <mbh-0x2ff4fc>
 a92:	5f                   	pop    %edi
 a93:	74 00                	je     a95 <mbh-0x2ff56b>
 a95:	65 78 63             	gs js  afb <mbh-0x2ff505>
 a98:	70 5f                	jo     af9 <mbh-0x2ff507>
 a9a:	65 72 72             	gs jb  b0f <mbh-0x2ff4f1>
 a9d:	5f                   	pop    %edi
 a9e:	63 6f 64             	arpl   %bp,0x64(%edi)
 aa1:	65 5f                	gs pop %edi
 aa3:	74 00                	je     aa5 <mbh-0x2ff55b>
 aa5:	67 65 6e             	outsb  %gs:(%si),(%dx)
 aa8:	65 72 61             	gs jb  b0c <mbh-0x2ff4f4>
 aab:	6c                   	insb   (%dx),%es:(%edi)
 aac:	5f                   	pop    %edi
 aad:	70 75                	jo     b24 <mbh-0x2ff4dc>
 aaf:	72 70                	jb     b21 <mbh-0x2ff4df>
 ab1:	6f                   	outsl  %ds:(%esi),(%dx)
 ab2:	73 65                	jae    b19 <mbh-0x2ff4e7>
 ab4:	5f                   	pop    %edi
 ab5:	72 65                	jb     b1c <mbh-0x2ff4e4>
 ab7:	67 69 73 74 65 72 73 	imul   $0x5f737265,0x74(%bp,%di),%esi
 abe:	5f 
 abf:	63 6f 6e             	arpl   %bp,0x6e(%edi)
 ac2:	74 65                	je     b29 <mbh-0x2ff4d7>
 ac4:	78 74                	js     b3a <mbh-0x2ff4c6>
 ac6:	00 69 6e             	add    %ch,0x6e(%ecx)
 ac9:	74 65                	je     b30 <mbh-0x2ff4d0>
 acb:	72 72                	jb     b3f <mbh-0x2ff4c1>
 acd:	75 70                	jne    b3f <mbh-0x2ff4c1>
 acf:	74 5f                	je     b30 <mbh-0x2ff4d0>
 ad1:	64 65 73 63          	fs gs jae b38 <mbh-0x2ff4c8>
 ad5:	72 69                	jb     b40 <mbh-0x2ff4c0>
 ad7:	70 74                	jo     b4d <mbh-0x2ff4b3>
 ad9:	6f                   	outsl  %ds:(%esi),(%dx)
 ada:	72 00                	jb     adc <mbh-0x2ff524>
 adc:	65 78 63             	gs js  b42 <mbh-0x2ff4be>
 adf:	65 70 74             	gs jo  b56 <mbh-0x2ff4aa>
 ae2:	69 6f 6e 33 32 5f 65 	imul   $0x655f3233,0x6e(%edi),%ebp
 ae9:	72 72                	jb     b5d <mbh-0x2ff4a3>
 aeb:	6f                   	outsl  %ds:(%esi),(%dx)
 aec:	72 5f                	jb     b4d <mbh-0x2ff4b3>
 aee:	63 6f 64             	arpl   %bp,0x64(%edi)
 af1:	65 00 69 64          	add    %ch,%gs:0x64(%ecx)
 af5:	74 72                	je     b69 <mbh-0x2ff497>
 af7:	00 6c 69 6d          	add    %ch,0x6d(%ecx,%ebp,2)
 afb:	69 74 00 69 6e 74 65 	imul   $0x7265746e,0x69(%eax,%eax,1),%esi
 b02:	72 
 b03:	72 75                	jb     b7a <mbh-0x2ff486>
 b05:	70 74                	jo     b7b <mbh-0x2ff485>
 b07:	5f                   	pop    %edi
 b08:	64 65 73 63          	fs gs jae b6f <mbh-0x2ff491>
 b0c:	72 69                	jb     b77 <mbh-0x2ff489>
 b0e:	70 74                	jo     b84 <mbh-0x2ff47c>
 b10:	6f                   	outsl  %ds:(%esi),(%dx)
 b11:	72 5f                	jb     b72 <mbh-0x2ff48e>
 b13:	74 61                	je     b76 <mbh-0x2ff48a>
 b15:	62 6c 65 5f          	bound  %ebp,0x5f(%ebp,%eiz,2)
 b19:	72 65                	jb     b80 <mbh-0x2ff480>
 b1b:	67 69 73 74 65 72 00 	imul   $0x69007265,0x74(%bp,%di),%esi
 b22:	69 
 b23:	6e                   	outsb  %ds:(%esi),(%dx)
 b24:	74 5f                	je     b85 <mbh-0x2ff47b>
 b26:	63 74 78 5f          	arpl   %si,0x5f(%eax,%edi,2)
 b2a:	74 00                	je     b2c <mbh-0x2ff4d4>
 b2c:	63 70 75             	arpl   %si,0x75(%eax)
 b2f:	5f                   	pop    %edi
 b30:	63 74 78 5f          	arpl   %si,0x5f(%eax,%edi,2)
 b34:	74 00                	je     b36 <mbh-0x2ff4ca>
 b36:	64 65 73 63          	fs gs jae b9d <mbh-0x2ff463>
 b3a:	00 65 66             	add    %ah,0x66(%ebp)
 b3d:	6c                   	insb   (%dx),%es:(%edi)
 b3e:	61                   	popa   
 b3f:	67 73 00             	addr16 jae b42 <mbh-0x2ff4be>
 b42:	69 64 74 5f 74 72 61 	imul   $0x6d617274,0x5f(%esp,%esi,2),%esp
 b49:	6d 
 b4a:	70 6f                	jo     bbb <mbh-0x2ff445>
 b4c:	6c                   	insb   (%dx),%es:(%edi)
 b4d:	69 6e 65 00 67 70 72 	imul   $0x72706700,0x65(%esi),%ebp
 b54:	5f                   	pop    %edi
 b55:	63 74 78 5f          	arpl   %si,0x5f(%eax,%edi,2)
 b59:	74 00                	je     b5b <mbh-0x2ff4a5>
 b5b:	73 65                	jae    bc2 <mbh-0x2ff43e>
 b5d:	6c                   	insb   (%dx),%es:(%edi)
 b5e:	65 63 74 6f 72       	arpl   %si,%gs:0x72(%edi,%ebp,2)
 b63:	5f                   	pop    %edi
 b64:	65 72 72             	gs jb  bd9 <mbh-0x2ff427>
 b67:	6f                   	outsl  %ds:(%esi),(%dx)
 b68:	72 5f                	jb     bc9 <mbh-0x2ff437>
 b6a:	63 6f 64             	arpl   %bp,0x64(%edi)
 b6d:	65 00 65 66          	add    %ah,%gs:0x66(%ebp)
 b71:	6c                   	insb   (%dx),%es:(%edi)
 b72:	61                   	popa   
 b73:	67 73 5f             	addr16 jae bd5 <mbh-0x2ff42b>
 b76:	72 65                	jb     bdd <mbh-0x2ff423>
 b78:	67 5f                	addr16 pop %edi
 b7a:	66 69 65 6c 64 73    	imul   $0x7364,0x6c(%ebp),%sp
 b80:	5f                   	pop    %edi
 b81:	74 00                	je     b83 <mbh-0x2ff47d>
 b83:	73 6c                	jae    bf1 <mbh-0x2ff40f>
 b85:	5f                   	pop    %edi
 b86:	65 72 72             	gs jb  bfb <mbh-0x2ff405>
 b89:	5f                   	pop    %edi
 b8a:	74 00                	je     b8c <mbh-0x2ff474>
 b8c:	6f                   	outsl  %ds:(%esi),(%dx)
 b8d:	66 66 73 65          	data16 data16 jae bf6 <mbh-0x2ff40a>
 b91:	74 5f                	je     bf2 <mbh-0x2ff40e>
 b93:	31 00                	xor    %eax,(%eax)
 b95:	6f                   	outsl  %ds:(%esi),(%dx)
 b96:	66 66 73 65          	data16 data16 jae bff <mbh-0x2ff401>
 b9a:	74 5f                	je     bfb <mbh-0x2ff405>
 b9c:	32 00                	xor    (%eax),%al
 b9e:	69 6e 74 5f 64 65 73 	imul   $0x7365645f,0x74(%esi),%ebp
 ba5:	63 5f 74             	arpl   %bx,0x74(%edi)
 ba8:	00 63 70             	add    %ah,0x70(%ebx)
 bab:	75 5f                	jne    c0c <mbh-0x2ff3f4>
 bad:	65 66 6c             	gs data16 insb (%dx),%es:(%edi)
 bb0:	61                   	popa   
 bb1:	67 73 5f             	addr16 jae c13 <mbh-0x2ff3ed>
 bb4:	72 65                	jb     c1b <mbh-0x2ff3e5>
 bb6:	67 69 73 74 65 72 00 	imul   $0x63007265,0x74(%bp,%di),%esi
 bbd:	63 
 bbe:	70 75                	jo     c35 <mbh-0x2ff3cb>
 bc0:	5f                   	pop    %edi
 bc1:	65 66 6c             	gs data16 insb (%dx),%es:(%edi)
 bc4:	61                   	popa   
 bc5:	67 73 5f             	addr16 jae c27 <mbh-0x2ff3d9>
 bc8:	72 65                	jb     c2f <mbh-0x2ff3d1>
 bca:	67 69 73 74 65 72 5f 	imul   $0x665f7265,0x74(%bp,%di),%esi
 bd1:	66 
 bd2:	69 65 6c 64 73 00 69 	imul   $0x69007364,0x6c(%ebp),%esp
 bd9:	6e                   	outsb  %ds:(%esi),(%dx)
 bda:	74 72                	je     c4e <mbh-0x2ff3b2>
 bdc:	5f                   	pop    %edi
 bdd:	68 64 6c 72 00       	push   $0x726c64
 be2:	63 70 75             	arpl   %si,0x75(%eax)
 be5:	5f                   	pop    %edi
 be6:	63 6f 6e             	arpl   %bp,0x6e(%edi)
 be9:	74 65                	je     c50 <mbh-0x2ff3b0>
 beb:	78 74                	js     c61 <mbh-0x2ff39f>
 bed:	00 69 6e             	add    %ch,0x6e(%ecx)
 bf0:	74 65                	je     c57 <mbh-0x2ff3a9>
 bf2:	72 72                	jb     c66 <mbh-0x2ff39a>
 bf4:	75 70                	jne    c66 <mbh-0x2ff39a>
 bf6:	74 5f                	je     c57 <mbh-0x2ff3a9>
 bf8:	63 6f 6e             	arpl   %bp,0x6e(%edi)
 bfb:	74 65                	je     c62 <mbh-0x2ff39e>
 bfd:	78 74                	js     c73 <mbh-0x2ff38d>
 bff:	00 69 6f             	add    %ch,0x6f(%ecx)
 c02:	70 6c                	jo     c70 <mbh-0x2ff390>
 c04:	00 65 78             	add    %ah,0x78(%ebp)
 c07:	63 70 5f             	arpl   %si,0x5f(%eax)
 c0a:	68 64 6c 72 00       	push   $0x726c64
 c0f:	73 65                	jae    c76 <mbh-0x2ff38a>
 c11:	6c                   	insb   (%dx),%es:(%edi)
 c12:	65 63 74 6f 72       	arpl   %si,%gs:0x72(%edi,%ebp,2)
 c17:	00 7a 65             	add    %bh,0x65(%edx)
 c1a:	72 6f                	jb     c8b <mbh-0x2ff375>
 c1c:	5f                   	pop    %edi
 c1d:	31 00                	xor    %eax,(%eax)
 c1f:	7a 65                	jp     c86 <mbh-0x2ff37a>
 c21:	72 6f                	jb     c92 <mbh-0x2ff36e>
 c23:	5f                   	pop    %edi
 c24:	32 00                	xor    (%eax),%al
 c26:	2e 2e 2f             	cs cs das 
 c29:	6b 65 72 6e          	imul   $0x6e,0x72(%ebp),%esp
 c2d:	65 6c                	gs insb (%dx),%es:(%edi)
 c2f:	2f                   	das    
 c30:	63 6f 72             	arpl   %bp,0x72(%edi)
 c33:	65 2f                	gs das 
 c35:	69 64 74 2e 73 00 65 	imul   $0x78650073,0x2e(%esp,%esi,2),%esp
 c3c:	78 
 c3d:	63 65 70             	arpl   %sp,0x70(%ebp)
 c40:	74 69                	je     cab <mbh-0x2ff355>
 c42:	6f                   	outsl  %ds:(%esi),(%dx)
 c43:	6e                   	outsb  %ds:(%esi),(%dx)
 c44:	5f                   	pop    %edi
 c45:	6e                   	outsb  %ds:(%esi),(%dx)
 c46:	61                   	popa   
 c47:	6d                   	insl   (%dx),%es:(%edi)
 c48:	65 73 00             	gs jae c4b <mbh-0x2ff3b5>
 c4b:	73 74                	jae    cc1 <mbh-0x2ff33f>
 c4d:	61                   	popa   
 c4e:	63 6b 5f             	arpl   %bp,0x5f(%ebx)
 c51:	74 72                	je     cc5 <mbh-0x2ff33b>
 c53:	61                   	popa   
 c54:	63 65 00             	arpl   %sp,0x0(%ebp)
 c57:	5f                   	pop    %edi
 c58:	5f                   	pop    %edi
 c59:	6b 65 72 6e          	imul   $0x6e,0x72(%ebp),%esp
 c5d:	65 6c                	gs insb (%dx),%es:(%edi)
 c5f:	5f                   	pop    %edi
 c60:	73 74                	jae    cd6 <mbh-0x2ff32a>
 c62:	61                   	popa   
 c63:	72 74                	jb     cd9 <mbh-0x2ff327>
 c65:	5f                   	pop    %edi
 c66:	5f                   	pop    %edi
 c67:	00 66 72             	add    %ah,0x72(%esi)
 c6a:	6f                   	outsl  %ds:(%esi),(%dx)
 c6b:	6d                   	insl   (%dx),%es:(%edi)
 c6c:	00 49 44             	add    %cl,0x44(%ecx)
 c6f:	54                   	push   %esp
 c70:	5f                   	pop    %edi
 c71:	61                   	popa   
 c72:	64 64 00 61 64       	fs add %ah,%fs:0x64(%ecx)
 c77:	64 5f                	fs pop %edi
 c79:	42                   	inc    %edx
 c7a:	50                   	push   %eax
 c7b:	5f                   	pop    %edi
 c7c:	48                   	dec    %eax
 c7d:	61                   	popa   
 c7e:	6e                   	outsb  %ds:(%esi),(%dx)
 c7f:	64 6c                	fs insb (%dx),%es:(%edi)
 c81:	65 72 00             	gs jb  c84 <mbh-0x2ff37c>
 c84:	69 64 74 5f 70 74 72 	imul   $0x727470,0x5f(%esp,%esi,2),%esp
 c8b:	00 
 c8c:	62 70 5f             	bound  %esi,0x5f(%eax)
 c8f:	74 72                	je     d03 <mbh-0x2ff2fd>
 c91:	69 67 67 65 72 00 62 	imul   $0x62007265,0x67(%edi),%esp
 c98:	70 5f                	jo     cf9 <mbh-0x2ff307>
 c9a:	68 61 6e 64 6c       	push   $0x6c646e61
 c9f:	65 72 00             	gs jb  ca2 <mbh-0x2ff35e>

Déassemblage de la section .debug_rnglists :

00000000 <.debug_rnglists>:
   0:	13 00                	adc    (%eax),%eax
   2:	00 00                	add    %al,(%eax)
   4:	05 00 04 00 00       	add    $0x400,%eax
   9:	00 00                	add    %al,(%eax)
   b:	00 04 89             	add    %al,(%ecx,%ecx,4)
   e:	0d 95 0e 04 9a       	or     $0x9a040e95,%eax
  13:	0e                   	push   %cs
  14:	b4 0e                	mov    $0xe,%ah
  16:	00 16                	add    %dl,(%esi)
  18:	00 00                	add    %al,(%eax)
  1a:	00 05 00 04 00 00    	add    %al,0x400
  20:	00 00                	add    %al,(%eax)
  22:	00 07                	add    %al,(%edi)
  24:	de 3d 30 00 1a 07    	fidivrs 0x71a0030
  2a:	10 20                	adc    %ah,(%eax)
  2c:	30 00                	xor    %al,(%eax)
  2e:	fc                   	cld    
  2f:	1f                   	pop    %ds
	...
