
kernel.elf:     format de fichier elf32-i386


Déassemblage de la section .mbh :

00300000 <mbh>:
  300000:	02 b0 ad 1b 03 00    	add    0x31bad(%eax),%dh
  300006:	00 00                	add    %al,(%eax)
  300008:	fb                   	sti    
  300009:	4f                   	dec    %edi
  30000a:	52                   	push   %edx
  30000b:	e4                   	.byte 0xe4

Déassemblage de la section .stack :

00300010 <__kernel_start__-0x2000>:
	...

Déassemblage de la section .idt_jmp :

00302010 <idt_trampoline>:
  302010:	6a ff                	push   $0xffffffff
  302012:	6a 00                	push   $0x0
  302014:	e9 d2 1d 00 00       	jmp    303deb <idt_common>
  302019:	8d b4 26 00 00 00 00 	lea    0x0(%esi,%eiz,1),%esi
  302020:	6a ff                	push   $0xffffffff
  302022:	6a 01                	push   $0x1
  302024:	e9 c2 1d 00 00       	jmp    303deb <idt_common>
  302029:	8d b4 26 00 00 00 00 	lea    0x0(%esi,%eiz,1),%esi
  302030:	6a ff                	push   $0xffffffff
  302032:	6a 02                	push   $0x2
  302034:	e9 b2 1d 00 00       	jmp    303deb <idt_common>
  302039:	8d b4 26 00 00 00 00 	lea    0x0(%esi,%eiz,1),%esi
  302040:	6a ff                	push   $0xffffffff
  302042:	6a 03                	push   $0x3
  302044:	e9 a2 1d 00 00       	jmp    303deb <idt_common>
  302049:	8d b4 26 00 00 00 00 	lea    0x0(%esi,%eiz,1),%esi
  302050:	6a ff                	push   $0xffffffff
  302052:	6a 04                	push   $0x4
  302054:	e9 92 1d 00 00       	jmp    303deb <idt_common>
  302059:	8d b4 26 00 00 00 00 	lea    0x0(%esi,%eiz,1),%esi
  302060:	6a ff                	push   $0xffffffff
  302062:	6a 05                	push   $0x5
  302064:	e9 82 1d 00 00       	jmp    303deb <idt_common>
  302069:	8d b4 26 00 00 00 00 	lea    0x0(%esi,%eiz,1),%esi
  302070:	6a ff                	push   $0xffffffff
  302072:	6a 06                	push   $0x6
  302074:	e9 72 1d 00 00       	jmp    303deb <idt_common>
  302079:	8d b4 26 00 00 00 00 	lea    0x0(%esi,%eiz,1),%esi
  302080:	6a ff                	push   $0xffffffff
  302082:	6a 07                	push   $0x7
  302084:	e9 62 1d 00 00       	jmp    303deb <idt_common>
  302089:	8d b4 26 00 00 00 00 	lea    0x0(%esi,%eiz,1),%esi
  302090:	6a 08                	push   $0x8
  302092:	e9 54 1d 00 00       	jmp    303deb <idt_common>
  302097:	8d b4 26 00 00 00 00 	lea    0x0(%esi,%eiz,1),%esi
  30209e:	66 90                	xchg   %ax,%ax
  3020a0:	6a ff                	push   $0xffffffff
  3020a2:	6a 09                	push   $0x9
  3020a4:	e9 42 1d 00 00       	jmp    303deb <idt_common>
  3020a9:	8d b4 26 00 00 00 00 	lea    0x0(%esi,%eiz,1),%esi
  3020b0:	6a 0a                	push   $0xa
  3020b2:	e9 34 1d 00 00       	jmp    303deb <idt_common>
  3020b7:	8d b4 26 00 00 00 00 	lea    0x0(%esi,%eiz,1),%esi
  3020be:	66 90                	xchg   %ax,%ax
  3020c0:	6a 0b                	push   $0xb
  3020c2:	e9 24 1d 00 00       	jmp    303deb <idt_common>
  3020c7:	8d b4 26 00 00 00 00 	lea    0x0(%esi,%eiz,1),%esi
  3020ce:	66 90                	xchg   %ax,%ax
  3020d0:	6a 0c                	push   $0xc
  3020d2:	e9 14 1d 00 00       	jmp    303deb <idt_common>
  3020d7:	8d b4 26 00 00 00 00 	lea    0x0(%esi,%eiz,1),%esi
  3020de:	66 90                	xchg   %ax,%ax
  3020e0:	6a 0d                	push   $0xd
  3020e2:	e9 04 1d 00 00       	jmp    303deb <idt_common>
  3020e7:	8d b4 26 00 00 00 00 	lea    0x0(%esi,%eiz,1),%esi
  3020ee:	66 90                	xchg   %ax,%ax
  3020f0:	6a 0e                	push   $0xe
  3020f2:	e9 f4 1c 00 00       	jmp    303deb <idt_common>
  3020f7:	8d b4 26 00 00 00 00 	lea    0x0(%esi,%eiz,1),%esi
  3020fe:	66 90                	xchg   %ax,%ax
  302100:	6a ff                	push   $0xffffffff
  302102:	6a 0f                	push   $0xf
  302104:	e9 e2 1c 00 00       	jmp    303deb <idt_common>
  302109:	8d b4 26 00 00 00 00 	lea    0x0(%esi,%eiz,1),%esi
  302110:	6a ff                	push   $0xffffffff
  302112:	6a 10                	push   $0x10
  302114:	e9 d2 1c 00 00       	jmp    303deb <idt_common>
  302119:	8d b4 26 00 00 00 00 	lea    0x0(%esi,%eiz,1),%esi
  302120:	6a 11                	push   $0x11
  302122:	e9 c4 1c 00 00       	jmp    303deb <idt_common>
  302127:	8d b4 26 00 00 00 00 	lea    0x0(%esi,%eiz,1),%esi
  30212e:	66 90                	xchg   %ax,%ax
  302130:	6a ff                	push   $0xffffffff
  302132:	6a 12                	push   $0x12
  302134:	e9 b2 1c 00 00       	jmp    303deb <idt_common>
  302139:	8d b4 26 00 00 00 00 	lea    0x0(%esi,%eiz,1),%esi
  302140:	6a ff                	push   $0xffffffff
  302142:	6a 13                	push   $0x13
  302144:	e9 a2 1c 00 00       	jmp    303deb <idt_common>
  302149:	8d b4 26 00 00 00 00 	lea    0x0(%esi,%eiz,1),%esi
  302150:	cf                   	iret   
  302151:	8d b4 26 00 00 00 00 	lea    0x0(%esi,%eiz,1),%esi
  302158:	8d b4 26 00 00 00 00 	lea    0x0(%esi,%eiz,1),%esi
  30215f:	90                   	nop
  302160:	cf                   	iret   
  302161:	8d b4 26 00 00 00 00 	lea    0x0(%esi,%eiz,1),%esi
  302168:	8d b4 26 00 00 00 00 	lea    0x0(%esi,%eiz,1),%esi
  30216f:	90                   	nop
  302170:	cf                   	iret   
  302171:	8d b4 26 00 00 00 00 	lea    0x0(%esi,%eiz,1),%esi
  302178:	8d b4 26 00 00 00 00 	lea    0x0(%esi,%eiz,1),%esi
  30217f:	90                   	nop
  302180:	cf                   	iret   
  302181:	8d b4 26 00 00 00 00 	lea    0x0(%esi,%eiz,1),%esi
  302188:	8d b4 26 00 00 00 00 	lea    0x0(%esi,%eiz,1),%esi
  30218f:	90                   	nop
  302190:	cf                   	iret   
  302191:	8d b4 26 00 00 00 00 	lea    0x0(%esi,%eiz,1),%esi
  302198:	8d b4 26 00 00 00 00 	lea    0x0(%esi,%eiz,1),%esi
  30219f:	90                   	nop
  3021a0:	cf                   	iret   
  3021a1:	8d b4 26 00 00 00 00 	lea    0x0(%esi,%eiz,1),%esi
  3021a8:	8d b4 26 00 00 00 00 	lea    0x0(%esi,%eiz,1),%esi
  3021af:	90                   	nop
  3021b0:	cf                   	iret   
  3021b1:	8d b4 26 00 00 00 00 	lea    0x0(%esi,%eiz,1),%esi
  3021b8:	8d b4 26 00 00 00 00 	lea    0x0(%esi,%eiz,1),%esi
  3021bf:	90                   	nop
  3021c0:	cf                   	iret   
  3021c1:	8d b4 26 00 00 00 00 	lea    0x0(%esi,%eiz,1),%esi
  3021c8:	8d b4 26 00 00 00 00 	lea    0x0(%esi,%eiz,1),%esi
  3021cf:	90                   	nop
  3021d0:	cf                   	iret   
  3021d1:	8d b4 26 00 00 00 00 	lea    0x0(%esi,%eiz,1),%esi
  3021d8:	8d b4 26 00 00 00 00 	lea    0x0(%esi,%eiz,1),%esi
  3021df:	90                   	nop
  3021e0:	cf                   	iret   
  3021e1:	8d b4 26 00 00 00 00 	lea    0x0(%esi,%eiz,1),%esi
  3021e8:	8d b4 26 00 00 00 00 	lea    0x0(%esi,%eiz,1),%esi
  3021ef:	90                   	nop
  3021f0:	cf                   	iret   
  3021f1:	8d b4 26 00 00 00 00 	lea    0x0(%esi,%eiz,1),%esi
  3021f8:	8d b4 26 00 00 00 00 	lea    0x0(%esi,%eiz,1),%esi
  3021ff:	90                   	nop
  302200:	cf                   	iret   
  302201:	8d b4 26 00 00 00 00 	lea    0x0(%esi,%eiz,1),%esi
  302208:	8d b4 26 00 00 00 00 	lea    0x0(%esi,%eiz,1),%esi
  30220f:	90                   	nop
  302210:	6a ff                	push   $0xffffffff
  302212:	6a 20                	push   $0x20
  302214:	e9 cc 1b 00 00       	jmp    303de5 <ack_pic1>
  302219:	8d b4 26 00 00 00 00 	lea    0x0(%esi,%eiz,1),%esi
  302220:	6a ff                	push   $0xffffffff
  302222:	6a 21                	push   $0x21
  302224:	e9 bc 1b 00 00       	jmp    303de5 <ack_pic1>
  302229:	8d b4 26 00 00 00 00 	lea    0x0(%esi,%eiz,1),%esi
  302230:	6a ff                	push   $0xffffffff
  302232:	6a 22                	push   $0x22
  302234:	e9 ac 1b 00 00       	jmp    303de5 <ack_pic1>
  302239:	8d b4 26 00 00 00 00 	lea    0x0(%esi,%eiz,1),%esi
  302240:	6a ff                	push   $0xffffffff
  302242:	6a 23                	push   $0x23
  302244:	e9 9c 1b 00 00       	jmp    303de5 <ack_pic1>
  302249:	8d b4 26 00 00 00 00 	lea    0x0(%esi,%eiz,1),%esi
  302250:	6a ff                	push   $0xffffffff
  302252:	6a 24                	push   $0x24
  302254:	e9 8c 1b 00 00       	jmp    303de5 <ack_pic1>
  302259:	8d b4 26 00 00 00 00 	lea    0x0(%esi,%eiz,1),%esi
  302260:	6a ff                	push   $0xffffffff
  302262:	6a 25                	push   $0x25
  302264:	e9 7c 1b 00 00       	jmp    303de5 <ack_pic1>
  302269:	8d b4 26 00 00 00 00 	lea    0x0(%esi,%eiz,1),%esi
  302270:	6a ff                	push   $0xffffffff
  302272:	6a 26                	push   $0x26
  302274:	e9 6c 1b 00 00       	jmp    303de5 <ack_pic1>
  302279:	8d b4 26 00 00 00 00 	lea    0x0(%esi,%eiz,1),%esi
  302280:	6a ff                	push   $0xffffffff
  302282:	6a 27                	push   $0x27
  302284:	e9 5c 1b 00 00       	jmp    303de5 <ack_pic1>
  302289:	8d b4 26 00 00 00 00 	lea    0x0(%esi,%eiz,1),%esi
  302290:	6a ff                	push   $0xffffffff
  302292:	6a 28                	push   $0x28
  302294:	e9 45 1b 00 00       	jmp    303dde <ack_pic2>
  302299:	8d b4 26 00 00 00 00 	lea    0x0(%esi,%eiz,1),%esi
  3022a0:	6a ff                	push   $0xffffffff
  3022a2:	6a 29                	push   $0x29
  3022a4:	e9 35 1b 00 00       	jmp    303dde <ack_pic2>
  3022a9:	8d b4 26 00 00 00 00 	lea    0x0(%esi,%eiz,1),%esi
  3022b0:	6a ff                	push   $0xffffffff
  3022b2:	6a 2a                	push   $0x2a
  3022b4:	e9 25 1b 00 00       	jmp    303dde <ack_pic2>
  3022b9:	8d b4 26 00 00 00 00 	lea    0x0(%esi,%eiz,1),%esi
  3022c0:	6a ff                	push   $0xffffffff
  3022c2:	6a 2b                	push   $0x2b
  3022c4:	e9 15 1b 00 00       	jmp    303dde <ack_pic2>
  3022c9:	8d b4 26 00 00 00 00 	lea    0x0(%esi,%eiz,1),%esi
  3022d0:	6a ff                	push   $0xffffffff
  3022d2:	6a 2c                	push   $0x2c
  3022d4:	e9 05 1b 00 00       	jmp    303dde <ack_pic2>
  3022d9:	8d b4 26 00 00 00 00 	lea    0x0(%esi,%eiz,1),%esi
  3022e0:	6a ff                	push   $0xffffffff
  3022e2:	6a 2d                	push   $0x2d
  3022e4:	e9 f5 1a 00 00       	jmp    303dde <ack_pic2>
  3022e9:	8d b4 26 00 00 00 00 	lea    0x0(%esi,%eiz,1),%esi
  3022f0:	6a ff                	push   $0xffffffff
  3022f2:	6a 2e                	push   $0x2e
  3022f4:	e9 e5 1a 00 00       	jmp    303dde <ack_pic2>
  3022f9:	8d b4 26 00 00 00 00 	lea    0x0(%esi,%eiz,1),%esi
  302300:	6a ff                	push   $0xffffffff
  302302:	6a 2f                	push   $0x2f
  302304:	e9 d5 1a 00 00       	jmp    303dde <ack_pic2>
  302309:	8d b4 26 00 00 00 00 	lea    0x0(%esi,%eiz,1),%esi
  302310:	6a ff                	push   $0xffffffff
  302312:	6a 30                	push   $0x30
  302314:	e9 d2 1a 00 00       	jmp    303deb <idt_common>
  302319:	8d b4 26 00 00 00 00 	lea    0x0(%esi,%eiz,1),%esi
  302320:	6a ff                	push   $0xffffffff
  302322:	6a 31                	push   $0x31
  302324:	e9 c2 1a 00 00       	jmp    303deb <idt_common>
  302329:	8d b4 26 00 00 00 00 	lea    0x0(%esi,%eiz,1),%esi
  302330:	6a ff                	push   $0xffffffff
  302332:	6a 32                	push   $0x32
  302334:	e9 b2 1a 00 00       	jmp    303deb <idt_common>
  302339:	8d b4 26 00 00 00 00 	lea    0x0(%esi,%eiz,1),%esi
  302340:	6a ff                	push   $0xffffffff
  302342:	6a 33                	push   $0x33
  302344:	e9 a2 1a 00 00       	jmp    303deb <idt_common>
  302349:	8d b4 26 00 00 00 00 	lea    0x0(%esi,%eiz,1),%esi
  302350:	6a ff                	push   $0xffffffff
  302352:	6a 34                	push   $0x34
  302354:	e9 92 1a 00 00       	jmp    303deb <idt_common>
  302359:	8d b4 26 00 00 00 00 	lea    0x0(%esi,%eiz,1),%esi
  302360:	6a ff                	push   $0xffffffff
  302362:	6a 35                	push   $0x35
  302364:	e9 82 1a 00 00       	jmp    303deb <idt_common>
  302369:	8d b4 26 00 00 00 00 	lea    0x0(%esi,%eiz,1),%esi
  302370:	6a ff                	push   $0xffffffff
  302372:	6a 36                	push   $0x36
  302374:	e9 72 1a 00 00       	jmp    303deb <idt_common>
  302379:	8d b4 26 00 00 00 00 	lea    0x0(%esi,%eiz,1),%esi
  302380:	6a ff                	push   $0xffffffff
  302382:	6a 37                	push   $0x37
  302384:	e9 62 1a 00 00       	jmp    303deb <idt_common>
  302389:	8d b4 26 00 00 00 00 	lea    0x0(%esi,%eiz,1),%esi
  302390:	6a ff                	push   $0xffffffff
  302392:	6a 38                	push   $0x38
  302394:	e9 52 1a 00 00       	jmp    303deb <idt_common>
  302399:	8d b4 26 00 00 00 00 	lea    0x0(%esi,%eiz,1),%esi
  3023a0:	6a ff                	push   $0xffffffff
  3023a2:	6a 39                	push   $0x39
  3023a4:	e9 42 1a 00 00       	jmp    303deb <idt_common>
  3023a9:	8d b4 26 00 00 00 00 	lea    0x0(%esi,%eiz,1),%esi
  3023b0:	6a ff                	push   $0xffffffff
  3023b2:	6a 3a                	push   $0x3a
  3023b4:	e9 32 1a 00 00       	jmp    303deb <idt_common>
  3023b9:	8d b4 26 00 00 00 00 	lea    0x0(%esi,%eiz,1),%esi
  3023c0:	6a ff                	push   $0xffffffff
  3023c2:	6a 3b                	push   $0x3b
  3023c4:	e9 22 1a 00 00       	jmp    303deb <idt_common>
  3023c9:	8d b4 26 00 00 00 00 	lea    0x0(%esi,%eiz,1),%esi
  3023d0:	6a ff                	push   $0xffffffff
  3023d2:	6a 3c                	push   $0x3c
  3023d4:	e9 12 1a 00 00       	jmp    303deb <idt_common>
  3023d9:	8d b4 26 00 00 00 00 	lea    0x0(%esi,%eiz,1),%esi
  3023e0:	6a ff                	push   $0xffffffff
  3023e2:	6a 3d                	push   $0x3d
  3023e4:	e9 02 1a 00 00       	jmp    303deb <idt_common>
  3023e9:	8d b4 26 00 00 00 00 	lea    0x0(%esi,%eiz,1),%esi
  3023f0:	6a ff                	push   $0xffffffff
  3023f2:	6a 3e                	push   $0x3e
  3023f4:	e9 f2 19 00 00       	jmp    303deb <idt_common>
  3023f9:	8d b4 26 00 00 00 00 	lea    0x0(%esi,%eiz,1),%esi
  302400:	6a ff                	push   $0xffffffff
  302402:	6a 3f                	push   $0x3f
  302404:	e9 e2 19 00 00       	jmp    303deb <idt_common>
  302409:	8d b4 26 00 00 00 00 	lea    0x0(%esi,%eiz,1),%esi
  302410:	6a ff                	push   $0xffffffff
  302412:	6a 40                	push   $0x40
  302414:	e9 d2 19 00 00       	jmp    303deb <idt_common>
  302419:	8d b4 26 00 00 00 00 	lea    0x0(%esi,%eiz,1),%esi
  302420:	6a ff                	push   $0xffffffff
  302422:	6a 41                	push   $0x41
  302424:	e9 c2 19 00 00       	jmp    303deb <idt_common>
  302429:	8d b4 26 00 00 00 00 	lea    0x0(%esi,%eiz,1),%esi
  302430:	6a ff                	push   $0xffffffff
  302432:	6a 42                	push   $0x42
  302434:	e9 b2 19 00 00       	jmp    303deb <idt_common>
  302439:	8d b4 26 00 00 00 00 	lea    0x0(%esi,%eiz,1),%esi
  302440:	6a ff                	push   $0xffffffff
  302442:	6a 43                	push   $0x43
  302444:	e9 a2 19 00 00       	jmp    303deb <idt_common>
  302449:	8d b4 26 00 00 00 00 	lea    0x0(%esi,%eiz,1),%esi
  302450:	6a ff                	push   $0xffffffff
  302452:	6a 44                	push   $0x44
  302454:	e9 92 19 00 00       	jmp    303deb <idt_common>
  302459:	8d b4 26 00 00 00 00 	lea    0x0(%esi,%eiz,1),%esi
  302460:	6a ff                	push   $0xffffffff
  302462:	6a 45                	push   $0x45
  302464:	e9 82 19 00 00       	jmp    303deb <idt_common>
  302469:	8d b4 26 00 00 00 00 	lea    0x0(%esi,%eiz,1),%esi
  302470:	6a ff                	push   $0xffffffff
  302472:	6a 46                	push   $0x46
  302474:	e9 72 19 00 00       	jmp    303deb <idt_common>
  302479:	8d b4 26 00 00 00 00 	lea    0x0(%esi,%eiz,1),%esi
  302480:	6a ff                	push   $0xffffffff
  302482:	6a 47                	push   $0x47
  302484:	e9 62 19 00 00       	jmp    303deb <idt_common>
  302489:	8d b4 26 00 00 00 00 	lea    0x0(%esi,%eiz,1),%esi
  302490:	6a ff                	push   $0xffffffff
  302492:	6a 48                	push   $0x48
  302494:	e9 52 19 00 00       	jmp    303deb <idt_common>
  302499:	8d b4 26 00 00 00 00 	lea    0x0(%esi,%eiz,1),%esi
  3024a0:	6a ff                	push   $0xffffffff
  3024a2:	6a 49                	push   $0x49
  3024a4:	e9 42 19 00 00       	jmp    303deb <idt_common>
  3024a9:	8d b4 26 00 00 00 00 	lea    0x0(%esi,%eiz,1),%esi
  3024b0:	6a ff                	push   $0xffffffff
  3024b2:	6a 4a                	push   $0x4a
  3024b4:	e9 32 19 00 00       	jmp    303deb <idt_common>
  3024b9:	8d b4 26 00 00 00 00 	lea    0x0(%esi,%eiz,1),%esi
  3024c0:	6a ff                	push   $0xffffffff
  3024c2:	6a 4b                	push   $0x4b
  3024c4:	e9 22 19 00 00       	jmp    303deb <idt_common>
  3024c9:	8d b4 26 00 00 00 00 	lea    0x0(%esi,%eiz,1),%esi
  3024d0:	6a ff                	push   $0xffffffff
  3024d2:	6a 4c                	push   $0x4c
  3024d4:	e9 12 19 00 00       	jmp    303deb <idt_common>
  3024d9:	8d b4 26 00 00 00 00 	lea    0x0(%esi,%eiz,1),%esi
  3024e0:	6a ff                	push   $0xffffffff
  3024e2:	6a 4d                	push   $0x4d
  3024e4:	e9 02 19 00 00       	jmp    303deb <idt_common>
  3024e9:	8d b4 26 00 00 00 00 	lea    0x0(%esi,%eiz,1),%esi
  3024f0:	6a ff                	push   $0xffffffff
  3024f2:	6a 4e                	push   $0x4e
  3024f4:	e9 f2 18 00 00       	jmp    303deb <idt_common>
  3024f9:	8d b4 26 00 00 00 00 	lea    0x0(%esi,%eiz,1),%esi
  302500:	6a ff                	push   $0xffffffff
  302502:	6a 4f                	push   $0x4f
  302504:	e9 e2 18 00 00       	jmp    303deb <idt_common>
  302509:	8d b4 26 00 00 00 00 	lea    0x0(%esi,%eiz,1),%esi
  302510:	6a ff                	push   $0xffffffff
  302512:	6a 50                	push   $0x50
  302514:	e9 d2 18 00 00       	jmp    303deb <idt_common>
  302519:	8d b4 26 00 00 00 00 	lea    0x0(%esi,%eiz,1),%esi
  302520:	6a ff                	push   $0xffffffff
  302522:	6a 51                	push   $0x51
  302524:	e9 c2 18 00 00       	jmp    303deb <idt_common>
  302529:	8d b4 26 00 00 00 00 	lea    0x0(%esi,%eiz,1),%esi
  302530:	6a ff                	push   $0xffffffff
  302532:	6a 52                	push   $0x52
  302534:	e9 b2 18 00 00       	jmp    303deb <idt_common>
  302539:	8d b4 26 00 00 00 00 	lea    0x0(%esi,%eiz,1),%esi
  302540:	6a ff                	push   $0xffffffff
  302542:	6a 53                	push   $0x53
  302544:	e9 a2 18 00 00       	jmp    303deb <idt_common>
  302549:	8d b4 26 00 00 00 00 	lea    0x0(%esi,%eiz,1),%esi
  302550:	6a ff                	push   $0xffffffff
  302552:	6a 54                	push   $0x54
  302554:	e9 92 18 00 00       	jmp    303deb <idt_common>
  302559:	8d b4 26 00 00 00 00 	lea    0x0(%esi,%eiz,1),%esi
  302560:	6a ff                	push   $0xffffffff
  302562:	6a 55                	push   $0x55
  302564:	e9 82 18 00 00       	jmp    303deb <idt_common>
  302569:	8d b4 26 00 00 00 00 	lea    0x0(%esi,%eiz,1),%esi
  302570:	6a ff                	push   $0xffffffff
  302572:	6a 56                	push   $0x56
  302574:	e9 72 18 00 00       	jmp    303deb <idt_common>
  302579:	8d b4 26 00 00 00 00 	lea    0x0(%esi,%eiz,1),%esi
  302580:	6a ff                	push   $0xffffffff
  302582:	6a 57                	push   $0x57
  302584:	e9 62 18 00 00       	jmp    303deb <idt_common>
  302589:	8d b4 26 00 00 00 00 	lea    0x0(%esi,%eiz,1),%esi
  302590:	6a ff                	push   $0xffffffff
  302592:	6a 58                	push   $0x58
  302594:	e9 52 18 00 00       	jmp    303deb <idt_common>
  302599:	8d b4 26 00 00 00 00 	lea    0x0(%esi,%eiz,1),%esi
  3025a0:	6a ff                	push   $0xffffffff
  3025a2:	6a 59                	push   $0x59
  3025a4:	e9 42 18 00 00       	jmp    303deb <idt_common>
  3025a9:	8d b4 26 00 00 00 00 	lea    0x0(%esi,%eiz,1),%esi
  3025b0:	6a ff                	push   $0xffffffff
  3025b2:	6a 5a                	push   $0x5a
  3025b4:	e9 32 18 00 00       	jmp    303deb <idt_common>
  3025b9:	8d b4 26 00 00 00 00 	lea    0x0(%esi,%eiz,1),%esi
  3025c0:	6a ff                	push   $0xffffffff
  3025c2:	6a 5b                	push   $0x5b
  3025c4:	e9 22 18 00 00       	jmp    303deb <idt_common>
  3025c9:	8d b4 26 00 00 00 00 	lea    0x0(%esi,%eiz,1),%esi
  3025d0:	6a ff                	push   $0xffffffff
  3025d2:	6a 5c                	push   $0x5c
  3025d4:	e9 12 18 00 00       	jmp    303deb <idt_common>
  3025d9:	8d b4 26 00 00 00 00 	lea    0x0(%esi,%eiz,1),%esi
  3025e0:	6a ff                	push   $0xffffffff
  3025e2:	6a 5d                	push   $0x5d
  3025e4:	e9 02 18 00 00       	jmp    303deb <idt_common>
  3025e9:	8d b4 26 00 00 00 00 	lea    0x0(%esi,%eiz,1),%esi
  3025f0:	6a ff                	push   $0xffffffff
  3025f2:	6a 5e                	push   $0x5e
  3025f4:	e9 f2 17 00 00       	jmp    303deb <idt_common>
  3025f9:	8d b4 26 00 00 00 00 	lea    0x0(%esi,%eiz,1),%esi
  302600:	6a ff                	push   $0xffffffff
  302602:	6a 5f                	push   $0x5f
  302604:	e9 e2 17 00 00       	jmp    303deb <idt_common>
  302609:	8d b4 26 00 00 00 00 	lea    0x0(%esi,%eiz,1),%esi
  302610:	6a ff                	push   $0xffffffff
  302612:	6a 60                	push   $0x60
  302614:	e9 d2 17 00 00       	jmp    303deb <idt_common>
  302619:	8d b4 26 00 00 00 00 	lea    0x0(%esi,%eiz,1),%esi
  302620:	6a ff                	push   $0xffffffff
  302622:	6a 61                	push   $0x61
  302624:	e9 c2 17 00 00       	jmp    303deb <idt_common>
  302629:	8d b4 26 00 00 00 00 	lea    0x0(%esi,%eiz,1),%esi
  302630:	6a ff                	push   $0xffffffff
  302632:	6a 62                	push   $0x62
  302634:	e9 b2 17 00 00       	jmp    303deb <idt_common>
  302639:	8d b4 26 00 00 00 00 	lea    0x0(%esi,%eiz,1),%esi
  302640:	6a ff                	push   $0xffffffff
  302642:	6a 63                	push   $0x63
  302644:	e9 a2 17 00 00       	jmp    303deb <idt_common>
  302649:	8d b4 26 00 00 00 00 	lea    0x0(%esi,%eiz,1),%esi
  302650:	6a ff                	push   $0xffffffff
  302652:	6a 64                	push   $0x64
  302654:	e9 92 17 00 00       	jmp    303deb <idt_common>
  302659:	8d b4 26 00 00 00 00 	lea    0x0(%esi,%eiz,1),%esi
  302660:	6a ff                	push   $0xffffffff
  302662:	6a 65                	push   $0x65
  302664:	e9 82 17 00 00       	jmp    303deb <idt_common>
  302669:	8d b4 26 00 00 00 00 	lea    0x0(%esi,%eiz,1),%esi
  302670:	6a ff                	push   $0xffffffff
  302672:	6a 66                	push   $0x66
  302674:	e9 72 17 00 00       	jmp    303deb <idt_common>
  302679:	8d b4 26 00 00 00 00 	lea    0x0(%esi,%eiz,1),%esi
  302680:	6a ff                	push   $0xffffffff
  302682:	6a 67                	push   $0x67
  302684:	e9 62 17 00 00       	jmp    303deb <idt_common>
  302689:	8d b4 26 00 00 00 00 	lea    0x0(%esi,%eiz,1),%esi
  302690:	6a ff                	push   $0xffffffff
  302692:	6a 68                	push   $0x68
  302694:	e9 52 17 00 00       	jmp    303deb <idt_common>
  302699:	8d b4 26 00 00 00 00 	lea    0x0(%esi,%eiz,1),%esi
  3026a0:	6a ff                	push   $0xffffffff
  3026a2:	6a 69                	push   $0x69
  3026a4:	e9 42 17 00 00       	jmp    303deb <idt_common>
  3026a9:	8d b4 26 00 00 00 00 	lea    0x0(%esi,%eiz,1),%esi
  3026b0:	6a ff                	push   $0xffffffff
  3026b2:	6a 6a                	push   $0x6a
  3026b4:	e9 32 17 00 00       	jmp    303deb <idt_common>
  3026b9:	8d b4 26 00 00 00 00 	lea    0x0(%esi,%eiz,1),%esi
  3026c0:	6a ff                	push   $0xffffffff
  3026c2:	6a 6b                	push   $0x6b
  3026c4:	e9 22 17 00 00       	jmp    303deb <idt_common>
  3026c9:	8d b4 26 00 00 00 00 	lea    0x0(%esi,%eiz,1),%esi
  3026d0:	6a ff                	push   $0xffffffff
  3026d2:	6a 6c                	push   $0x6c
  3026d4:	e9 12 17 00 00       	jmp    303deb <idt_common>
  3026d9:	8d b4 26 00 00 00 00 	lea    0x0(%esi,%eiz,1),%esi
  3026e0:	6a ff                	push   $0xffffffff
  3026e2:	6a 6d                	push   $0x6d
  3026e4:	e9 02 17 00 00       	jmp    303deb <idt_common>
  3026e9:	8d b4 26 00 00 00 00 	lea    0x0(%esi,%eiz,1),%esi
  3026f0:	6a ff                	push   $0xffffffff
  3026f2:	6a 6e                	push   $0x6e
  3026f4:	e9 f2 16 00 00       	jmp    303deb <idt_common>
  3026f9:	8d b4 26 00 00 00 00 	lea    0x0(%esi,%eiz,1),%esi
  302700:	6a ff                	push   $0xffffffff
  302702:	6a 6f                	push   $0x6f
  302704:	e9 e2 16 00 00       	jmp    303deb <idt_common>
  302709:	8d b4 26 00 00 00 00 	lea    0x0(%esi,%eiz,1),%esi
  302710:	6a ff                	push   $0xffffffff
  302712:	6a 70                	push   $0x70
  302714:	e9 d2 16 00 00       	jmp    303deb <idt_common>
  302719:	8d b4 26 00 00 00 00 	lea    0x0(%esi,%eiz,1),%esi
  302720:	6a ff                	push   $0xffffffff
  302722:	6a 71                	push   $0x71
  302724:	e9 c2 16 00 00       	jmp    303deb <idt_common>
  302729:	8d b4 26 00 00 00 00 	lea    0x0(%esi,%eiz,1),%esi
  302730:	6a ff                	push   $0xffffffff
  302732:	6a 72                	push   $0x72
  302734:	e9 b2 16 00 00       	jmp    303deb <idt_common>
  302739:	8d b4 26 00 00 00 00 	lea    0x0(%esi,%eiz,1),%esi
  302740:	6a ff                	push   $0xffffffff
  302742:	6a 73                	push   $0x73
  302744:	e9 a2 16 00 00       	jmp    303deb <idt_common>
  302749:	8d b4 26 00 00 00 00 	lea    0x0(%esi,%eiz,1),%esi
  302750:	6a ff                	push   $0xffffffff
  302752:	6a 74                	push   $0x74
  302754:	e9 92 16 00 00       	jmp    303deb <idt_common>
  302759:	8d b4 26 00 00 00 00 	lea    0x0(%esi,%eiz,1),%esi
  302760:	6a ff                	push   $0xffffffff
  302762:	6a 75                	push   $0x75
  302764:	e9 82 16 00 00       	jmp    303deb <idt_common>
  302769:	8d b4 26 00 00 00 00 	lea    0x0(%esi,%eiz,1),%esi
  302770:	6a ff                	push   $0xffffffff
  302772:	6a 76                	push   $0x76
  302774:	e9 72 16 00 00       	jmp    303deb <idt_common>
  302779:	8d b4 26 00 00 00 00 	lea    0x0(%esi,%eiz,1),%esi
  302780:	6a ff                	push   $0xffffffff
  302782:	6a 77                	push   $0x77
  302784:	e9 62 16 00 00       	jmp    303deb <idt_common>
  302789:	8d b4 26 00 00 00 00 	lea    0x0(%esi,%eiz,1),%esi
  302790:	6a ff                	push   $0xffffffff
  302792:	6a 78                	push   $0x78
  302794:	e9 52 16 00 00       	jmp    303deb <idt_common>
  302799:	8d b4 26 00 00 00 00 	lea    0x0(%esi,%eiz,1),%esi
  3027a0:	6a ff                	push   $0xffffffff
  3027a2:	6a 79                	push   $0x79
  3027a4:	e9 42 16 00 00       	jmp    303deb <idt_common>
  3027a9:	8d b4 26 00 00 00 00 	lea    0x0(%esi,%eiz,1),%esi
  3027b0:	6a ff                	push   $0xffffffff
  3027b2:	6a 7a                	push   $0x7a
  3027b4:	e9 32 16 00 00       	jmp    303deb <idt_common>
  3027b9:	8d b4 26 00 00 00 00 	lea    0x0(%esi,%eiz,1),%esi
  3027c0:	6a ff                	push   $0xffffffff
  3027c2:	6a 7b                	push   $0x7b
  3027c4:	e9 22 16 00 00       	jmp    303deb <idt_common>
  3027c9:	8d b4 26 00 00 00 00 	lea    0x0(%esi,%eiz,1),%esi
  3027d0:	6a ff                	push   $0xffffffff
  3027d2:	6a 7c                	push   $0x7c
  3027d4:	e9 12 16 00 00       	jmp    303deb <idt_common>
  3027d9:	8d b4 26 00 00 00 00 	lea    0x0(%esi,%eiz,1),%esi
  3027e0:	6a ff                	push   $0xffffffff
  3027e2:	6a 7d                	push   $0x7d
  3027e4:	e9 02 16 00 00       	jmp    303deb <idt_common>
  3027e9:	8d b4 26 00 00 00 00 	lea    0x0(%esi,%eiz,1),%esi
  3027f0:	6a ff                	push   $0xffffffff
  3027f2:	6a 7e                	push   $0x7e
  3027f4:	e9 f2 15 00 00       	jmp    303deb <idt_common>
  3027f9:	8d b4 26 00 00 00 00 	lea    0x0(%esi,%eiz,1),%esi
  302800:	6a ff                	push   $0xffffffff
  302802:	6a 7f                	push   $0x7f
  302804:	e9 e2 15 00 00       	jmp    303deb <idt_common>
  302809:	8d b4 26 00 00 00 00 	lea    0x0(%esi,%eiz,1),%esi
  302810:	6a ff                	push   $0xffffffff
  302812:	68 80 00 00 00       	push   $0x80
  302817:	e9 cf 15 00 00       	jmp    303deb <idt_common>
  30281c:	8d 74 26 00          	lea    0x0(%esi,%eiz,1),%esi
  302820:	6a ff                	push   $0xffffffff
  302822:	68 81 00 00 00       	push   $0x81
  302827:	e9 bf 15 00 00       	jmp    303deb <idt_common>
  30282c:	8d 74 26 00          	lea    0x0(%esi,%eiz,1),%esi
  302830:	6a ff                	push   $0xffffffff
  302832:	68 82 00 00 00       	push   $0x82
  302837:	e9 af 15 00 00       	jmp    303deb <idt_common>
  30283c:	8d 74 26 00          	lea    0x0(%esi,%eiz,1),%esi
  302840:	6a ff                	push   $0xffffffff
  302842:	68 83 00 00 00       	push   $0x83
  302847:	e9 9f 15 00 00       	jmp    303deb <idt_common>
  30284c:	8d 74 26 00          	lea    0x0(%esi,%eiz,1),%esi
  302850:	6a ff                	push   $0xffffffff
  302852:	68 84 00 00 00       	push   $0x84
  302857:	e9 8f 15 00 00       	jmp    303deb <idt_common>
  30285c:	8d 74 26 00          	lea    0x0(%esi,%eiz,1),%esi
  302860:	6a ff                	push   $0xffffffff
  302862:	68 85 00 00 00       	push   $0x85
  302867:	e9 7f 15 00 00       	jmp    303deb <idt_common>
  30286c:	8d 74 26 00          	lea    0x0(%esi,%eiz,1),%esi
  302870:	6a ff                	push   $0xffffffff
  302872:	68 86 00 00 00       	push   $0x86
  302877:	e9 6f 15 00 00       	jmp    303deb <idt_common>
  30287c:	8d 74 26 00          	lea    0x0(%esi,%eiz,1),%esi
  302880:	6a ff                	push   $0xffffffff
  302882:	68 87 00 00 00       	push   $0x87
  302887:	e9 5f 15 00 00       	jmp    303deb <idt_common>
  30288c:	8d 74 26 00          	lea    0x0(%esi,%eiz,1),%esi
  302890:	6a ff                	push   $0xffffffff
  302892:	68 88 00 00 00       	push   $0x88
  302897:	e9 4f 15 00 00       	jmp    303deb <idt_common>
  30289c:	8d 74 26 00          	lea    0x0(%esi,%eiz,1),%esi
  3028a0:	6a ff                	push   $0xffffffff
  3028a2:	68 89 00 00 00       	push   $0x89
  3028a7:	e9 3f 15 00 00       	jmp    303deb <idt_common>
  3028ac:	8d 74 26 00          	lea    0x0(%esi,%eiz,1),%esi
  3028b0:	6a ff                	push   $0xffffffff
  3028b2:	68 8a 00 00 00       	push   $0x8a
  3028b7:	e9 2f 15 00 00       	jmp    303deb <idt_common>
  3028bc:	8d 74 26 00          	lea    0x0(%esi,%eiz,1),%esi
  3028c0:	6a ff                	push   $0xffffffff
  3028c2:	68 8b 00 00 00       	push   $0x8b
  3028c7:	e9 1f 15 00 00       	jmp    303deb <idt_common>
  3028cc:	8d 74 26 00          	lea    0x0(%esi,%eiz,1),%esi
  3028d0:	6a ff                	push   $0xffffffff
  3028d2:	68 8c 00 00 00       	push   $0x8c
  3028d7:	e9 0f 15 00 00       	jmp    303deb <idt_common>
  3028dc:	8d 74 26 00          	lea    0x0(%esi,%eiz,1),%esi
  3028e0:	6a ff                	push   $0xffffffff
  3028e2:	68 8d 00 00 00       	push   $0x8d
  3028e7:	e9 ff 14 00 00       	jmp    303deb <idt_common>
  3028ec:	8d 74 26 00          	lea    0x0(%esi,%eiz,1),%esi
  3028f0:	6a ff                	push   $0xffffffff
  3028f2:	68 8e 00 00 00       	push   $0x8e
  3028f7:	e9 ef 14 00 00       	jmp    303deb <idt_common>
  3028fc:	8d 74 26 00          	lea    0x0(%esi,%eiz,1),%esi
  302900:	6a ff                	push   $0xffffffff
  302902:	68 8f 00 00 00       	push   $0x8f
  302907:	e9 df 14 00 00       	jmp    303deb <idt_common>
  30290c:	8d 74 26 00          	lea    0x0(%esi,%eiz,1),%esi
  302910:	6a ff                	push   $0xffffffff
  302912:	68 90 00 00 00       	push   $0x90
  302917:	e9 cf 14 00 00       	jmp    303deb <idt_common>
  30291c:	8d 74 26 00          	lea    0x0(%esi,%eiz,1),%esi
  302920:	6a ff                	push   $0xffffffff
  302922:	68 91 00 00 00       	push   $0x91
  302927:	e9 bf 14 00 00       	jmp    303deb <idt_common>
  30292c:	8d 74 26 00          	lea    0x0(%esi,%eiz,1),%esi
  302930:	6a ff                	push   $0xffffffff
  302932:	68 92 00 00 00       	push   $0x92
  302937:	e9 af 14 00 00       	jmp    303deb <idt_common>
  30293c:	8d 74 26 00          	lea    0x0(%esi,%eiz,1),%esi
  302940:	6a ff                	push   $0xffffffff
  302942:	68 93 00 00 00       	push   $0x93
  302947:	e9 9f 14 00 00       	jmp    303deb <idt_common>
  30294c:	8d 74 26 00          	lea    0x0(%esi,%eiz,1),%esi
  302950:	6a ff                	push   $0xffffffff
  302952:	68 94 00 00 00       	push   $0x94
  302957:	e9 8f 14 00 00       	jmp    303deb <idt_common>
  30295c:	8d 74 26 00          	lea    0x0(%esi,%eiz,1),%esi
  302960:	6a ff                	push   $0xffffffff
  302962:	68 95 00 00 00       	push   $0x95
  302967:	e9 7f 14 00 00       	jmp    303deb <idt_common>
  30296c:	8d 74 26 00          	lea    0x0(%esi,%eiz,1),%esi
  302970:	6a ff                	push   $0xffffffff
  302972:	68 96 00 00 00       	push   $0x96
  302977:	e9 6f 14 00 00       	jmp    303deb <idt_common>
  30297c:	8d 74 26 00          	lea    0x0(%esi,%eiz,1),%esi
  302980:	6a ff                	push   $0xffffffff
  302982:	68 97 00 00 00       	push   $0x97
  302987:	e9 5f 14 00 00       	jmp    303deb <idt_common>
  30298c:	8d 74 26 00          	lea    0x0(%esi,%eiz,1),%esi
  302990:	6a ff                	push   $0xffffffff
  302992:	68 98 00 00 00       	push   $0x98
  302997:	e9 4f 14 00 00       	jmp    303deb <idt_common>
  30299c:	8d 74 26 00          	lea    0x0(%esi,%eiz,1),%esi
  3029a0:	6a ff                	push   $0xffffffff
  3029a2:	68 99 00 00 00       	push   $0x99
  3029a7:	e9 3f 14 00 00       	jmp    303deb <idt_common>
  3029ac:	8d 74 26 00          	lea    0x0(%esi,%eiz,1),%esi
  3029b0:	6a ff                	push   $0xffffffff
  3029b2:	68 9a 00 00 00       	push   $0x9a
  3029b7:	e9 2f 14 00 00       	jmp    303deb <idt_common>
  3029bc:	8d 74 26 00          	lea    0x0(%esi,%eiz,1),%esi
  3029c0:	6a ff                	push   $0xffffffff
  3029c2:	68 9b 00 00 00       	push   $0x9b
  3029c7:	e9 1f 14 00 00       	jmp    303deb <idt_common>
  3029cc:	8d 74 26 00          	lea    0x0(%esi,%eiz,1),%esi
  3029d0:	6a ff                	push   $0xffffffff
  3029d2:	68 9c 00 00 00       	push   $0x9c
  3029d7:	e9 0f 14 00 00       	jmp    303deb <idt_common>
  3029dc:	8d 74 26 00          	lea    0x0(%esi,%eiz,1),%esi
  3029e0:	6a ff                	push   $0xffffffff
  3029e2:	68 9d 00 00 00       	push   $0x9d
  3029e7:	e9 ff 13 00 00       	jmp    303deb <idt_common>
  3029ec:	8d 74 26 00          	lea    0x0(%esi,%eiz,1),%esi
  3029f0:	6a ff                	push   $0xffffffff
  3029f2:	68 9e 00 00 00       	push   $0x9e
  3029f7:	e9 ef 13 00 00       	jmp    303deb <idt_common>
  3029fc:	8d 74 26 00          	lea    0x0(%esi,%eiz,1),%esi
  302a00:	6a ff                	push   $0xffffffff
  302a02:	68 9f 00 00 00       	push   $0x9f
  302a07:	e9 df 13 00 00       	jmp    303deb <idt_common>
  302a0c:	8d 74 26 00          	lea    0x0(%esi,%eiz,1),%esi
  302a10:	6a ff                	push   $0xffffffff
  302a12:	68 a0 00 00 00       	push   $0xa0
  302a17:	e9 cf 13 00 00       	jmp    303deb <idt_common>
  302a1c:	8d 74 26 00          	lea    0x0(%esi,%eiz,1),%esi
  302a20:	6a ff                	push   $0xffffffff
  302a22:	68 a1 00 00 00       	push   $0xa1
  302a27:	e9 bf 13 00 00       	jmp    303deb <idt_common>
  302a2c:	8d 74 26 00          	lea    0x0(%esi,%eiz,1),%esi
  302a30:	6a ff                	push   $0xffffffff
  302a32:	68 a2 00 00 00       	push   $0xa2
  302a37:	e9 af 13 00 00       	jmp    303deb <idt_common>
  302a3c:	8d 74 26 00          	lea    0x0(%esi,%eiz,1),%esi
  302a40:	6a ff                	push   $0xffffffff
  302a42:	68 a3 00 00 00       	push   $0xa3
  302a47:	e9 9f 13 00 00       	jmp    303deb <idt_common>
  302a4c:	8d 74 26 00          	lea    0x0(%esi,%eiz,1),%esi
  302a50:	6a ff                	push   $0xffffffff
  302a52:	68 a4 00 00 00       	push   $0xa4
  302a57:	e9 8f 13 00 00       	jmp    303deb <idt_common>
  302a5c:	8d 74 26 00          	lea    0x0(%esi,%eiz,1),%esi
  302a60:	6a ff                	push   $0xffffffff
  302a62:	68 a5 00 00 00       	push   $0xa5
  302a67:	e9 7f 13 00 00       	jmp    303deb <idt_common>
  302a6c:	8d 74 26 00          	lea    0x0(%esi,%eiz,1),%esi
  302a70:	6a ff                	push   $0xffffffff
  302a72:	68 a6 00 00 00       	push   $0xa6
  302a77:	e9 6f 13 00 00       	jmp    303deb <idt_common>
  302a7c:	8d 74 26 00          	lea    0x0(%esi,%eiz,1),%esi
  302a80:	6a ff                	push   $0xffffffff
  302a82:	68 a7 00 00 00       	push   $0xa7
  302a87:	e9 5f 13 00 00       	jmp    303deb <idt_common>
  302a8c:	8d 74 26 00          	lea    0x0(%esi,%eiz,1),%esi
  302a90:	6a ff                	push   $0xffffffff
  302a92:	68 a8 00 00 00       	push   $0xa8
  302a97:	e9 4f 13 00 00       	jmp    303deb <idt_common>
  302a9c:	8d 74 26 00          	lea    0x0(%esi,%eiz,1),%esi
  302aa0:	6a ff                	push   $0xffffffff
  302aa2:	68 a9 00 00 00       	push   $0xa9
  302aa7:	e9 3f 13 00 00       	jmp    303deb <idt_common>
  302aac:	8d 74 26 00          	lea    0x0(%esi,%eiz,1),%esi
  302ab0:	6a ff                	push   $0xffffffff
  302ab2:	68 aa 00 00 00       	push   $0xaa
  302ab7:	e9 2f 13 00 00       	jmp    303deb <idt_common>
  302abc:	8d 74 26 00          	lea    0x0(%esi,%eiz,1),%esi
  302ac0:	6a ff                	push   $0xffffffff
  302ac2:	68 ab 00 00 00       	push   $0xab
  302ac7:	e9 1f 13 00 00       	jmp    303deb <idt_common>
  302acc:	8d 74 26 00          	lea    0x0(%esi,%eiz,1),%esi
  302ad0:	6a ff                	push   $0xffffffff
  302ad2:	68 ac 00 00 00       	push   $0xac
  302ad7:	e9 0f 13 00 00       	jmp    303deb <idt_common>
  302adc:	8d 74 26 00          	lea    0x0(%esi,%eiz,1),%esi
  302ae0:	6a ff                	push   $0xffffffff
  302ae2:	68 ad 00 00 00       	push   $0xad
  302ae7:	e9 ff 12 00 00       	jmp    303deb <idt_common>
  302aec:	8d 74 26 00          	lea    0x0(%esi,%eiz,1),%esi
  302af0:	6a ff                	push   $0xffffffff
  302af2:	68 ae 00 00 00       	push   $0xae
  302af7:	e9 ef 12 00 00       	jmp    303deb <idt_common>
  302afc:	8d 74 26 00          	lea    0x0(%esi,%eiz,1),%esi
  302b00:	6a ff                	push   $0xffffffff
  302b02:	68 af 00 00 00       	push   $0xaf
  302b07:	e9 df 12 00 00       	jmp    303deb <idt_common>
  302b0c:	8d 74 26 00          	lea    0x0(%esi,%eiz,1),%esi
  302b10:	6a ff                	push   $0xffffffff
  302b12:	68 b0 00 00 00       	push   $0xb0
  302b17:	e9 cf 12 00 00       	jmp    303deb <idt_common>
  302b1c:	8d 74 26 00          	lea    0x0(%esi,%eiz,1),%esi
  302b20:	6a ff                	push   $0xffffffff
  302b22:	68 b1 00 00 00       	push   $0xb1
  302b27:	e9 bf 12 00 00       	jmp    303deb <idt_common>
  302b2c:	8d 74 26 00          	lea    0x0(%esi,%eiz,1),%esi
  302b30:	6a ff                	push   $0xffffffff
  302b32:	68 b2 00 00 00       	push   $0xb2
  302b37:	e9 af 12 00 00       	jmp    303deb <idt_common>
  302b3c:	8d 74 26 00          	lea    0x0(%esi,%eiz,1),%esi
  302b40:	6a ff                	push   $0xffffffff
  302b42:	68 b3 00 00 00       	push   $0xb3
  302b47:	e9 9f 12 00 00       	jmp    303deb <idt_common>
  302b4c:	8d 74 26 00          	lea    0x0(%esi,%eiz,1),%esi
  302b50:	6a ff                	push   $0xffffffff
  302b52:	68 b4 00 00 00       	push   $0xb4
  302b57:	e9 8f 12 00 00       	jmp    303deb <idt_common>
  302b5c:	8d 74 26 00          	lea    0x0(%esi,%eiz,1),%esi
  302b60:	6a ff                	push   $0xffffffff
  302b62:	68 b5 00 00 00       	push   $0xb5
  302b67:	e9 7f 12 00 00       	jmp    303deb <idt_common>
  302b6c:	8d 74 26 00          	lea    0x0(%esi,%eiz,1),%esi
  302b70:	6a ff                	push   $0xffffffff
  302b72:	68 b6 00 00 00       	push   $0xb6
  302b77:	e9 6f 12 00 00       	jmp    303deb <idt_common>
  302b7c:	8d 74 26 00          	lea    0x0(%esi,%eiz,1),%esi
  302b80:	6a ff                	push   $0xffffffff
  302b82:	68 b7 00 00 00       	push   $0xb7
  302b87:	e9 5f 12 00 00       	jmp    303deb <idt_common>
  302b8c:	8d 74 26 00          	lea    0x0(%esi,%eiz,1),%esi
  302b90:	6a ff                	push   $0xffffffff
  302b92:	68 b8 00 00 00       	push   $0xb8
  302b97:	e9 4f 12 00 00       	jmp    303deb <idt_common>
  302b9c:	8d 74 26 00          	lea    0x0(%esi,%eiz,1),%esi
  302ba0:	6a ff                	push   $0xffffffff
  302ba2:	68 b9 00 00 00       	push   $0xb9
  302ba7:	e9 3f 12 00 00       	jmp    303deb <idt_common>
  302bac:	8d 74 26 00          	lea    0x0(%esi,%eiz,1),%esi
  302bb0:	6a ff                	push   $0xffffffff
  302bb2:	68 ba 00 00 00       	push   $0xba
  302bb7:	e9 2f 12 00 00       	jmp    303deb <idt_common>
  302bbc:	8d 74 26 00          	lea    0x0(%esi,%eiz,1),%esi
  302bc0:	6a ff                	push   $0xffffffff
  302bc2:	68 bb 00 00 00       	push   $0xbb
  302bc7:	e9 1f 12 00 00       	jmp    303deb <idt_common>
  302bcc:	8d 74 26 00          	lea    0x0(%esi,%eiz,1),%esi
  302bd0:	6a ff                	push   $0xffffffff
  302bd2:	68 bc 00 00 00       	push   $0xbc
  302bd7:	e9 0f 12 00 00       	jmp    303deb <idt_common>
  302bdc:	8d 74 26 00          	lea    0x0(%esi,%eiz,1),%esi
  302be0:	6a ff                	push   $0xffffffff
  302be2:	68 bd 00 00 00       	push   $0xbd
  302be7:	e9 ff 11 00 00       	jmp    303deb <idt_common>
  302bec:	8d 74 26 00          	lea    0x0(%esi,%eiz,1),%esi
  302bf0:	6a ff                	push   $0xffffffff
  302bf2:	68 be 00 00 00       	push   $0xbe
  302bf7:	e9 ef 11 00 00       	jmp    303deb <idt_common>
  302bfc:	8d 74 26 00          	lea    0x0(%esi,%eiz,1),%esi
  302c00:	6a ff                	push   $0xffffffff
  302c02:	68 bf 00 00 00       	push   $0xbf
  302c07:	e9 df 11 00 00       	jmp    303deb <idt_common>
  302c0c:	8d 74 26 00          	lea    0x0(%esi,%eiz,1),%esi
  302c10:	6a ff                	push   $0xffffffff
  302c12:	68 c0 00 00 00       	push   $0xc0
  302c17:	e9 cf 11 00 00       	jmp    303deb <idt_common>
  302c1c:	8d 74 26 00          	lea    0x0(%esi,%eiz,1),%esi
  302c20:	6a ff                	push   $0xffffffff
  302c22:	68 c1 00 00 00       	push   $0xc1
  302c27:	e9 bf 11 00 00       	jmp    303deb <idt_common>
  302c2c:	8d 74 26 00          	lea    0x0(%esi,%eiz,1),%esi
  302c30:	6a ff                	push   $0xffffffff
  302c32:	68 c2 00 00 00       	push   $0xc2
  302c37:	e9 af 11 00 00       	jmp    303deb <idt_common>
  302c3c:	8d 74 26 00          	lea    0x0(%esi,%eiz,1),%esi
  302c40:	6a ff                	push   $0xffffffff
  302c42:	68 c3 00 00 00       	push   $0xc3
  302c47:	e9 9f 11 00 00       	jmp    303deb <idt_common>
  302c4c:	8d 74 26 00          	lea    0x0(%esi,%eiz,1),%esi
  302c50:	6a ff                	push   $0xffffffff
  302c52:	68 c4 00 00 00       	push   $0xc4
  302c57:	e9 8f 11 00 00       	jmp    303deb <idt_common>
  302c5c:	8d 74 26 00          	lea    0x0(%esi,%eiz,1),%esi
  302c60:	6a ff                	push   $0xffffffff
  302c62:	68 c5 00 00 00       	push   $0xc5
  302c67:	e9 7f 11 00 00       	jmp    303deb <idt_common>
  302c6c:	8d 74 26 00          	lea    0x0(%esi,%eiz,1),%esi
  302c70:	6a ff                	push   $0xffffffff
  302c72:	68 c6 00 00 00       	push   $0xc6
  302c77:	e9 6f 11 00 00       	jmp    303deb <idt_common>
  302c7c:	8d 74 26 00          	lea    0x0(%esi,%eiz,1),%esi
  302c80:	6a ff                	push   $0xffffffff
  302c82:	68 c7 00 00 00       	push   $0xc7
  302c87:	e9 5f 11 00 00       	jmp    303deb <idt_common>
  302c8c:	8d 74 26 00          	lea    0x0(%esi,%eiz,1),%esi
  302c90:	6a ff                	push   $0xffffffff
  302c92:	68 c8 00 00 00       	push   $0xc8
  302c97:	e9 4f 11 00 00       	jmp    303deb <idt_common>
  302c9c:	8d 74 26 00          	lea    0x0(%esi,%eiz,1),%esi
  302ca0:	6a ff                	push   $0xffffffff
  302ca2:	68 c9 00 00 00       	push   $0xc9
  302ca7:	e9 3f 11 00 00       	jmp    303deb <idt_common>
  302cac:	8d 74 26 00          	lea    0x0(%esi,%eiz,1),%esi
  302cb0:	6a ff                	push   $0xffffffff
  302cb2:	68 ca 00 00 00       	push   $0xca
  302cb7:	e9 2f 11 00 00       	jmp    303deb <idt_common>
  302cbc:	8d 74 26 00          	lea    0x0(%esi,%eiz,1),%esi
  302cc0:	6a ff                	push   $0xffffffff
  302cc2:	68 cb 00 00 00       	push   $0xcb
  302cc7:	e9 1f 11 00 00       	jmp    303deb <idt_common>
  302ccc:	8d 74 26 00          	lea    0x0(%esi,%eiz,1),%esi
  302cd0:	6a ff                	push   $0xffffffff
  302cd2:	68 cc 00 00 00       	push   $0xcc
  302cd7:	e9 0f 11 00 00       	jmp    303deb <idt_common>
  302cdc:	8d 74 26 00          	lea    0x0(%esi,%eiz,1),%esi
  302ce0:	6a ff                	push   $0xffffffff
  302ce2:	68 cd 00 00 00       	push   $0xcd
  302ce7:	e9 ff 10 00 00       	jmp    303deb <idt_common>
  302cec:	8d 74 26 00          	lea    0x0(%esi,%eiz,1),%esi
  302cf0:	6a ff                	push   $0xffffffff
  302cf2:	68 ce 00 00 00       	push   $0xce
  302cf7:	e9 ef 10 00 00       	jmp    303deb <idt_common>
  302cfc:	8d 74 26 00          	lea    0x0(%esi,%eiz,1),%esi
  302d00:	6a ff                	push   $0xffffffff
  302d02:	68 cf 00 00 00       	push   $0xcf
  302d07:	e9 df 10 00 00       	jmp    303deb <idt_common>
  302d0c:	8d 74 26 00          	lea    0x0(%esi,%eiz,1),%esi
  302d10:	6a ff                	push   $0xffffffff
  302d12:	68 d0 00 00 00       	push   $0xd0
  302d17:	e9 cf 10 00 00       	jmp    303deb <idt_common>
  302d1c:	8d 74 26 00          	lea    0x0(%esi,%eiz,1),%esi
  302d20:	6a ff                	push   $0xffffffff
  302d22:	68 d1 00 00 00       	push   $0xd1
  302d27:	e9 bf 10 00 00       	jmp    303deb <idt_common>
  302d2c:	8d 74 26 00          	lea    0x0(%esi,%eiz,1),%esi
  302d30:	6a ff                	push   $0xffffffff
  302d32:	68 d2 00 00 00       	push   $0xd2
  302d37:	e9 af 10 00 00       	jmp    303deb <idt_common>
  302d3c:	8d 74 26 00          	lea    0x0(%esi,%eiz,1),%esi
  302d40:	6a ff                	push   $0xffffffff
  302d42:	68 d3 00 00 00       	push   $0xd3
  302d47:	e9 9f 10 00 00       	jmp    303deb <idt_common>
  302d4c:	8d 74 26 00          	lea    0x0(%esi,%eiz,1),%esi
  302d50:	6a ff                	push   $0xffffffff
  302d52:	68 d4 00 00 00       	push   $0xd4
  302d57:	e9 8f 10 00 00       	jmp    303deb <idt_common>
  302d5c:	8d 74 26 00          	lea    0x0(%esi,%eiz,1),%esi
  302d60:	6a ff                	push   $0xffffffff
  302d62:	68 d5 00 00 00       	push   $0xd5
  302d67:	e9 7f 10 00 00       	jmp    303deb <idt_common>
  302d6c:	8d 74 26 00          	lea    0x0(%esi,%eiz,1),%esi
  302d70:	6a ff                	push   $0xffffffff
  302d72:	68 d6 00 00 00       	push   $0xd6
  302d77:	e9 6f 10 00 00       	jmp    303deb <idt_common>
  302d7c:	8d 74 26 00          	lea    0x0(%esi,%eiz,1),%esi
  302d80:	6a ff                	push   $0xffffffff
  302d82:	68 d7 00 00 00       	push   $0xd7
  302d87:	e9 5f 10 00 00       	jmp    303deb <idt_common>
  302d8c:	8d 74 26 00          	lea    0x0(%esi,%eiz,1),%esi
  302d90:	6a ff                	push   $0xffffffff
  302d92:	68 d8 00 00 00       	push   $0xd8
  302d97:	e9 4f 10 00 00       	jmp    303deb <idt_common>
  302d9c:	8d 74 26 00          	lea    0x0(%esi,%eiz,1),%esi
  302da0:	6a ff                	push   $0xffffffff
  302da2:	68 d9 00 00 00       	push   $0xd9
  302da7:	e9 3f 10 00 00       	jmp    303deb <idt_common>
  302dac:	8d 74 26 00          	lea    0x0(%esi,%eiz,1),%esi
  302db0:	6a ff                	push   $0xffffffff
  302db2:	68 da 00 00 00       	push   $0xda
  302db7:	e9 2f 10 00 00       	jmp    303deb <idt_common>
  302dbc:	8d 74 26 00          	lea    0x0(%esi,%eiz,1),%esi
  302dc0:	6a ff                	push   $0xffffffff
  302dc2:	68 db 00 00 00       	push   $0xdb
  302dc7:	e9 1f 10 00 00       	jmp    303deb <idt_common>
  302dcc:	8d 74 26 00          	lea    0x0(%esi,%eiz,1),%esi
  302dd0:	6a ff                	push   $0xffffffff
  302dd2:	68 dc 00 00 00       	push   $0xdc
  302dd7:	e9 0f 10 00 00       	jmp    303deb <idt_common>
  302ddc:	8d 74 26 00          	lea    0x0(%esi,%eiz,1),%esi
  302de0:	6a ff                	push   $0xffffffff
  302de2:	68 dd 00 00 00       	push   $0xdd
  302de7:	e9 ff 0f 00 00       	jmp    303deb <idt_common>
  302dec:	8d 74 26 00          	lea    0x0(%esi,%eiz,1),%esi
  302df0:	6a ff                	push   $0xffffffff
  302df2:	68 de 00 00 00       	push   $0xde
  302df7:	e9 ef 0f 00 00       	jmp    303deb <idt_common>
  302dfc:	8d 74 26 00          	lea    0x0(%esi,%eiz,1),%esi
  302e00:	6a ff                	push   $0xffffffff
  302e02:	68 df 00 00 00       	push   $0xdf
  302e07:	e9 df 0f 00 00       	jmp    303deb <idt_common>
  302e0c:	8d 74 26 00          	lea    0x0(%esi,%eiz,1),%esi
  302e10:	6a ff                	push   $0xffffffff
  302e12:	68 e0 00 00 00       	push   $0xe0
  302e17:	e9 cf 0f 00 00       	jmp    303deb <idt_common>
  302e1c:	8d 74 26 00          	lea    0x0(%esi,%eiz,1),%esi
  302e20:	6a ff                	push   $0xffffffff
  302e22:	68 e1 00 00 00       	push   $0xe1
  302e27:	e9 bf 0f 00 00       	jmp    303deb <idt_common>
  302e2c:	8d 74 26 00          	lea    0x0(%esi,%eiz,1),%esi
  302e30:	6a ff                	push   $0xffffffff
  302e32:	68 e2 00 00 00       	push   $0xe2
  302e37:	e9 af 0f 00 00       	jmp    303deb <idt_common>
  302e3c:	8d 74 26 00          	lea    0x0(%esi,%eiz,1),%esi
  302e40:	6a ff                	push   $0xffffffff
  302e42:	68 e3 00 00 00       	push   $0xe3
  302e47:	e9 9f 0f 00 00       	jmp    303deb <idt_common>
  302e4c:	8d 74 26 00          	lea    0x0(%esi,%eiz,1),%esi
  302e50:	6a ff                	push   $0xffffffff
  302e52:	68 e4 00 00 00       	push   $0xe4
  302e57:	e9 8f 0f 00 00       	jmp    303deb <idt_common>
  302e5c:	8d 74 26 00          	lea    0x0(%esi,%eiz,1),%esi
  302e60:	6a ff                	push   $0xffffffff
  302e62:	68 e5 00 00 00       	push   $0xe5
  302e67:	e9 7f 0f 00 00       	jmp    303deb <idt_common>
  302e6c:	8d 74 26 00          	lea    0x0(%esi,%eiz,1),%esi
  302e70:	6a ff                	push   $0xffffffff
  302e72:	68 e6 00 00 00       	push   $0xe6
  302e77:	e9 6f 0f 00 00       	jmp    303deb <idt_common>
  302e7c:	8d 74 26 00          	lea    0x0(%esi,%eiz,1),%esi
  302e80:	6a ff                	push   $0xffffffff
  302e82:	68 e7 00 00 00       	push   $0xe7
  302e87:	e9 5f 0f 00 00       	jmp    303deb <idt_common>
  302e8c:	8d 74 26 00          	lea    0x0(%esi,%eiz,1),%esi
  302e90:	6a ff                	push   $0xffffffff
  302e92:	68 e8 00 00 00       	push   $0xe8
  302e97:	e9 4f 0f 00 00       	jmp    303deb <idt_common>
  302e9c:	8d 74 26 00          	lea    0x0(%esi,%eiz,1),%esi
  302ea0:	6a ff                	push   $0xffffffff
  302ea2:	68 e9 00 00 00       	push   $0xe9
  302ea7:	e9 3f 0f 00 00       	jmp    303deb <idt_common>
  302eac:	8d 74 26 00          	lea    0x0(%esi,%eiz,1),%esi
  302eb0:	6a ff                	push   $0xffffffff
  302eb2:	68 ea 00 00 00       	push   $0xea
  302eb7:	e9 2f 0f 00 00       	jmp    303deb <idt_common>
  302ebc:	8d 74 26 00          	lea    0x0(%esi,%eiz,1),%esi
  302ec0:	6a ff                	push   $0xffffffff
  302ec2:	68 eb 00 00 00       	push   $0xeb
  302ec7:	e9 1f 0f 00 00       	jmp    303deb <idt_common>
  302ecc:	8d 74 26 00          	lea    0x0(%esi,%eiz,1),%esi
  302ed0:	6a ff                	push   $0xffffffff
  302ed2:	68 ec 00 00 00       	push   $0xec
  302ed7:	e9 0f 0f 00 00       	jmp    303deb <idt_common>
  302edc:	8d 74 26 00          	lea    0x0(%esi,%eiz,1),%esi
  302ee0:	6a ff                	push   $0xffffffff
  302ee2:	68 ed 00 00 00       	push   $0xed
  302ee7:	e9 ff 0e 00 00       	jmp    303deb <idt_common>
  302eec:	8d 74 26 00          	lea    0x0(%esi,%eiz,1),%esi
  302ef0:	6a ff                	push   $0xffffffff
  302ef2:	68 ee 00 00 00       	push   $0xee
  302ef7:	e9 ef 0e 00 00       	jmp    303deb <idt_common>
  302efc:	8d 74 26 00          	lea    0x0(%esi,%eiz,1),%esi
  302f00:	6a ff                	push   $0xffffffff
  302f02:	68 ef 00 00 00       	push   $0xef
  302f07:	e9 df 0e 00 00       	jmp    303deb <idt_common>
  302f0c:	8d 74 26 00          	lea    0x0(%esi,%eiz,1),%esi
  302f10:	6a ff                	push   $0xffffffff
  302f12:	68 f0 00 00 00       	push   $0xf0
  302f17:	e9 cf 0e 00 00       	jmp    303deb <idt_common>
  302f1c:	8d 74 26 00          	lea    0x0(%esi,%eiz,1),%esi
  302f20:	6a ff                	push   $0xffffffff
  302f22:	68 f1 00 00 00       	push   $0xf1
  302f27:	e9 bf 0e 00 00       	jmp    303deb <idt_common>
  302f2c:	8d 74 26 00          	lea    0x0(%esi,%eiz,1),%esi
  302f30:	6a ff                	push   $0xffffffff
  302f32:	68 f2 00 00 00       	push   $0xf2
  302f37:	e9 af 0e 00 00       	jmp    303deb <idt_common>
  302f3c:	8d 74 26 00          	lea    0x0(%esi,%eiz,1),%esi
  302f40:	6a ff                	push   $0xffffffff
  302f42:	68 f3 00 00 00       	push   $0xf3
  302f47:	e9 9f 0e 00 00       	jmp    303deb <idt_common>
  302f4c:	8d 74 26 00          	lea    0x0(%esi,%eiz,1),%esi
  302f50:	6a ff                	push   $0xffffffff
  302f52:	68 f4 00 00 00       	push   $0xf4
  302f57:	e9 8f 0e 00 00       	jmp    303deb <idt_common>
  302f5c:	8d 74 26 00          	lea    0x0(%esi,%eiz,1),%esi
  302f60:	6a ff                	push   $0xffffffff
  302f62:	68 f5 00 00 00       	push   $0xf5
  302f67:	e9 7f 0e 00 00       	jmp    303deb <idt_common>
  302f6c:	8d 74 26 00          	lea    0x0(%esi,%eiz,1),%esi
  302f70:	6a ff                	push   $0xffffffff
  302f72:	68 f6 00 00 00       	push   $0xf6
  302f77:	e9 6f 0e 00 00       	jmp    303deb <idt_common>
  302f7c:	8d 74 26 00          	lea    0x0(%esi,%eiz,1),%esi
  302f80:	6a ff                	push   $0xffffffff
  302f82:	68 f7 00 00 00       	push   $0xf7
  302f87:	e9 5f 0e 00 00       	jmp    303deb <idt_common>
  302f8c:	8d 74 26 00          	lea    0x0(%esi,%eiz,1),%esi
  302f90:	6a ff                	push   $0xffffffff
  302f92:	68 f8 00 00 00       	push   $0xf8
  302f97:	e9 4f 0e 00 00       	jmp    303deb <idt_common>
  302f9c:	8d 74 26 00          	lea    0x0(%esi,%eiz,1),%esi
  302fa0:	6a ff                	push   $0xffffffff
  302fa2:	68 f9 00 00 00       	push   $0xf9
  302fa7:	e9 3f 0e 00 00       	jmp    303deb <idt_common>
  302fac:	8d 74 26 00          	lea    0x0(%esi,%eiz,1),%esi
  302fb0:	6a ff                	push   $0xffffffff
  302fb2:	68 fa 00 00 00       	push   $0xfa
  302fb7:	e9 2f 0e 00 00       	jmp    303deb <idt_common>
  302fbc:	8d 74 26 00          	lea    0x0(%esi,%eiz,1),%esi
  302fc0:	6a ff                	push   $0xffffffff
  302fc2:	68 fb 00 00 00       	push   $0xfb
  302fc7:	e9 1f 0e 00 00       	jmp    303deb <idt_common>
  302fcc:	8d 74 26 00          	lea    0x0(%esi,%eiz,1),%esi
  302fd0:	6a ff                	push   $0xffffffff
  302fd2:	68 fc 00 00 00       	push   $0xfc
  302fd7:	e9 0f 0e 00 00       	jmp    303deb <idt_common>
  302fdc:	8d 74 26 00          	lea    0x0(%esi,%eiz,1),%esi
  302fe0:	6a ff                	push   $0xffffffff
  302fe2:	68 fd 00 00 00       	push   $0xfd
  302fe7:	e9 ff 0d 00 00       	jmp    303deb <idt_common>
  302fec:	8d 74 26 00          	lea    0x0(%esi,%eiz,1),%esi
  302ff0:	6a ff                	push   $0xffffffff
  302ff2:	68 fe 00 00 00       	push   $0xfe
  302ff7:	e9 ef 0d 00 00       	jmp    303deb <idt_common>
  302ffc:	8d 74 26 00          	lea    0x0(%esi,%eiz,1),%esi
  303000:	6a ff                	push   $0xffffffff
  303002:	68 ff 00 00 00       	push   $0xff
  303007:	e9 df 0d 00 00       	jmp    303deb <idt_common>

Déassemblage de la section .text :

00303010 <entry>:
  303010:	fa                   	cli    
  303011:	bc 10 20 30 00       	mov    $0x302010,%esp
  303016:	6a 00                	push   $0x0
  303018:	9d                   	popf   
  303019:	89 d8                	mov    %ebx,%eax
  30301b:	e8 03 00 00 00       	call   303023 <start>

00303020 <halt>:
  303020:	f4                   	hlt    
  303021:	eb fd                	jmp    303020 <halt>

00303023 <start>:
  303023:	55                   	push   %ebp
  303024:	89 e5                	mov    %esp,%ebp
  303026:	83 ec 18             	sub    $0x18,%esp
  303029:	89 45 f4             	mov    %eax,-0xc(%ebp)
  30302c:	a1 60 49 30 00       	mov    0x304960,%eax
  303031:	8b 55 f4             	mov    -0xc(%ebp),%edx
  303034:	89 10                	mov    %edx,(%eax)
  303036:	e8 6e 0b 00 00       	call   303ba9 <pic_init>
  30303b:	e8 ef 09 00 00       	call   303a2f <uart_init>
  303040:	e8 ec 0b 00 00       	call   303c31 <intr_init>
  303045:	83 ec 0c             	sub    $0xc,%esp
  303048:	68 d4 45 30 00       	push   $0x3045d4
  30304d:	e8 7e 00 00 00       	call   3030d0 <printf>
  303052:	83 c4 10             	add    $0x10,%esp
  303055:	e8 ac 0f 00 00       	call   304006 <tp>
  30305a:	83 ec 0c             	sub    $0xc,%esp
  30305d:	68 f7 45 30 00       	push   $0x3045f7
  303062:	e8 41 00 00 00       	call   3030a8 <panic>
  303067:	83 c4 10             	add    $0x10,%esp
  30306a:	90                   	nop
  30306b:	c9                   	leave  
  30306c:	c3                   	ret    

0030306d <__buf_add>:
  30306d:	55                   	push   %ebp
  30306e:	89 e5                	mov    %esp,%ebp
  303070:	53                   	push   %ebx
  303071:	83 ec 04             	sub    $0x4,%esp
  303074:	8b 45 10             	mov    0x10(%ebp),%eax
  303077:	88 45 f8             	mov    %al,-0x8(%ebp)
  30307a:	8b 45 08             	mov    0x8(%ebp),%eax
  30307d:	8b 40 08             	mov    0x8(%eax),%eax
  303080:	39 45 0c             	cmp    %eax,0xc(%ebp)
  303083:	76 1d                	jbe    3030a2 <__buf_add+0x35>
  303085:	8b 45 08             	mov    0x8(%ebp),%eax
  303088:	8b 18                	mov    (%eax),%ebx
  30308a:	8b 45 08             	mov    0x8(%ebp),%eax
  30308d:	8b 40 08             	mov    0x8(%eax),%eax
  303090:	8d 48 01             	lea    0x1(%eax),%ecx
  303093:	8b 55 08             	mov    0x8(%ebp),%edx
  303096:	89 4a 08             	mov    %ecx,0x8(%edx)
  303099:	8d 14 03             	lea    (%ebx,%eax,1),%edx
  30309c:	0f b6 45 f8          	movzbl -0x8(%ebp),%eax
  3030a0:	88 02                	mov    %al,(%edx)
  3030a2:	90                   	nop
  3030a3:	8b 5d fc             	mov    -0x4(%ebp),%ebx
  3030a6:	c9                   	leave  
  3030a7:	c3                   	ret    

003030a8 <panic>:
  3030a8:	55                   	push   %ebp
  3030a9:	89 e5                	mov    %esp,%ebp
  3030ab:	83 ec 18             	sub    $0x18,%esp
  3030ae:	fa                   	cli    
  3030af:	8d 45 0c             	lea    0xc(%ebp),%eax
  3030b2:	89 45 f4             	mov    %eax,-0xc(%ebp)
  3030b5:	8b 45 f4             	mov    -0xc(%ebp),%eax
  3030b8:	83 ec 08             	sub    $0x8,%esp
  3030bb:	50                   	push   %eax
  3030bc:	ff 75 08             	push   0x8(%ebp)
  3030bf:	e8 5b 00 00 00       	call   30311f <__vprintf>
  3030c4:	83 c4 10             	add    $0x10,%esp
  3030c7:	e8 9c 0a 00 00       	call   303b68 <uart_flush>
  3030cc:	fa                   	cli    
  3030cd:	f4                   	hlt    
  3030ce:	eb fc                	jmp    3030cc <panic+0x24>

003030d0 <printf>:
  3030d0:	55                   	push   %ebp
  3030d1:	89 e5                	mov    %esp,%ebp
  3030d3:	83 ec 18             	sub    $0x18,%esp
  3030d6:	8d 45 0c             	lea    0xc(%ebp),%eax
  3030d9:	89 45 f0             	mov    %eax,-0x10(%ebp)
  3030dc:	8b 45 f0             	mov    -0x10(%ebp),%eax
  3030df:	83 ec 08             	sub    $0x8,%esp
  3030e2:	50                   	push   %eax
  3030e3:	ff 75 08             	push   0x8(%ebp)
  3030e6:	e8 34 00 00 00       	call   30311f <__vprintf>
  3030eb:	83 c4 10             	add    $0x10,%esp
  3030ee:	89 45 f4             	mov    %eax,-0xc(%ebp)
  3030f1:	8b 45 f4             	mov    -0xc(%ebp),%eax
  3030f4:	c9                   	leave  
  3030f5:	c3                   	ret    

003030f6 <snprintf>:
  3030f6:	55                   	push   %ebp
  3030f7:	89 e5                	mov    %esp,%ebp
  3030f9:	83 ec 18             	sub    $0x18,%esp
  3030fc:	8d 45 14             	lea    0x14(%ebp),%eax
  3030ff:	89 45 f0             	mov    %eax,-0x10(%ebp)
  303102:	8b 45 f0             	mov    -0x10(%ebp),%eax
  303105:	50                   	push   %eax
  303106:	ff 75 10             	push   0x10(%ebp)
  303109:	ff 75 0c             	push   0xc(%ebp)
  30310c:	ff 75 08             	push   0x8(%ebp)
  30310f:	e8 ee 03 00 00       	call   303502 <__vsnprintf>
  303114:	83 c4 10             	add    $0x10,%esp
  303117:	89 45 f4             	mov    %eax,-0xc(%ebp)
  30311a:	8b 45 f4             	mov    -0xc(%ebp),%eax
  30311d:	c9                   	leave  
  30311e:	c3                   	ret    

0030311f <__vprintf>:
  30311f:	55                   	push   %ebp
  303120:	89 e5                	mov    %esp,%ebp
  303122:	83 ec 18             	sub    $0x18,%esp
  303125:	ff 75 0c             	push   0xc(%ebp)
  303128:	ff 75 08             	push   0x8(%ebp)
  30312b:	68 00 04 00 00       	push   $0x400
  303130:	68 00 4a 30 00       	push   $0x304a00
  303135:	e8 c8 03 00 00       	call   303502 <__vsnprintf>
  30313a:	83 c4 10             	add    $0x10,%esp
  30313d:	89 45 f4             	mov    %eax,-0xc(%ebp)
  303140:	8b 45 f4             	mov    -0xc(%ebp),%eax
  303143:	83 e8 01             	sub    $0x1,%eax
  303146:	83 ec 08             	sub    $0x8,%esp
  303149:	50                   	push   %eax
  30314a:	68 00 4a 30 00       	push   $0x304a00
  30314f:	e8 e8 09 00 00       	call   303b3c <uart_write>
  303154:	83 c4 10             	add    $0x10,%esp
  303157:	8b 45 f4             	mov    -0xc(%ebp),%eax
  30315a:	c9                   	leave  
  30315b:	c3                   	ret    

0030315c <__format_add_str>:
  30315c:	55                   	push   %ebp
  30315d:	89 e5                	mov    %esp,%ebp
  30315f:	eb 1e                	jmp    30317f <__format_add_str+0x23>
  303161:	8b 45 10             	mov    0x10(%ebp),%eax
  303164:	8d 50 01             	lea    0x1(%eax),%edx
  303167:	89 55 10             	mov    %edx,0x10(%ebp)
  30316a:	0f b6 00             	movzbl (%eax),%eax
  30316d:	0f be c0             	movsbl %al,%eax
  303170:	50                   	push   %eax
  303171:	ff 75 0c             	push   0xc(%ebp)
  303174:	ff 75 08             	push   0x8(%ebp)
  303177:	e8 f1 fe ff ff       	call   30306d <__buf_add>
  30317c:	83 c4 0c             	add    $0xc,%esp
  30317f:	8b 45 10             	mov    0x10(%ebp),%eax
  303182:	0f b6 00             	movzbl (%eax),%eax
  303185:	84 c0                	test   %al,%al
  303187:	75 d8                	jne    303161 <__format_add_str+0x5>
  303189:	90                   	nop
  30318a:	90                   	nop
  30318b:	c9                   	leave  
  30318c:	c3                   	ret    

0030318d <__format_add_chr>:
  30318d:	55                   	push   %ebp
  30318e:	89 e5                	mov    %esp,%ebp
  303190:	8b 45 10             	mov    0x10(%ebp),%eax
  303193:	0f be c0             	movsbl %al,%eax
  303196:	50                   	push   %eax
  303197:	ff 75 0c             	push   0xc(%ebp)
  30319a:	ff 75 08             	push   0x8(%ebp)
  30319d:	e8 cb fe ff ff       	call   30306d <__buf_add>
  3031a2:	83 c4 0c             	add    $0xc,%esp
  3031a5:	90                   	nop
  3031a6:	c9                   	leave  
  3031a7:	c3                   	ret    

003031a8 <__format_add_bin>:
  3031a8:	55                   	push   %ebp
  3031a9:	89 e5                	mov    %esp,%ebp
  3031ab:	83 ec 18             	sub    $0x18,%esp
  3031ae:	8b 45 10             	mov    0x10(%ebp),%eax
  3031b1:	89 45 e8             	mov    %eax,-0x18(%ebp)
  3031b4:	8b 45 14             	mov    0x14(%ebp),%eax
  3031b7:	89 45 ec             	mov    %eax,-0x14(%ebp)
  3031ba:	c7 45 fc 00 00 00 00 	movl   $0x0,-0x4(%ebp)
  3031c1:	eb 48                	jmp    30320b <__format_add_bin+0x63>
  3031c3:	8b 45 18             	mov    0x18(%ebp),%eax
  3031c6:	2b 45 fc             	sub    -0x4(%ebp),%eax
  3031c9:	8d 48 ff             	lea    -0x1(%eax),%ecx
  3031cc:	8b 45 e8             	mov    -0x18(%ebp),%eax
  3031cf:	8b 55 ec             	mov    -0x14(%ebp),%edx
  3031d2:	0f ad d0             	shrd   %cl,%edx,%eax
  3031d5:	d3 ea                	shr    %cl,%edx
  3031d7:	f6 c1 20             	test   $0x20,%cl
  3031da:	74 04                	je     3031e0 <__format_add_bin+0x38>
  3031dc:	89 d0                	mov    %edx,%eax
  3031de:	31 d2                	xor    %edx,%edx
  3031e0:	83 e0 01             	and    $0x1,%eax
  3031e3:	89 45 f8             	mov    %eax,-0x8(%ebp)
  3031e6:	83 7d f8 00          	cmpl   $0x0,-0x8(%ebp)
  3031ea:	74 07                	je     3031f3 <__format_add_bin+0x4b>
  3031ec:	b8 31 00 00 00       	mov    $0x31,%eax
  3031f1:	eb 05                	jmp    3031f8 <__format_add_bin+0x50>
  3031f3:	b8 30 00 00 00       	mov    $0x30,%eax
  3031f8:	50                   	push   %eax
  3031f9:	ff 75 0c             	push   0xc(%ebp)
  3031fc:	ff 75 08             	push   0x8(%ebp)
  3031ff:	e8 69 fe ff ff       	call   30306d <__buf_add>
  303204:	83 c4 0c             	add    $0xc,%esp
  303207:	83 45 fc 01          	addl   $0x1,-0x4(%ebp)
  30320b:	8b 45 fc             	mov    -0x4(%ebp),%eax
  30320e:	3b 45 18             	cmp    0x18(%ebp),%eax
  303211:	72 b0                	jb     3031c3 <__format_add_bin+0x1b>
  303213:	90                   	nop
  303214:	90                   	nop
  303215:	c9                   	leave  
  303216:	c3                   	ret    

00303217 <__format_add_idec>:
  303217:	55                   	push   %ebp
  303218:	89 e5                	mov    %esp,%ebp
  30321a:	57                   	push   %edi
  30321b:	56                   	push   %esi
  30321c:	53                   	push   %ebx
  30321d:	83 ec 4c             	sub    $0x4c,%esp
  303220:	8b 4d 10             	mov    0x10(%ebp),%ecx
  303223:	89 4d b0             	mov    %ecx,-0x50(%ebp)
  303226:	8b 4d 14             	mov    0x14(%ebp),%ecx
  303229:	89 4d b4             	mov    %ecx,-0x4c(%ebp)
  30322c:	8b 4d b0             	mov    -0x50(%ebp),%ecx
  30322f:	80 f5 00             	xor    $0x0,%ch
  303232:	89 c8                	mov    %ecx,%eax
  303234:	8b 4d b4             	mov    -0x4c(%ebp),%ecx
  303237:	80 f5 00             	xor    $0x0,%ch
  30323a:	89 ca                	mov    %ecx,%edx
  30323c:	09 d0                	or     %edx,%eax
  30323e:	85 c0                	test   %eax,%eax
  303240:	75 15                	jne    303257 <__format_add_idec+0x40>
  303242:	6a 30                	push   $0x30
  303244:	ff 75 0c             	push   0xc(%ebp)
  303247:	ff 75 08             	push   0x8(%ebp)
  30324a:	e8 1e fe ff ff       	call   30306d <__buf_add>
  30324f:	83 c4 0c             	add    $0xc,%esp
  303252:	e9 b9 00 00 00       	jmp    303310 <__format_add_idec+0xf9>
  303257:	8d 45 d0             	lea    -0x30(%ebp),%eax
  30325a:	89 45 c4             	mov    %eax,-0x3c(%ebp)
  30325d:	c7 45 cc 00 00 00 00 	movl   $0x0,-0x34(%ebp)
  303264:	83 7d b4 00          	cmpl   $0x0,-0x4c(%ebp)
  303268:	79 5f                	jns    3032c9 <__format_add_idec+0xb2>
  30326a:	6a 2d                	push   $0x2d
  30326c:	ff 75 0c             	push   0xc(%ebp)
  30326f:	ff 75 08             	push   0x8(%ebp)
  303272:	e8 f6 fd ff ff       	call   30306d <__buf_add>
  303277:	83 c4 0c             	add    $0xc,%esp
  30327a:	f7 5d b0             	negl   -0x50(%ebp)
  30327d:	83 55 b4 00          	adcl   $0x0,-0x4c(%ebp)
  303281:	f7 5d b4             	negl   -0x4c(%ebp)
  303284:	eb 43                	jmp    3032c9 <__format_add_idec+0xb2>
  303286:	8b 45 b0             	mov    -0x50(%ebp),%eax
  303289:	8b 55 b4             	mov    -0x4c(%ebp),%edx
  30328c:	6a 00                	push   $0x0
  30328e:	6a 0a                	push   $0xa
  303290:	52                   	push   %edx
  303291:	50                   	push   %eax
  303292:	e8 89 0f 00 00       	call   304220 <__moddi3>
  303297:	83 c4 10             	add    $0x10,%esp
  30329a:	8d 58 30             	lea    0x30(%eax),%ebx
  30329d:	8b 4d c4             	mov    -0x3c(%ebp),%ecx
  3032a0:	8b 45 cc             	mov    -0x34(%ebp),%eax
  3032a3:	8d 50 01             	lea    0x1(%eax),%edx
  3032a6:	89 55 cc             	mov    %edx,-0x34(%ebp)
  3032a9:	01 c8                	add    %ecx,%eax
  3032ab:	89 da                	mov    %ebx,%edx
  3032ad:	88 10                	mov    %dl,(%eax)
  3032af:	8b 45 b0             	mov    -0x50(%ebp),%eax
  3032b2:	8b 55 b4             	mov    -0x4c(%ebp),%edx
  3032b5:	6a 00                	push   $0x0
  3032b7:	6a 0a                	push   $0xa
  3032b9:	52                   	push   %edx
  3032ba:	50                   	push   %eax
  3032bb:	e8 20 0e 00 00       	call   3040e0 <__divdi3>
  3032c0:	83 c4 10             	add    $0x10,%esp
  3032c3:	89 45 b0             	mov    %eax,-0x50(%ebp)
  3032c6:	89 55 b4             	mov    %edx,-0x4c(%ebp)
  3032c9:	8b 45 b0             	mov    -0x50(%ebp),%eax
  3032cc:	80 f4 00             	xor    $0x0,%ah
  3032cf:	89 c6                	mov    %eax,%esi
  3032d1:	8b 45 b4             	mov    -0x4c(%ebp),%eax
  3032d4:	80 f4 00             	xor    $0x0,%ah
  3032d7:	89 c7                	mov    %eax,%edi
  3032d9:	89 f8                	mov    %edi,%eax
  3032db:	09 f0                	or     %esi,%eax
  3032dd:	85 c0                	test   %eax,%eax
  3032df:	75 a5                	jne    303286 <__format_add_idec+0x6f>
  3032e1:	eb 20                	jmp    303303 <__format_add_idec+0xec>
  3032e3:	8b 55 c4             	mov    -0x3c(%ebp),%edx
  3032e6:	8b 45 cc             	mov    -0x34(%ebp),%eax
  3032e9:	01 d0                	add    %edx,%eax
  3032eb:	0f b6 00             	movzbl (%eax),%eax
  3032ee:	0f be c0             	movsbl %al,%eax
  3032f1:	83 ec 04             	sub    $0x4,%esp
  3032f4:	50                   	push   %eax
  3032f5:	ff 75 0c             	push   0xc(%ebp)
  3032f8:	ff 75 08             	push   0x8(%ebp)
  3032fb:	e8 6d fd ff ff       	call   30306d <__buf_add>
  303300:	83 c4 10             	add    $0x10,%esp
  303303:	8b 45 cc             	mov    -0x34(%ebp),%eax
  303306:	8d 50 ff             	lea    -0x1(%eax),%edx
  303309:	89 55 cc             	mov    %edx,-0x34(%ebp)
  30330c:	85 c0                	test   %eax,%eax
  30330e:	75 d3                	jne    3032e3 <__format_add_idec+0xcc>
  303310:	8d 65 f4             	lea    -0xc(%ebp),%esp
  303313:	5b                   	pop    %ebx
  303314:	5e                   	pop    %esi
  303315:	5f                   	pop    %edi
  303316:	5d                   	pop    %ebp
  303317:	c3                   	ret    

00303318 <__format_add_udec>:
  303318:	55                   	push   %ebp
  303319:	89 e5                	mov    %esp,%ebp
  30331b:	57                   	push   %edi
  30331c:	56                   	push   %esi
  30331d:	53                   	push   %ebx
  30331e:	83 ec 4c             	sub    $0x4c,%esp
  303321:	8b 4d 10             	mov    0x10(%ebp),%ecx
  303324:	89 4d b0             	mov    %ecx,-0x50(%ebp)
  303327:	8b 4d 14             	mov    0x14(%ebp),%ecx
  30332a:	89 4d b4             	mov    %ecx,-0x4c(%ebp)
  30332d:	8b 4d b0             	mov    -0x50(%ebp),%ecx
  303330:	80 f5 00             	xor    $0x0,%ch
  303333:	89 c8                	mov    %ecx,%eax
  303335:	8b 4d b4             	mov    -0x4c(%ebp),%ecx
  303338:	80 f5 00             	xor    $0x0,%ch
  30333b:	89 ca                	mov    %ecx,%edx
  30333d:	09 d0                	or     %edx,%eax
  30333f:	85 c0                	test   %eax,%eax
  303341:	75 15                	jne    303358 <__format_add_udec+0x40>
  303343:	6a 30                	push   $0x30
  303345:	ff 75 0c             	push   0xc(%ebp)
  303348:	ff 75 08             	push   0x8(%ebp)
  30334b:	e8 1d fd ff ff       	call   30306d <__buf_add>
  303350:	83 c4 0c             	add    $0xc,%esp
  303353:	e9 99 00 00 00       	jmp    3033f1 <__format_add_udec+0xd9>
  303358:	8d 45 d0             	lea    -0x30(%ebp),%eax
  30335b:	89 45 c4             	mov    %eax,-0x3c(%ebp)
  30335e:	c7 45 cc 00 00 00 00 	movl   $0x0,-0x34(%ebp)
  303365:	eb 43                	jmp    3033aa <__format_add_udec+0x92>
  303367:	8b 45 b0             	mov    -0x50(%ebp),%eax
  30336a:	8b 55 b4             	mov    -0x4c(%ebp),%edx
  30336d:	6a 00                	push   $0x0
  30336f:	6a 0a                	push   $0xa
  303371:	52                   	push   %edx
  303372:	50                   	push   %eax
  303373:	e8 48 11 00 00       	call   3044c0 <__umoddi3>
  303378:	83 c4 10             	add    $0x10,%esp
  30337b:	8d 58 30             	lea    0x30(%eax),%ebx
  30337e:	8b 4d c4             	mov    -0x3c(%ebp),%ecx
  303381:	8b 45 cc             	mov    -0x34(%ebp),%eax
  303384:	8d 50 01             	lea    0x1(%eax),%edx
  303387:	89 55 cc             	mov    %edx,-0x34(%ebp)
  30338a:	01 c8                	add    %ecx,%eax
  30338c:	89 da                	mov    %ebx,%edx
  30338e:	88 10                	mov    %dl,(%eax)
  303390:	8b 45 b0             	mov    -0x50(%ebp),%eax
  303393:	8b 55 b4             	mov    -0x4c(%ebp),%edx
  303396:	6a 00                	push   $0x0
  303398:	6a 0a                	push   $0xa
  30339a:	52                   	push   %edx
  30339b:	50                   	push   %eax
  30339c:	e8 ff 0f 00 00       	call   3043a0 <__udivdi3>
  3033a1:	83 c4 10             	add    $0x10,%esp
  3033a4:	89 45 b0             	mov    %eax,-0x50(%ebp)
  3033a7:	89 55 b4             	mov    %edx,-0x4c(%ebp)
  3033aa:	8b 45 b0             	mov    -0x50(%ebp),%eax
  3033ad:	80 f4 00             	xor    $0x0,%ah
  3033b0:	89 c6                	mov    %eax,%esi
  3033b2:	8b 45 b4             	mov    -0x4c(%ebp),%eax
  3033b5:	80 f4 00             	xor    $0x0,%ah
  3033b8:	89 c7                	mov    %eax,%edi
  3033ba:	89 f8                	mov    %edi,%eax
  3033bc:	09 f0                	or     %esi,%eax
  3033be:	85 c0                	test   %eax,%eax
  3033c0:	75 a5                	jne    303367 <__format_add_udec+0x4f>
  3033c2:	eb 20                	jmp    3033e4 <__format_add_udec+0xcc>
  3033c4:	8b 55 c4             	mov    -0x3c(%ebp),%edx
  3033c7:	8b 45 cc             	mov    -0x34(%ebp),%eax
  3033ca:	01 d0                	add    %edx,%eax
  3033cc:	0f b6 00             	movzbl (%eax),%eax
  3033cf:	0f be c0             	movsbl %al,%eax
  3033d2:	83 ec 04             	sub    $0x4,%esp
  3033d5:	50                   	push   %eax
  3033d6:	ff 75 0c             	push   0xc(%ebp)
  3033d9:	ff 75 08             	push   0x8(%ebp)
  3033dc:	e8 8c fc ff ff       	call   30306d <__buf_add>
  3033e1:	83 c4 10             	add    $0x10,%esp
  3033e4:	8b 45 cc             	mov    -0x34(%ebp),%eax
  3033e7:	8d 50 ff             	lea    -0x1(%eax),%edx
  3033ea:	89 55 cc             	mov    %edx,-0x34(%ebp)
  3033ed:	85 c0                	test   %eax,%eax
  3033ef:	75 d3                	jne    3033c4 <__format_add_udec+0xac>
  3033f1:	8d 65 f4             	lea    -0xc(%ebp),%esp
  3033f4:	5b                   	pop    %ebx
  3033f5:	5e                   	pop    %esi
  3033f6:	5f                   	pop    %edi
  3033f7:	5d                   	pop    %ebp
  3033f8:	c3                   	ret    

003033f9 <uint64_to_hex>:
  3033f9:	55                   	push   %ebp
  3033fa:	89 e5                	mov    %esp,%ebp
  3033fc:	57                   	push   %edi
  3033fd:	56                   	push   %esi
  3033fe:	53                   	push   %ebx
  3033ff:	83 ec 34             	sub    $0x34,%esp
  303402:	8b 45 10             	mov    0x10(%ebp),%eax
  303405:	89 45 c8             	mov    %eax,-0x38(%ebp)
  303408:	8b 45 14             	mov    0x14(%ebp),%eax
  30340b:	89 45 cc             	mov    %eax,-0x34(%ebp)
  30340e:	c7 45 ec 00 00 00 00 	movl   $0x0,-0x14(%ebp)
  303415:	83 7d 18 00          	cmpl   $0x0,0x18(%ebp)
  303419:	74 06                	je     303421 <uint64_to_hex+0x28>
  30341b:	83 7d 18 10          	cmpl   $0x10,0x18(%ebp)
  30341f:	76 4b                	jbe    30346c <uint64_to_hex+0x73>
  303421:	c7 45 18 ff ff ff ff 	movl   $0xffffffff,0x18(%ebp)
  303428:	eb 42                	jmp    30346c <uint64_to_hex+0x73>
  30342a:	8b 45 c8             	mov    -0x38(%ebp),%eax
  30342d:	83 e0 0f             	and    $0xf,%eax
  303430:	89 c6                	mov    %eax,%esi
  303432:	8b 45 cc             	mov    -0x34(%ebp),%eax
  303435:	83 e0 00             	and    $0x0,%eax
  303438:	89 c7                	mov    %eax,%edi
  30343a:	8d 86 64 49 30 00    	lea    0x304964(%esi),%eax
  303440:	0f b6 10             	movzbl (%eax),%edx
  303443:	8d 45 d8             	lea    -0x28(%ebp),%eax
  303446:	89 45 c4             	mov    %eax,-0x3c(%ebp)
  303449:	8b 45 ec             	mov    -0x14(%ebp),%eax
  30344c:	03 45 c4             	add    -0x3c(%ebp),%eax
  30344f:	88 10                	mov    %dl,(%eax)
  303451:	8b 45 c8             	mov    -0x38(%ebp),%eax
  303454:	8b 55 cc             	mov    -0x34(%ebp),%edx
  303457:	0f ac d0 04          	shrd   $0x4,%edx,%eax
  30345b:	c1 ea 04             	shr    $0x4,%edx
  30345e:	89 45 c8             	mov    %eax,-0x38(%ebp)
  303461:	89 55 cc             	mov    %edx,-0x34(%ebp)
  303464:	83 45 ec 01          	addl   $0x1,-0x14(%ebp)
  303468:	83 6d 18 01          	subl   $0x1,0x18(%ebp)
  30346c:	83 7d 18 00          	cmpl   $0x0,0x18(%ebp)
  303470:	74 24                	je     303496 <uint64_to_hex+0x9d>
  303472:	83 7d 18 10          	cmpl   $0x10,0x18(%ebp)
  303476:	76 b2                	jbe    30342a <uint64_to_hex+0x31>
  303478:	8b 45 c8             	mov    -0x38(%ebp),%eax
  30347b:	80 f4 00             	xor    $0x0,%ah
  30347e:	89 c1                	mov    %eax,%ecx
  303480:	8b 45 cc             	mov    -0x34(%ebp),%eax
  303483:	80 f4 00             	xor    $0x0,%ah
  303486:	89 c3                	mov    %eax,%ebx
  303488:	89 d8                	mov    %ebx,%eax
  30348a:	09 c8                	or     %ecx,%eax
  30348c:	85 c0                	test   %eax,%eax
  30348e:	75 9a                	jne    30342a <uint64_to_hex+0x31>
  303490:	83 7d ec 00          	cmpl   $0x0,-0x14(%ebp)
  303494:	74 94                	je     30342a <uint64_to_hex+0x31>
  303496:	8b 45 ec             	mov    -0x14(%ebp),%eax
  303499:	89 45 e8             	mov    %eax,-0x18(%ebp)
  30349c:	eb 1d                	jmp    3034bb <uint64_to_hex+0xc2>
  30349e:	8d 55 d8             	lea    -0x28(%ebp),%edx
  3034a1:	8b 45 ec             	mov    -0x14(%ebp),%eax
  3034a4:	01 d0                	add    %edx,%eax
  3034a6:	0f b6 00             	movzbl (%eax),%eax
  3034a9:	0f be c0             	movsbl %al,%eax
  3034ac:	50                   	push   %eax
  3034ad:	ff 75 0c             	push   0xc(%ebp)
  3034b0:	ff 75 08             	push   0x8(%ebp)
  3034b3:	e8 b5 fb ff ff       	call   30306d <__buf_add>
  3034b8:	83 c4 0c             	add    $0xc,%esp
  3034bb:	8b 45 ec             	mov    -0x14(%ebp),%eax
  3034be:	8d 50 ff             	lea    -0x1(%eax),%edx
  3034c1:	89 55 ec             	mov    %edx,-0x14(%ebp)
  3034c4:	85 c0                	test   %eax,%eax
  3034c6:	75 d6                	jne    30349e <uint64_to_hex+0xa5>
  3034c8:	8b 45 e8             	mov    -0x18(%ebp),%eax
  3034cb:	8d 65 f4             	lea    -0xc(%ebp),%esp
  3034ce:	5b                   	pop    %ebx
  3034cf:	5e                   	pop    %esi
  3034d0:	5f                   	pop    %edi
  3034d1:	5d                   	pop    %ebp
  3034d2:	c3                   	ret    

003034d3 <__format_add_hex>:
  3034d3:	55                   	push   %ebp
  3034d4:	89 e5                	mov    %esp,%ebp
  3034d6:	83 ec 08             	sub    $0x8,%esp
  3034d9:	8b 45 10             	mov    0x10(%ebp),%eax
  3034dc:	89 45 f8             	mov    %eax,-0x8(%ebp)
  3034df:	8b 45 14             	mov    0x14(%ebp),%eax
  3034e2:	89 45 fc             	mov    %eax,-0x4(%ebp)
  3034e5:	83 ec 04             	sub    $0x4,%esp
  3034e8:	ff 75 18             	push   0x18(%ebp)
  3034eb:	ff 75 fc             	push   -0x4(%ebp)
  3034ee:	ff 75 f8             	push   -0x8(%ebp)
  3034f1:	ff 75 0c             	push   0xc(%ebp)
  3034f4:	ff 75 08             	push   0x8(%ebp)
  3034f7:	e8 fd fe ff ff       	call   3033f9 <uint64_to_hex>
  3034fc:	83 c4 18             	add    $0x18,%esp
  3034ff:	90                   	nop
  303500:	c9                   	leave  
  303501:	c3                   	ret    

00303502 <__vsnprintf>:
  303502:	55                   	push   %ebp
  303503:	89 e5                	mov    %esp,%ebp
  303505:	83 ec 78             	sub    $0x78,%esp
  303508:	8b 45 08             	mov    0x8(%ebp),%eax
  30350b:	89 45 94             	mov    %eax,-0x6c(%ebp)
  30350e:	c7 45 9c 00 00 00 00 	movl   $0x0,-0x64(%ebp)
  303515:	c7 45 f0 00 00 00 00 	movl   $0x0,-0x10(%ebp)
  30351c:	c7 45 ec 00 00 00 00 	movl   $0x0,-0x14(%ebp)
  303523:	c7 45 f4 04 00 00 00 	movl   $0x4,-0xc(%ebp)
  30352a:	83 7d 0c 00          	cmpl   $0x0,0xc(%ebp)
  30352e:	0f 84 ac 03 00 00    	je     3038e0 <__vsnprintf+0x3de>
  303534:	83 6d 0c 01          	subl   $0x1,0xc(%ebp)
  303538:	e9 a3 03 00 00       	jmp    3038e0 <__vsnprintf+0x3de>
  30353d:	8b 45 10             	mov    0x10(%ebp),%eax
  303540:	8d 50 01             	lea    0x1(%eax),%edx
  303543:	89 55 10             	mov    %edx,0x10(%ebp)
  303546:	0f b6 00             	movzbl (%eax),%eax
  303549:	88 45 d7             	mov    %al,-0x29(%ebp)
  30354c:	83 7d f0 00          	cmpl   $0x0,-0x10(%ebp)
  303550:	0f 84 5d 03 00 00    	je     3038b3 <__vsnprintf+0x3b1>
  303556:	80 7d d7 6c          	cmpb   $0x6c,-0x29(%ebp)
  30355a:	75 1e                	jne    30357a <__vsnprintf+0x78>
  30355c:	83 7d ec 00          	cmpl   $0x0,-0x14(%ebp)
  303560:	74 0c                	je     30356e <__vsnprintf+0x6c>
  303562:	c7 45 f4 08 00 00 00 	movl   $0x8,-0xc(%ebp)
  303569:	e9 72 03 00 00       	jmp    3038e0 <__vsnprintf+0x3de>
  30356e:	c7 45 ec 01 00 00 00 	movl   $0x1,-0x14(%ebp)
  303575:	e9 66 03 00 00       	jmp    3038e0 <__vsnprintf+0x3de>
  30357a:	80 7d d7 68          	cmpb   $0x68,-0x29(%ebp)
  30357e:	75 0d                	jne    30358d <__vsnprintf+0x8b>
  303580:	8b 45 f4             	mov    -0xc(%ebp),%eax
  303583:	d1 e8                	shr    %eax
  303585:	89 45 f4             	mov    %eax,-0xc(%ebp)
  303588:	e9 53 03 00 00       	jmp    3038e0 <__vsnprintf+0x3de>
  30358d:	80 7d d7 73          	cmpb   $0x73,-0x29(%ebp)
  303591:	75 25                	jne    3035b8 <__vsnprintf+0xb6>
  303593:	8b 45 14             	mov    0x14(%ebp),%eax
  303596:	8d 50 04             	lea    0x4(%eax),%edx
  303599:	89 55 14             	mov    %edx,0x14(%ebp)
  30359c:	8b 00                	mov    (%eax),%eax
  30359e:	89 45 a0             	mov    %eax,-0x60(%ebp)
  3035a1:	ff 75 a0             	push   -0x60(%ebp)
  3035a4:	ff 75 0c             	push   0xc(%ebp)
  3035a7:	8d 45 94             	lea    -0x6c(%ebp),%eax
  3035aa:	50                   	push   %eax
  3035ab:	e8 ac fb ff ff       	call   30315c <__format_add_str>
  3035b0:	83 c4 0c             	add    $0xc,%esp
  3035b3:	e9 eb 02 00 00       	jmp    3038a3 <__vsnprintf+0x3a1>
  3035b8:	80 7d d7 63          	cmpb   $0x63,-0x29(%ebp)
  3035bc:	75 25                	jne    3035e3 <__vsnprintf+0xe1>
  3035be:	8b 45 14             	mov    0x14(%ebp),%eax
  3035c1:	8d 50 04             	lea    0x4(%eax),%edx
  3035c4:	89 55 14             	mov    %edx,0x14(%ebp)
  3035c7:	8b 00                	mov    (%eax),%eax
  3035c9:	89 45 a4             	mov    %eax,-0x5c(%ebp)
  3035cc:	ff 75 a4             	push   -0x5c(%ebp)
  3035cf:	ff 75 0c             	push   0xc(%ebp)
  3035d2:	8d 45 94             	lea    -0x6c(%ebp),%eax
  3035d5:	50                   	push   %eax
  3035d6:	e8 b2 fb ff ff       	call   30318d <__format_add_chr>
  3035db:	83 c4 0c             	add    $0xc,%esp
  3035de:	e9 c0 02 00 00       	jmp    3038a3 <__vsnprintf+0x3a1>
  3035e3:	80 7d d7 62          	cmpb   $0x62,-0x29(%ebp)
  3035e7:	75 34                	jne    30361d <__vsnprintf+0x11b>
  3035e9:	8b 45 14             	mov    0x14(%ebp),%eax
  3035ec:	8d 50 04             	lea    0x4(%eax),%edx
  3035ef:	89 55 14             	mov    %edx,0x14(%ebp)
  3035f2:	8b 00                	mov    (%eax),%eax
  3035f4:	89 45 a8             	mov    %eax,-0x58(%ebp)
  3035f7:	c7 45 ac 00 00 00 00 	movl   $0x0,-0x54(%ebp)
  3035fe:	83 ec 04             	sub    $0x4,%esp
  303601:	6a 20                	push   $0x20
  303603:	ff 75 ac             	push   -0x54(%ebp)
  303606:	ff 75 a8             	push   -0x58(%ebp)
  303609:	ff 75 0c             	push   0xc(%ebp)
  30360c:	8d 45 94             	lea    -0x6c(%ebp),%eax
  30360f:	50                   	push   %eax
  303610:	e8 93 fb ff ff       	call   3031a8 <__format_add_bin>
  303615:	83 c4 18             	add    $0x18,%esp
  303618:	e9 86 02 00 00       	jmp    3038a3 <__vsnprintf+0x3a1>
  30361d:	80 7d d7 42          	cmpb   $0x42,-0x29(%ebp)
  303621:	75 33                	jne    303656 <__vsnprintf+0x154>
  303623:	8b 45 14             	mov    0x14(%ebp),%eax
  303626:	8d 50 08             	lea    0x8(%eax),%edx
  303629:	89 55 14             	mov    %edx,0x14(%ebp)
  30362c:	8b 50 04             	mov    0x4(%eax),%edx
  30362f:	8b 00                	mov    (%eax),%eax
  303631:	89 45 b0             	mov    %eax,-0x50(%ebp)
  303634:	89 55 b4             	mov    %edx,-0x4c(%ebp)
  303637:	83 ec 04             	sub    $0x4,%esp
  30363a:	6a 40                	push   $0x40
  30363c:	ff 75 b4             	push   -0x4c(%ebp)
  30363f:	ff 75 b0             	push   -0x50(%ebp)
  303642:	ff 75 0c             	push   0xc(%ebp)
  303645:	8d 45 94             	lea    -0x6c(%ebp),%eax
  303648:	50                   	push   %eax
  303649:	e8 5a fb ff ff       	call   3031a8 <__format_add_bin>
  30364e:	83 c4 18             	add    $0x18,%esp
  303651:	e9 4d 02 00 00       	jmp    3038a3 <__vsnprintf+0x3a1>
  303656:	80 7d d7 64          	cmpb   $0x64,-0x29(%ebp)
  30365a:	74 0a                	je     303666 <__vsnprintf+0x164>
  30365c:	80 7d d7 69          	cmpb   $0x69,-0x29(%ebp)
  303660:	0f 85 80 00 00 00    	jne    3036e6 <__vsnprintf+0x1e4>
  303666:	83 7d f4 07          	cmpl   $0x7,-0xc(%ebp)
  30366a:	76 16                	jbe    303682 <__vsnprintf+0x180>
  30366c:	8b 45 14             	mov    0x14(%ebp),%eax
  30366f:	8d 50 08             	lea    0x8(%eax),%edx
  303672:	89 55 14             	mov    %edx,0x14(%ebp)
  303675:	8b 50 04             	mov    0x4(%eax),%edx
  303678:	8b 00                	mov    (%eax),%eax
  30367a:	89 45 e0             	mov    %eax,-0x20(%ebp)
  30367d:	89 55 e4             	mov    %edx,-0x1c(%ebp)
  303680:	eb 4a                	jmp    3036cc <__vsnprintf+0x1ca>
  303682:	83 7d f4 04          	cmpl   $0x4,-0xc(%ebp)
  303686:	75 14                	jne    30369c <__vsnprintf+0x19a>
  303688:	8b 45 14             	mov    0x14(%ebp),%eax
  30368b:	8d 50 04             	lea    0x4(%eax),%edx
  30368e:	89 55 14             	mov    %edx,0x14(%ebp)
  303691:	8b 00                	mov    (%eax),%eax
  303693:	99                   	cltd   
  303694:	89 45 e0             	mov    %eax,-0x20(%ebp)
  303697:	89 55 e4             	mov    %edx,-0x1c(%ebp)
  30369a:	eb 30                	jmp    3036cc <__vsnprintf+0x1ca>
  30369c:	83 7d f4 02          	cmpl   $0x2,-0xc(%ebp)
  3036a0:	75 15                	jne    3036b7 <__vsnprintf+0x1b5>
  3036a2:	8b 45 14             	mov    0x14(%ebp),%eax
  3036a5:	8d 50 04             	lea    0x4(%eax),%edx
  3036a8:	89 55 14             	mov    %edx,0x14(%ebp)
  3036ab:	8b 00                	mov    (%eax),%eax
  3036ad:	98                   	cwtl   
  3036ae:	99                   	cltd   
  3036af:	89 45 e0             	mov    %eax,-0x20(%ebp)
  3036b2:	89 55 e4             	mov    %edx,-0x1c(%ebp)
  3036b5:	eb 15                	jmp    3036cc <__vsnprintf+0x1ca>
  3036b7:	8b 45 14             	mov    0x14(%ebp),%eax
  3036ba:	8d 50 04             	lea    0x4(%eax),%edx
  3036bd:	89 55 14             	mov    %edx,0x14(%ebp)
  3036c0:	8b 00                	mov    (%eax),%eax
  3036c2:	0f be c0             	movsbl %al,%eax
  3036c5:	99                   	cltd   
  3036c6:	89 45 e0             	mov    %eax,-0x20(%ebp)
  3036c9:	89 55 e4             	mov    %edx,-0x1c(%ebp)
  3036cc:	ff 75 e4             	push   -0x1c(%ebp)
  3036cf:	ff 75 e0             	push   -0x20(%ebp)
  3036d2:	ff 75 0c             	push   0xc(%ebp)
  3036d5:	8d 45 94             	lea    -0x6c(%ebp),%eax
  3036d8:	50                   	push   %eax
  3036d9:	e8 39 fb ff ff       	call   303217 <__format_add_idec>
  3036de:	83 c4 10             	add    $0x10,%esp
  3036e1:	e9 bd 01 00 00       	jmp    3038a3 <__vsnprintf+0x3a1>
  3036e6:	80 7d d7 75          	cmpb   $0x75,-0x29(%ebp)
  3036ea:	74 0a                	je     3036f6 <__vsnprintf+0x1f4>
  3036ec:	80 7d d7 78          	cmpb   $0x78,-0x29(%ebp)
  3036f0:	0f 85 b0 00 00 00    	jne    3037a6 <__vsnprintf+0x2a4>
  3036f6:	83 7d f4 07          	cmpl   $0x7,-0xc(%ebp)
  3036fa:	76 16                	jbe    303712 <__vsnprintf+0x210>
  3036fc:	8b 45 14             	mov    0x14(%ebp),%eax
  3036ff:	8d 50 08             	lea    0x8(%eax),%edx
  303702:	89 55 14             	mov    %edx,0x14(%ebp)
  303705:	8b 50 04             	mov    0x4(%eax),%edx
  303708:	8b 00                	mov    (%eax),%eax
  30370a:	89 45 d8             	mov    %eax,-0x28(%ebp)
  30370d:	89 55 dc             	mov    %edx,-0x24(%ebp)
  303710:	eb 55                	jmp    303767 <__vsnprintf+0x265>
  303712:	83 7d f4 04          	cmpl   $0x4,-0xc(%ebp)
  303716:	75 17                	jne    30372f <__vsnprintf+0x22d>
  303718:	8b 45 14             	mov    0x14(%ebp),%eax
  30371b:	8d 50 04             	lea    0x4(%eax),%edx
  30371e:	89 55 14             	mov    %edx,0x14(%ebp)
  303721:	8b 00                	mov    (%eax),%eax
  303723:	89 45 d8             	mov    %eax,-0x28(%ebp)
  303726:	c7 45 dc 00 00 00 00 	movl   $0x0,-0x24(%ebp)
  30372d:	eb 38                	jmp    303767 <__vsnprintf+0x265>
  30372f:	83 7d f4 02          	cmpl   $0x2,-0xc(%ebp)
  303733:	75 1a                	jne    30374f <__vsnprintf+0x24d>
  303735:	8b 45 14             	mov    0x14(%ebp),%eax
  303738:	8d 50 04             	lea    0x4(%eax),%edx
  30373b:	89 55 14             	mov    %edx,0x14(%ebp)
  30373e:	8b 00                	mov    (%eax),%eax
  303740:	0f b7 c0             	movzwl %ax,%eax
  303743:	89 45 d8             	mov    %eax,-0x28(%ebp)
  303746:	c7 45 dc 00 00 00 00 	movl   $0x0,-0x24(%ebp)
  30374d:	eb 18                	jmp    303767 <__vsnprintf+0x265>
  30374f:	8b 45 14             	mov    0x14(%ebp),%eax
  303752:	8d 50 04             	lea    0x4(%eax),%edx
  303755:	89 55 14             	mov    %edx,0x14(%ebp)
  303758:	8b 00                	mov    (%eax),%eax
  30375a:	0f b6 c0             	movzbl %al,%eax
  30375d:	89 45 d8             	mov    %eax,-0x28(%ebp)
  303760:	c7 45 dc 00 00 00 00 	movl   $0x0,-0x24(%ebp)
  303767:	80 7d d7 75          	cmpb   $0x75,-0x29(%ebp)
  30376b:	75 1a                	jne    303787 <__vsnprintf+0x285>
  30376d:	ff 75 dc             	push   -0x24(%ebp)
  303770:	ff 75 d8             	push   -0x28(%ebp)
  303773:	ff 75 0c             	push   0xc(%ebp)
  303776:	8d 45 94             	lea    -0x6c(%ebp),%eax
  303779:	50                   	push   %eax
  30377a:	e8 99 fb ff ff       	call   303318 <__format_add_udec>
  30377f:	83 c4 10             	add    $0x10,%esp
  303782:	e9 1c 01 00 00       	jmp    3038a3 <__vsnprintf+0x3a1>
  303787:	83 ec 0c             	sub    $0xc,%esp
  30378a:	6a 00                	push   $0x0
  30378c:	ff 75 dc             	push   -0x24(%ebp)
  30378f:	ff 75 d8             	push   -0x28(%ebp)
  303792:	ff 75 0c             	push   0xc(%ebp)
  303795:	8d 45 94             	lea    -0x6c(%ebp),%eax
  303798:	50                   	push   %eax
  303799:	e8 35 fd ff ff       	call   3034d3 <__format_add_hex>
  30379e:	83 c4 20             	add    $0x20,%esp
  3037a1:	e9 fd 00 00 00       	jmp    3038a3 <__vsnprintf+0x3a1>
  3037a6:	80 7d d7 44          	cmpb   $0x44,-0x29(%ebp)
  3037aa:	75 2e                	jne    3037da <__vsnprintf+0x2d8>
  3037ac:	8b 45 14             	mov    0x14(%ebp),%eax
  3037af:	8d 50 08             	lea    0x8(%eax),%edx
  3037b2:	89 55 14             	mov    %edx,0x14(%ebp)
  3037b5:	8b 50 04             	mov    0x4(%eax),%edx
  3037b8:	8b 00                	mov    (%eax),%eax
  3037ba:	89 45 b8             	mov    %eax,-0x48(%ebp)
  3037bd:	89 55 bc             	mov    %edx,-0x44(%ebp)
  3037c0:	ff 75 bc             	push   -0x44(%ebp)
  3037c3:	ff 75 b8             	push   -0x48(%ebp)
  3037c6:	ff 75 0c             	push   0xc(%ebp)
  3037c9:	8d 45 94             	lea    -0x6c(%ebp),%eax
  3037cc:	50                   	push   %eax
  3037cd:	e8 45 fa ff ff       	call   303217 <__format_add_idec>
  3037d2:	83 c4 10             	add    $0x10,%esp
  3037d5:	e9 c9 00 00 00       	jmp    3038a3 <__vsnprintf+0x3a1>
  3037da:	80 7d d7 58          	cmpb   $0x58,-0x29(%ebp)
  3037de:	75 33                	jne    303813 <__vsnprintf+0x311>
  3037e0:	8b 45 14             	mov    0x14(%ebp),%eax
  3037e3:	8d 50 08             	lea    0x8(%eax),%edx
  3037e6:	89 55 14             	mov    %edx,0x14(%ebp)
  3037e9:	8b 50 04             	mov    0x4(%eax),%edx
  3037ec:	8b 00                	mov    (%eax),%eax
  3037ee:	89 45 c0             	mov    %eax,-0x40(%ebp)
  3037f1:	89 55 c4             	mov    %edx,-0x3c(%ebp)
  3037f4:	83 ec 0c             	sub    $0xc,%esp
  3037f7:	6a 00                	push   $0x0
  3037f9:	ff 75 c4             	push   -0x3c(%ebp)
  3037fc:	ff 75 c0             	push   -0x40(%ebp)
  3037ff:	ff 75 0c             	push   0xc(%ebp)
  303802:	8d 45 94             	lea    -0x6c(%ebp),%eax
  303805:	50                   	push   %eax
  303806:	e8 c8 fc ff ff       	call   3034d3 <__format_add_hex>
  30380b:	83 c4 20             	add    $0x20,%esp
  30380e:	e9 90 00 00 00       	jmp    3038a3 <__vsnprintf+0x3a1>
  303813:	80 7d d7 70          	cmpb   $0x70,-0x29(%ebp)
  303817:	75 48                	jne    303861 <__vsnprintf+0x35f>
  303819:	8b 45 14             	mov    0x14(%ebp),%eax
  30381c:	8d 50 04             	lea    0x4(%eax),%edx
  30381f:	89 55 14             	mov    %edx,0x14(%ebp)
  303822:	8b 00                	mov    (%eax),%eax
  303824:	89 45 c8             	mov    %eax,-0x38(%ebp)
  303827:	c7 45 cc 00 00 00 00 	movl   $0x0,-0x34(%ebp)
  30382e:	83 ec 04             	sub    $0x4,%esp
  303831:	68 00 46 30 00       	push   $0x304600
  303836:	ff 75 0c             	push   0xc(%ebp)
  303839:	8d 45 94             	lea    -0x6c(%ebp),%eax
  30383c:	50                   	push   %eax
  30383d:	e8 1a f9 ff ff       	call   30315c <__format_add_str>
  303842:	83 c4 10             	add    $0x10,%esp
  303845:	83 ec 0c             	sub    $0xc,%esp
  303848:	6a 00                	push   $0x0
  30384a:	ff 75 cc             	push   -0x34(%ebp)
  30384d:	ff 75 c8             	push   -0x38(%ebp)
  303850:	ff 75 0c             	push   0xc(%ebp)
  303853:	8d 45 94             	lea    -0x6c(%ebp),%eax
  303856:	50                   	push   %eax
  303857:	e8 77 fc ff ff       	call   3034d3 <__format_add_hex>
  30385c:	83 c4 20             	add    $0x20,%esp
  30385f:	eb 42                	jmp    3038a3 <__vsnprintf+0x3a1>
  303861:	80 7d d7 2f          	cmpb   $0x2f,-0x29(%ebp)
  303865:	7e 08                	jle    30386f <__vsnprintf+0x36d>
  303867:	80 7d d7 39          	cmpb   $0x39,-0x29(%ebp)
  30386b:	7f 02                	jg     30386f <__vsnprintf+0x36d>
  30386d:	eb 71                	jmp    3038e0 <__vsnprintf+0x3de>
  30386f:	80 7d d7 25          	cmpb   $0x25,-0x29(%ebp)
  303873:	75 19                	jne    30388e <__vsnprintf+0x38c>
  303875:	0f be 45 d7          	movsbl -0x29(%ebp),%eax
  303879:	83 ec 04             	sub    $0x4,%esp
  30387c:	50                   	push   %eax
  30387d:	ff 75 0c             	push   0xc(%ebp)
  303880:	8d 45 94             	lea    -0x6c(%ebp),%eax
  303883:	50                   	push   %eax
  303884:	e8 e4 f7 ff ff       	call   30306d <__buf_add>
  303889:	83 c4 10             	add    $0x10,%esp
  30388c:	eb 15                	jmp    3038a3 <__vsnprintf+0x3a1>
  30388e:	0f be 45 d7          	movsbl -0x29(%ebp),%eax
  303892:	83 ec 08             	sub    $0x8,%esp
  303895:	50                   	push   %eax
  303896:	68 03 46 30 00       	push   $0x304603
  30389b:	e8 08 f8 ff ff       	call   3030a8 <panic>
  3038a0:	83 c4 10             	add    $0x10,%esp
  3038a3:	c7 45 f0 00 00 00 00 	movl   $0x0,-0x10(%ebp)
  3038aa:	c7 45 ec 00 00 00 00 	movl   $0x0,-0x14(%ebp)
  3038b1:	eb 2d                	jmp    3038e0 <__vsnprintf+0x3de>
  3038b3:	80 7d d7 25          	cmpb   $0x25,-0x29(%ebp)
  3038b7:	75 10                	jne    3038c9 <__vsnprintf+0x3c7>
  3038b9:	c7 45 f0 01 00 00 00 	movl   $0x1,-0x10(%ebp)
  3038c0:	c7 45 f4 04 00 00 00 	movl   $0x4,-0xc(%ebp)
  3038c7:	eb 17                	jmp    3038e0 <__vsnprintf+0x3de>
  3038c9:	0f be 45 d7          	movsbl -0x29(%ebp),%eax
  3038cd:	83 ec 04             	sub    $0x4,%esp
  3038d0:	50                   	push   %eax
  3038d1:	ff 75 0c             	push   0xc(%ebp)
  3038d4:	8d 45 94             	lea    -0x6c(%ebp),%eax
  3038d7:	50                   	push   %eax
  3038d8:	e8 90 f7 ff ff       	call   30306d <__buf_add>
  3038dd:	83 c4 10             	add    $0x10,%esp
  3038e0:	8b 45 10             	mov    0x10(%ebp),%eax
  3038e3:	0f b6 00             	movzbl (%eax),%eax
  3038e6:	84 c0                	test   %al,%al
  3038e8:	0f 85 4f fc ff ff    	jne    30353d <__vsnprintf+0x3b>
  3038ee:	8b 4d 94             	mov    -0x6c(%ebp),%ecx
  3038f1:	8b 45 9c             	mov    -0x64(%ebp),%eax
  3038f4:	8d 50 01             	lea    0x1(%eax),%edx
  3038f7:	89 55 9c             	mov    %edx,-0x64(%ebp)
  3038fa:	01 c8                	add    %ecx,%eax
  3038fc:	c6 00 00             	movb   $0x0,(%eax)
  3038ff:	8b 45 9c             	mov    -0x64(%ebp),%eax
  303902:	c9                   	leave  
  303903:	c3                   	ret    

00303904 <__uart_flush_recv>:
  303904:	55                   	push   %ebp
  303905:	89 e5                	mov    %esp,%ebp
  303907:	83 ec 14             	sub    $0x14,%esp
  30390a:	8b 45 08             	mov    0x8(%ebp),%eax
  30390d:	66 89 45 ec          	mov    %ax,-0x14(%ebp)
  303911:	eb 0a                	jmp    30391d <__uart_flush_recv+0x19>
  303913:	0f b7 45 ec          	movzwl -0x14(%ebp),%eax
  303917:	89 c2                	mov    %eax,%edx
  303919:	ec                   	in     (%dx),%al
  30391a:	88 45 fe             	mov    %al,-0x2(%ebp)
  30391d:	0f b7 45 ec          	movzwl -0x14(%ebp),%eax
  303921:	83 c0 05             	add    $0x5,%eax
  303924:	89 c2                	mov    %eax,%edx
  303926:	ec                   	in     (%dx),%al
  303927:	88 45 ff             	mov    %al,-0x1(%ebp)
  30392a:	0f b6 45 ff          	movzbl -0x1(%ebp),%eax
  30392e:	0f b6 c0             	movzbl %al,%eax
  303931:	83 e0 01             	and    $0x1,%eax
  303934:	85 c0                	test   %eax,%eax
  303936:	75 db                	jne    303913 <__uart_flush_recv+0xf>
  303938:	90                   	nop
  303939:	90                   	nop
  30393a:	c9                   	leave  
  30393b:	c3                   	ret    

0030393c <__uart_fifo_init>:
  30393c:	55                   	push   %ebp
  30393d:	89 e5                	mov    %esp,%ebp
  30393f:	83 ec 14             	sub    $0x14,%esp
  303942:	8b 45 08             	mov    0x8(%ebp),%eax
  303945:	66 89 45 ec          	mov    %ax,-0x14(%ebp)
  303949:	0f b7 45 ec          	movzwl -0x14(%ebp),%eax
  30394d:	8d 50 03             	lea    0x3(%eax),%edx
  303950:	b8 bf 00 00 00       	mov    $0xbf,%eax
  303955:	ee                   	out    %al,(%dx)
  303956:	c6 45 fe 00          	movb   $0x0,-0x2(%ebp)
  30395a:	0f b6 45 fe          	movzbl -0x2(%ebp),%eax
  30395e:	83 c8 10             	or     $0x10,%eax
  303961:	88 45 fe             	mov    %al,-0x2(%ebp)
  303964:	0f b6 45 fe          	movzbl -0x2(%ebp),%eax
  303968:	0f b7 55 ec          	movzwl -0x14(%ebp),%edx
  30396c:	83 c2 02             	add    $0x2,%edx
  30396f:	ee                   	out    %al,(%dx)
  303970:	0f b6 45 ff          	movzbl -0x1(%ebp),%eax
  303974:	83 e0 fe             	and    $0xfffffffe,%eax
  303977:	88 45 ff             	mov    %al,-0x1(%ebp)
  30397a:	0f b6 45 ff          	movzbl -0x1(%ebp),%eax
  30397e:	83 e0 f7             	and    $0xfffffff7,%eax
  303981:	88 45 ff             	mov    %al,-0x1(%ebp)
  303984:	0f b6 45 ff          	movzbl -0x1(%ebp),%eax
  303988:	0f b7 55 ec          	movzwl -0x14(%ebp),%edx
  30398c:	83 c2 02             	add    $0x2,%edx
  30398f:	ee                   	out    %al,(%dx)
  303990:	0f b7 45 ec          	movzwl -0x14(%ebp),%eax
  303994:	8d 50 03             	lea    0x3(%eax),%edx
  303997:	b8 00 00 00 00       	mov    $0x0,%eax
  30399c:	ee                   	out    %al,(%dx)
  30399d:	c6 45 fe 00          	movb   $0x0,-0x2(%ebp)
  3039a1:	0f b6 45 fe          	movzbl -0x2(%ebp),%eax
  3039a5:	83 c8 40             	or     $0x40,%eax
  3039a8:	88 45 fe             	mov    %al,-0x2(%ebp)
  3039ab:	0f b6 45 fe          	movzbl -0x2(%ebp),%eax
  3039af:	83 c8 80             	or     $0xffffff80,%eax
  3039b2:	88 45 fe             	mov    %al,-0x2(%ebp)
  3039b5:	0f b6 45 fe          	movzbl -0x2(%ebp),%eax
  3039b9:	0f b7 55 ec          	movzwl -0x14(%ebp),%edx
  3039bd:	83 c2 02             	add    $0x2,%edx
  3039c0:	ee                   	out    %al,(%dx)
  3039c1:	90                   	nop
  3039c2:	c9                   	leave  
  3039c3:	c3                   	ret    

003039c4 <__uart_common_init>:
  3039c4:	55                   	push   %ebp
  3039c5:	89 e5                	mov    %esp,%ebp
  3039c7:	83 ec 14             	sub    $0x14,%esp
  3039ca:	8b 45 08             	mov    0x8(%ebp),%eax
  3039cd:	66 89 45 ec          	mov    %ax,-0x14(%ebp)
  3039d1:	0f b7 45 ec          	movzwl -0x14(%ebp),%eax
  3039d5:	8d 50 03             	lea    0x3(%eax),%edx
  3039d8:	b8 80 00 00 00       	mov    $0x80,%eax
  3039dd:	ee                   	out    %al,(%dx)
  3039de:	b8 01 00 00 00       	mov    $0x1,%eax
  3039e3:	0f b7 55 ec          	movzwl -0x14(%ebp),%edx
  3039e7:	ee                   	out    %al,(%dx)
  3039e8:	0f b7 45 ec          	movzwl -0x14(%ebp),%eax
  3039ec:	8d 50 01             	lea    0x1(%eax),%edx
  3039ef:	b8 00 00 00 00       	mov    $0x0,%eax
  3039f4:	ee                   	out    %al,(%dx)
  3039f5:	c6 45 fe 00          	movb   $0x0,-0x2(%ebp)
  3039f9:	0f b6 45 fe          	movzbl -0x2(%ebp),%eax
  3039fd:	83 c8 03             	or     $0x3,%eax
  303a00:	88 45 fe             	mov    %al,-0x2(%ebp)
  303a03:	0f b6 45 fe          	movzbl -0x2(%ebp),%eax
  303a07:	0f b7 55 ec          	movzwl -0x14(%ebp),%edx
  303a0b:	83 c2 03             	add    $0x3,%edx
  303a0e:	ee                   	out    %al,(%dx)
  303a0f:	c6 45 ff 00          	movb   $0x0,-0x1(%ebp)
  303a13:	0f b6 45 ff          	movzbl -0x1(%ebp),%eax
  303a17:	0f b7 55 ec          	movzwl -0x14(%ebp),%edx
  303a1b:	83 c2 01             	add    $0x1,%edx
  303a1e:	ee                   	out    %al,(%dx)
  303a1f:	0f b7 45 ec          	movzwl -0x14(%ebp),%eax
  303a23:	50                   	push   %eax
  303a24:	e8 db fe ff ff       	call   303904 <__uart_flush_recv>
  303a29:	83 c4 04             	add    $0x4,%esp
  303a2c:	90                   	nop
  303a2d:	c9                   	leave  
  303a2e:	c3                   	ret    

00303a2f <uart_init>:
  303a2f:	55                   	push   %ebp
  303a30:	89 e5                	mov    %esp,%ebp
  303a32:	68 f8 03 00 00       	push   $0x3f8
  303a37:	e8 00 ff ff ff       	call   30393c <__uart_fifo_init>
  303a3c:	83 c4 04             	add    $0x4,%esp
  303a3f:	68 f8 03 00 00       	push   $0x3f8
  303a44:	e8 7b ff ff ff       	call   3039c4 <__uart_common_init>
  303a49:	83 c4 04             	add    $0x4,%esp
  303a4c:	90                   	nop
  303a4d:	c9                   	leave  
  303a4e:	c3                   	ret    

00303a4f <__uart_read>:
  303a4f:	55                   	push   %ebp
  303a50:	89 e5                	mov    %esp,%ebp
  303a52:	83 ec 14             	sub    $0x14,%esp
  303a55:	8b 45 08             	mov    0x8(%ebp),%eax
  303a58:	66 89 45 ec          	mov    %ax,-0x14(%ebp)
  303a5c:	eb 2c                	jmp    303a8a <__uart_read+0x3b>
  303a5e:	0f b7 45 ec          	movzwl -0x14(%ebp),%eax
  303a62:	89 c2                	mov    %eax,%edx
  303a64:	ec                   	in     (%dx),%al
  303a65:	88 45 fe             	mov    %al,-0x2(%ebp)
  303a68:	0f b6 45 fe          	movzbl -0x2(%ebp),%eax
  303a6c:	8b 55 0c             	mov    0xc(%ebp),%edx
  303a6f:	8b 0a                	mov    (%edx),%ecx
  303a71:	8b 55 0c             	mov    0xc(%ebp),%edx
  303a74:	8b 52 08             	mov    0x8(%edx),%edx
  303a77:	01 ca                	add    %ecx,%edx
  303a79:	88 02                	mov    %al,(%edx)
  303a7b:	8b 45 0c             	mov    0xc(%ebp),%eax
  303a7e:	8b 40 08             	mov    0x8(%eax),%eax
  303a81:	8d 50 01             	lea    0x1(%eax),%edx
  303a84:	8b 45 0c             	mov    0xc(%ebp),%eax
  303a87:	89 50 08             	mov    %edx,0x8(%eax)
  303a8a:	0f b7 45 ec          	movzwl -0x14(%ebp),%eax
  303a8e:	83 c0 05             	add    $0x5,%eax
  303a91:	89 c2                	mov    %eax,%edx
  303a93:	ec                   	in     (%dx),%al
  303a94:	88 45 ff             	mov    %al,-0x1(%ebp)
  303a97:	0f b6 45 ff          	movzbl -0x1(%ebp),%eax
  303a9b:	0f b6 c0             	movzbl %al,%eax
  303a9e:	83 e0 01             	and    $0x1,%eax
  303aa1:	85 c0                	test   %eax,%eax
  303aa3:	74 0b                	je     303ab0 <__uart_read+0x61>
  303aa5:	8b 45 0c             	mov    0xc(%ebp),%eax
  303aa8:	8b 40 08             	mov    0x8(%eax),%eax
  303aab:	39 45 10             	cmp    %eax,0x10(%ebp)
  303aae:	77 ae                	ja     303a5e <__uart_read+0xf>
  303ab0:	90                   	nop
  303ab1:	c9                   	leave  
  303ab2:	c3                   	ret    

00303ab3 <__uart_write>:
  303ab3:	55                   	push   %ebp
  303ab4:	89 e5                	mov    %esp,%ebp
  303ab6:	83 ec 14             	sub    $0x14,%esp
  303ab9:	8b 45 08             	mov    0x8(%ebp),%eax
  303abc:	66 89 45 ec          	mov    %ax,-0x14(%ebp)
  303ac0:	eb 3f                	jmp    303b01 <__uart_write+0x4e>
  303ac2:	0f b7 45 ec          	movzwl -0x14(%ebp),%eax
  303ac6:	83 c0 05             	add    $0x5,%eax
  303ac9:	89 c2                	mov    %eax,%edx
  303acb:	ec                   	in     (%dx),%al
  303acc:	88 45 ff             	mov    %al,-0x1(%ebp)
  303acf:	0f b6 45 ff          	movzbl -0x1(%ebp),%eax
  303ad3:	0f b6 c0             	movzbl %al,%eax
  303ad6:	83 e0 20             	and    $0x20,%eax
  303ad9:	85 c0                	test   %eax,%eax
  303adb:	74 24                	je     303b01 <__uart_write+0x4e>
  303add:	8b 45 0c             	mov    0xc(%ebp),%eax
  303ae0:	8b 10                	mov    (%eax),%edx
  303ae2:	8b 45 0c             	mov    0xc(%ebp),%eax
  303ae5:	8b 40 08             	mov    0x8(%eax),%eax
  303ae8:	01 d0                	add    %edx,%eax
  303aea:	0f b6 00             	movzbl (%eax),%eax
  303aed:	0f b7 55 ec          	movzwl -0x14(%ebp),%edx
  303af1:	ee                   	out    %al,(%dx)
  303af2:	8b 45 0c             	mov    0xc(%ebp),%eax
  303af5:	8b 40 08             	mov    0x8(%eax),%eax
  303af8:	8d 50 01             	lea    0x1(%eax),%edx
  303afb:	8b 45 0c             	mov    0xc(%ebp),%eax
  303afe:	89 50 08             	mov    %edx,0x8(%eax)
  303b01:	8b 45 0c             	mov    0xc(%ebp),%eax
  303b04:	8b 40 08             	mov    0x8(%eax),%eax
  303b07:	39 45 10             	cmp    %eax,0x10(%ebp)
  303b0a:	77 b6                	ja     303ac2 <__uart_write+0xf>
  303b0c:	90                   	nop
  303b0d:	90                   	nop
  303b0e:	c9                   	leave  
  303b0f:	c3                   	ret    

00303b10 <uart_read>:
  303b10:	55                   	push   %ebp
  303b11:	89 e5                	mov    %esp,%ebp
  303b13:	83 ec 10             	sub    $0x10,%esp
  303b16:	8b 45 08             	mov    0x8(%ebp),%eax
  303b19:	89 45 f4             	mov    %eax,-0xc(%ebp)
  303b1c:	c7 45 fc 00 00 00 00 	movl   $0x0,-0x4(%ebp)
  303b23:	ff 75 0c             	push   0xc(%ebp)
  303b26:	8d 45 f4             	lea    -0xc(%ebp),%eax
  303b29:	50                   	push   %eax
  303b2a:	68 f8 03 00 00       	push   $0x3f8
  303b2f:	e8 1b ff ff ff       	call   303a4f <__uart_read>
  303b34:	83 c4 0c             	add    $0xc,%esp
  303b37:	8b 45 fc             	mov    -0x4(%ebp),%eax
  303b3a:	c9                   	leave  
  303b3b:	c3                   	ret    

00303b3c <uart_write>:
  303b3c:	55                   	push   %ebp
  303b3d:	89 e5                	mov    %esp,%ebp
  303b3f:	83 ec 10             	sub    $0x10,%esp
  303b42:	8b 45 08             	mov    0x8(%ebp),%eax
  303b45:	89 45 f4             	mov    %eax,-0xc(%ebp)
  303b48:	c7 45 fc 00 00 00 00 	movl   $0x0,-0x4(%ebp)
  303b4f:	ff 75 0c             	push   0xc(%ebp)
  303b52:	8d 45 f4             	lea    -0xc(%ebp),%eax
  303b55:	50                   	push   %eax
  303b56:	68 f8 03 00 00       	push   $0x3f8
  303b5b:	e8 53 ff ff ff       	call   303ab3 <__uart_write>
  303b60:	83 c4 0c             	add    $0xc,%esp
  303b63:	8b 45 fc             	mov    -0x4(%ebp),%eax
  303b66:	c9                   	leave  
  303b67:	c3                   	ret    

00303b68 <uart_flush>:
  303b68:	55                   	push   %ebp
  303b69:	89 e5                	mov    %esp,%ebp
  303b6b:	83 ec 10             	sub    $0x10,%esp
  303b6e:	c7 45 fc 10 00 00 00 	movl   $0x10,-0x4(%ebp)
  303b75:	eb 28                	jmp    303b9f <uart_flush+0x37>
  303b77:	b8 fd 03 00 00       	mov    $0x3fd,%eax
  303b7c:	89 c2                	mov    %eax,%edx
  303b7e:	ec                   	in     (%dx),%al
  303b7f:	88 45 fb             	mov    %al,-0x5(%ebp)
  303b82:	0f b6 45 fb          	movzbl -0x5(%ebp),%eax
  303b86:	0f b6 c0             	movzbl %al,%eax
  303b89:	83 e0 20             	and    $0x20,%eax
  303b8c:	85 c0                	test   %eax,%eax
  303b8e:	74 0f                	je     303b9f <uart_flush+0x37>
  303b90:	b8 00 00 00 00       	mov    $0x0,%eax
  303b95:	ba f8 03 00 00       	mov    $0x3f8,%edx
  303b9a:	ee                   	out    %al,(%dx)
  303b9b:	83 6d fc 01          	subl   $0x1,-0x4(%ebp)
  303b9f:	83 7d fc 00          	cmpl   $0x0,-0x4(%ebp)
  303ba3:	75 d2                	jne    303b77 <uart_flush+0xf>
  303ba5:	90                   	nop
  303ba6:	90                   	nop
  303ba7:	c9                   	leave  
  303ba8:	c3                   	ret    

00303ba9 <pic_init>:
  303ba9:	55                   	push   %ebp
  303baa:	89 e5                	mov    %esp,%ebp
  303bac:	83 ec 10             	sub    $0x10,%esp
  303baf:	c6 45 ff 11          	movb   $0x11,-0x1(%ebp)
  303bb3:	0f b6 45 ff          	movzbl -0x1(%ebp),%eax
  303bb7:	ba 20 00 00 00       	mov    $0x20,%edx
  303bbc:	ee                   	out    %al,(%dx)
  303bbd:	0f b6 45 ff          	movzbl -0x1(%ebp),%eax
  303bc1:	ba a0 00 00 00       	mov    $0xa0,%edx
  303bc6:	ee                   	out    %al,(%dx)
  303bc7:	c6 45 fe 20          	movb   $0x20,-0x2(%ebp)
  303bcb:	0f b6 45 fe          	movzbl -0x2(%ebp),%eax
  303bcf:	ba 21 00 00 00       	mov    $0x21,%edx
  303bd4:	ee                   	out    %al,(%dx)
  303bd5:	c6 45 fe 28          	movb   $0x28,-0x2(%ebp)
  303bd9:	0f b6 45 fe          	movzbl -0x2(%ebp),%eax
  303bdd:	ba a1 00 00 00       	mov    $0xa1,%edx
  303be2:	ee                   	out    %al,(%dx)
  303be3:	c6 45 fd 00          	movb   $0x0,-0x3(%ebp)
  303be7:	0f b6 45 fd          	movzbl -0x3(%ebp),%eax
  303beb:	83 c8 04             	or     $0x4,%eax
  303bee:	88 45 fd             	mov    %al,-0x3(%ebp)
  303bf1:	0f b6 45 fd          	movzbl -0x3(%ebp),%eax
  303bf5:	ba 21 00 00 00       	mov    $0x21,%edx
  303bfa:	ee                   	out    %al,(%dx)
  303bfb:	c6 45 fd 00          	movb   $0x0,-0x3(%ebp)
  303bff:	0f b6 45 fd          	movzbl -0x3(%ebp),%eax
  303c03:	83 e0 f8             	and    $0xfffffff8,%eax
  303c06:	83 c8 02             	or     $0x2,%eax
  303c09:	88 45 fd             	mov    %al,-0x3(%ebp)
  303c0c:	0f b6 45 fd          	movzbl -0x3(%ebp),%eax
  303c10:	ba a1 00 00 00       	mov    $0xa1,%edx
  303c15:	ee                   	out    %al,(%dx)
  303c16:	c6 45 fc 01          	movb   $0x1,-0x4(%ebp)
  303c1a:	0f b6 45 fc          	movzbl -0x4(%ebp),%eax
  303c1e:	ba 21 00 00 00       	mov    $0x21,%edx
  303c23:	ee                   	out    %al,(%dx)
  303c24:	0f b6 45 fc          	movzbl -0x4(%ebp),%eax
  303c28:	ba a1 00 00 00       	mov    $0xa1,%edx
  303c2d:	ee                   	out    %al,(%dx)
  303c2e:	90                   	nop
  303c2f:	c9                   	leave  
  303c30:	c3                   	ret    

00303c31 <intr_init>:
  303c31:	55                   	push   %ebp
  303c32:	89 e5                	mov    %esp,%ebp
  303c34:	83 ec 20             	sub    $0x20,%esp
  303c37:	c7 45 fc 10 20 30 00 	movl   $0x302010,-0x4(%ebp)
  303c3e:	c7 45 f8 00 00 00 00 	movl   $0x0,-0x8(%ebp)
  303c45:	e9 8d 00 00 00       	jmp    303cd7 <intr_init+0xa6>
  303c4a:	8b 45 fc             	mov    -0x4(%ebp),%eax
  303c4d:	89 45 ee             	mov    %eax,-0x12(%ebp)
  303c50:	0f b7 4d ee          	movzwl -0x12(%ebp),%ecx
  303c54:	0f b7 c1             	movzwl %cx,%eax
  303c57:	ba 00 00 00 00       	mov    $0x0,%edx
  303c5c:	8b 4d f8             	mov    -0x8(%ebp),%ecx
  303c5f:	89 04 cd 00 4e 30 00 	mov    %eax,0x304e00(,%ecx,8)
  303c66:	89 14 cd 04 4e 30 00 	mov    %edx,0x304e04(,%ecx,8)
  303c6d:	8b 45 f8             	mov    -0x8(%ebp),%eax
  303c70:	0f b7 14 c5 02 4e 30 	movzwl 0x304e02(,%eax,8),%edx
  303c77:	00 
  303c78:	83 e2 00             	and    $0x0,%edx
  303c7b:	83 ca 08             	or     $0x8,%edx
  303c7e:	66 89 14 c5 02 4e 30 	mov    %dx,0x304e02(,%eax,8)
  303c85:	00 
  303c86:	8b 45 f8             	mov    -0x8(%ebp),%eax
  303c89:	0f b6 14 c5 05 4e 30 	movzbl 0x304e05(,%eax,8),%edx
  303c90:	00 
  303c91:	83 e2 f0             	and    $0xfffffff0,%edx
  303c94:	83 ca 0e             	or     $0xe,%edx
  303c97:	88 14 c5 05 4e 30 00 	mov    %dl,0x304e05(,%eax,8)
  303c9e:	0f b7 4d f0          	movzwl -0x10(%ebp),%ecx
  303ca2:	8b 45 f8             	mov    -0x8(%ebp),%eax
  303ca5:	0f b7 14 c5 06 4e 30 	movzwl 0x304e06(,%eax,8),%edx
  303cac:	00 
  303cad:	83 e2 00             	and    $0x0,%edx
  303cb0:	09 ca                	or     %ecx,%edx
  303cb2:	66 89 14 c5 06 4e 30 	mov    %dx,0x304e06(,%eax,8)
  303cb9:	00 
  303cba:	8b 45 f8             	mov    -0x8(%ebp),%eax
  303cbd:	0f b6 14 c5 05 4e 30 	movzbl 0x304e05(,%eax,8),%edx
  303cc4:	00 
  303cc5:	83 ca 80             	or     $0xffffff80,%edx
  303cc8:	88 14 c5 05 4e 30 00 	mov    %dl,0x304e05(,%eax,8)
  303ccf:	83 45 f8 01          	addl   $0x1,-0x8(%ebp)
  303cd3:	83 45 fc 10          	addl   $0x10,-0x4(%ebp)
  303cd7:	81 7d f8 ff 00 00 00 	cmpl   $0xff,-0x8(%ebp)
  303cde:	0f 86 66 ff ff ff    	jbe    303c4a <intr_init+0x19>
  303ce4:	c7 45 f4 00 4e 30 00 	movl   $0x304e00,-0xc(%ebp)
  303ceb:	66 c7 45 f2 ff 07    	movw   $0x7ff,-0xe(%ebp)
  303cf1:	0f 01 5d f2          	lidtl  -0xe(%ebp)
  303cf5:	90                   	nop
  303cf6:	c9                   	leave  
  303cf7:	c3                   	ret    

00303cf8 <intr_hdlr>:
  303cf8:	55                   	push   %ebp
  303cf9:	89 e5                	mov    %esp,%ebp
  303cfb:	57                   	push   %edi
  303cfc:	56                   	push   %esi
  303cfd:	53                   	push   %ebx
  303cfe:	83 ec 4c             	sub    $0x4c,%esp
  303d01:	89 45 d4             	mov    %eax,-0x2c(%ebp)
  303d04:	8b 45 d4             	mov    -0x2c(%ebp),%eax
  303d07:	8b 38                	mov    (%eax),%edi
  303d09:	8b 45 d4             	mov    -0x2c(%ebp),%eax
  303d0c:	8b 40 04             	mov    0x4(%eax),%eax
  303d0f:	89 45 d0             	mov    %eax,-0x30(%ebp)
  303d12:	8b 45 d4             	mov    -0x2c(%ebp),%eax
  303d15:	8b 50 08             	mov    0x8(%eax),%edx
  303d18:	89 55 cc             	mov    %edx,-0x34(%ebp)
  303d1b:	8b 45 d4             	mov    -0x2c(%ebp),%eax
  303d1e:	8b 48 0c             	mov    0xc(%eax),%ecx
  303d21:	89 4d c8             	mov    %ecx,-0x38(%ebp)
  303d24:	8b 45 d4             	mov    -0x2c(%ebp),%eax
  303d27:	8b 58 10             	mov    0x10(%eax),%ebx
  303d2a:	89 5d c4             	mov    %ebx,-0x3c(%ebp)
  303d2d:	8b 45 d4             	mov    -0x2c(%ebp),%eax
  303d30:	8b 70 14             	mov    0x14(%eax),%esi
  303d33:	89 75 c0             	mov    %esi,-0x40(%ebp)
  303d36:	8b 45 d4             	mov    -0x2c(%ebp),%eax
  303d39:	8b 40 18             	mov    0x18(%eax),%eax
  303d3c:	89 45 bc             	mov    %eax,-0x44(%ebp)
  303d3f:	8b 45 d4             	mov    -0x2c(%ebp),%eax
  303d42:	8b 50 1c             	mov    0x1c(%eax),%edx
  303d45:	89 55 b8             	mov    %edx,-0x48(%ebp)
  303d48:	8b 45 d4             	mov    -0x2c(%ebp),%eax
  303d4b:	8b 48 30             	mov    0x30(%eax),%ecx
  303d4e:	89 4d b4             	mov    %ecx,-0x4c(%ebp)
  303d51:	8b 45 d4             	mov    -0x2c(%ebp),%eax
  303d54:	8b 58 34             	mov    0x34(%eax),%ebx
  303d57:	89 5d b0             	mov    %ebx,-0x50(%ebp)
  303d5a:	8b 45 d4             	mov    -0x2c(%ebp),%eax
  303d5d:	8b 70 38             	mov    0x38(%eax),%esi
  303d60:	8b 45 d4             	mov    -0x2c(%ebp),%eax
  303d63:	8b 58 28             	mov    0x28(%eax),%ebx
  303d66:	8b 45 d4             	mov    -0x2c(%ebp),%eax
  303d69:	8b 48 2c             	mov    0x2c(%eax),%ecx
  303d6c:	8b 45 d4             	mov    -0x2c(%ebp),%eax
  303d6f:	8b 50 24             	mov    0x24(%eax),%edx
  303d72:	8b 45 d4             	mov    -0x2c(%ebp),%eax
  303d75:	8b 40 20             	mov    0x20(%eax),%eax
  303d78:	57                   	push   %edi
  303d79:	ff 75 d0             	push   -0x30(%ebp)
  303d7c:	ff 75 cc             	push   -0x34(%ebp)
  303d7f:	ff 75 c8             	push   -0x38(%ebp)
  303d82:	ff 75 c4             	push   -0x3c(%ebp)
  303d85:	ff 75 c0             	push   -0x40(%ebp)
  303d88:	ff 75 bc             	push   -0x44(%ebp)
  303d8b:	ff 75 b8             	push   -0x48(%ebp)
  303d8e:	ff 75 b4             	push   -0x4c(%ebp)
  303d91:	ff 75 b0             	push   -0x50(%ebp)
  303d94:	56                   	push   %esi
  303d95:	53                   	push   %ebx
  303d96:	51                   	push   %ecx
  303d97:	52                   	push   %edx
  303d98:	50                   	push   %eax
  303d99:	68 20 46 30 00       	push   $0x304620
  303d9e:	e8 2d f3 ff ff       	call   3030d0 <printf>
  303da3:	83 c4 40             	add    $0x40,%esp
  303da6:	8b 45 d4             	mov    -0x2c(%ebp),%eax
  303da9:	0f b6 40 20          	movzbl 0x20(%eax),%eax
  303dad:	88 45 e7             	mov    %al,-0x19(%ebp)
  303db0:	80 7d e7 1f          	cmpb   $0x1f,-0x19(%ebp)
  303db4:	77 0a                	ja     303dc0 <intr_hdlr+0xc8>
  303db6:	8b 45 d4             	mov    -0x2c(%ebp),%eax
  303db9:	e8 3a 00 00 00       	call   303df8 <excp_hdlr>
  303dbe:	eb 15                	jmp    303dd5 <intr_hdlr+0xdd>
  303dc0:	0f b6 45 e7          	movzbl -0x19(%ebp),%eax
  303dc4:	83 ec 08             	sub    $0x8,%esp
  303dc7:	50                   	push   %eax
  303dc8:	68 ff 46 30 00       	push   $0x3046ff
  303dcd:	e8 fe f2 ff ff       	call   3030d0 <printf>
  303dd2:	83 c4 10             	add    $0x10,%esp
  303dd5:	90                   	nop
  303dd6:	8d 65 f4             	lea    -0xc(%ebp),%esp
  303dd9:	5b                   	pop    %ebx
  303dda:	5e                   	pop    %esi
  303ddb:	5f                   	pop    %edi
  303ddc:	5d                   	pop    %ebp
  303ddd:	c3                   	ret    

00303dde <ack_pic2>:
  303dde:	50                   	push   %eax
  303ddf:	b0 20                	mov    $0x20,%al
  303de1:	e6 a0                	out    %al,$0xa0
  303de3:	eb 03                	jmp    303de8 <eoi_pic1>

00303de5 <ack_pic1>:
  303de5:	50                   	push   %eax
  303de6:	b0 20                	mov    $0x20,%al

00303de8 <eoi_pic1>:
  303de8:	e6 20                	out    %al,$0x20
  303dea:	58                   	pop    %eax

00303deb <idt_common>:
  303deb:	60                   	pusha  
  303dec:	89 e0                	mov    %esp,%eax
  303dee:	e8 05 ff ff ff       	call   303cf8 <intr_hdlr>

00303df3 <resume_from_intr>:
  303df3:	61                   	popa   
  303df4:	83 c4 08             	add    $0x8,%esp
  303df7:	cf                   	iret   

00303df8 <excp_hdlr>:
  303df8:	55                   	push   %ebp
  303df9:	89 e5                	mov    %esp,%ebp
  303dfb:	56                   	push   %esi
  303dfc:	53                   	push   %ebx
  303dfd:	83 ec 20             	sub    $0x20,%esp
  303e00:	89 45 e4             	mov    %eax,-0x1c(%ebp)
  303e03:	8b 45 e4             	mov    -0x1c(%ebp),%eax
  303e06:	0f b6 40 20          	movzbl 0x20(%eax),%eax
  303e0a:	0f b6 c0             	movzbl %al,%eax
  303e0d:	8b 04 85 80 49 30 00 	mov    0x304980(,%eax,4),%eax
  303e14:	83 ec 08             	sub    $0x8,%esp
  303e17:	50                   	push   %eax
  303e18:	68 49 48 30 00       	push   $0x304849
  303e1d:	e8 ae f2 ff ff       	call   3030d0 <printf>
  303e22:	83 c4 10             	add    $0x10,%esp
  303e25:	8b 45 e4             	mov    -0x1c(%ebp),%eax
  303e28:	0f b6 40 20          	movzbl 0x20(%eax),%eax
  303e2c:	0f b6 c0             	movzbl %al,%eax
  303e2f:	83 f8 0e             	cmp    $0xe,%eax
  303e32:	74 2d                	je     303e61 <excp_hdlr+0x69>
  303e34:	83 f8 0e             	cmp    $0xe,%eax
  303e37:	0f 8f da 00 00 00    	jg     303f17 <excp_hdlr+0x11f>
  303e3d:	83 f8 02             	cmp    $0x2,%eax
  303e40:	74 0a                	je     303e4c <excp_hdlr+0x54>
  303e42:	83 f8 0d             	cmp    $0xd,%eax
  303e45:	74 76                	je     303ebd <excp_hdlr+0xc5>
  303e47:	e9 cb 00 00 00       	jmp    303f17 <excp_hdlr+0x11f>
  303e4c:	83 ec 0c             	sub    $0xc,%esp
  303e4f:	68 59 48 30 00       	push   $0x304859
  303e54:	e8 77 f2 ff ff       	call   3030d0 <printf>
  303e59:	83 c4 10             	add    $0x10,%esp
  303e5c:	e9 0c 01 00 00       	jmp    303f6d <excp_hdlr+0x175>
  303e61:	0f 20 d0             	mov    %cr2,%eax
  303e64:	89 45 f4             	mov    %eax,-0xc(%ebp)
  303e67:	8b 75 f4             	mov    -0xc(%ebp),%esi
  303e6a:	8b 45 e4             	mov    -0x1c(%ebp),%eax
  303e6d:	0f b6 40 24          	movzbl 0x24(%eax),%eax
  303e71:	c0 e8 04             	shr    $0x4,%al
  303e74:	83 e0 01             	and    $0x1,%eax
  303e77:	0f b6 d8             	movzbl %al,%ebx
  303e7a:	8b 45 e4             	mov    -0x1c(%ebp),%eax
  303e7d:	0f b6 40 24          	movzbl 0x24(%eax),%eax
  303e81:	c0 e8 02             	shr    $0x2,%al
  303e84:	83 e0 01             	and    $0x1,%eax
  303e87:	0f b6 c8             	movzbl %al,%ecx
  303e8a:	8b 45 e4             	mov    -0x1c(%ebp),%eax
  303e8d:	0f b6 40 24          	movzbl 0x24(%eax),%eax
  303e91:	d0 e8                	shr    %al
  303e93:	83 e0 01             	and    $0x1,%eax
  303e96:	0f b6 d0             	movzbl %al,%edx
  303e99:	8b 45 e4             	mov    -0x1c(%ebp),%eax
  303e9c:	0f b6 40 24          	movzbl 0x24(%eax),%eax
  303ea0:	83 e0 01             	and    $0x1,%eax
  303ea3:	0f b6 c0             	movzbl %al,%eax
  303ea6:	83 ec 08             	sub    $0x8,%esp
  303ea9:	56                   	push   %esi
  303eaa:	53                   	push   %ebx
  303eab:	51                   	push   %ecx
  303eac:	52                   	push   %edx
  303ead:	50                   	push   %eax
  303eae:	68 6c 48 30 00       	push   $0x30486c
  303eb3:	e8 18 f2 ff ff       	call   3030d0 <printf>
  303eb8:	83 c4 20             	add    $0x20,%esp
  303ebb:	eb 5a                	jmp    303f17 <excp_hdlr+0x11f>
  303ebd:	8b 45 e4             	mov    -0x1c(%ebp),%eax
  303ec0:	0f b6 50 24          	movzbl 0x24(%eax),%edx
  303ec4:	c0 ea 03             	shr    $0x3,%dl
  303ec7:	0f b6 d2             	movzbl %dl,%edx
  303eca:	0f b6 40 25          	movzbl 0x25(%eax),%eax
  303ece:	c1 e0 05             	shl    $0x5,%eax
  303ed1:	09 d0                	or     %edx,%eax
  303ed3:	0f b7 d8             	movzwl %ax,%ebx
  303ed6:	8b 45 e4             	mov    -0x1c(%ebp),%eax
  303ed9:	0f b6 40 24          	movzbl 0x24(%eax),%eax
  303edd:	c0 e8 02             	shr    $0x2,%al
  303ee0:	83 e0 01             	and    $0x1,%eax
  303ee3:	0f b6 c8             	movzbl %al,%ecx
  303ee6:	8b 45 e4             	mov    -0x1c(%ebp),%eax
  303ee9:	0f b6 40 24          	movzbl 0x24(%eax),%eax
  303eed:	d0 e8                	shr    %al
  303eef:	83 e0 01             	and    $0x1,%eax
  303ef2:	0f b6 d0             	movzbl %al,%edx
  303ef5:	8b 45 e4             	mov    -0x1c(%ebp),%eax
  303ef8:	0f b6 40 24          	movzbl 0x24(%eax),%eax
  303efc:	83 e0 01             	and    $0x1,%eax
  303eff:	0f b6 c0             	movzbl %al,%eax
  303f02:	83 ec 0c             	sub    $0xc,%esp
  303f05:	53                   	push   %ebx
  303f06:	51                   	push   %ecx
  303f07:	52                   	push   %edx
  303f08:	50                   	push   %eax
  303f09:	68 9c 48 30 00       	push   $0x30489c
  303f0e:	e8 bd f1 ff ff       	call   3030d0 <printf>
  303f13:	83 c4 20             	add    $0x20,%esp
  303f16:	90                   	nop
  303f17:	0f 20 c0             	mov    %cr0,%eax
  303f1a:	89 45 f0             	mov    %eax,-0x10(%ebp)
  303f1d:	8b 45 f0             	mov    -0x10(%ebp),%eax
  303f20:	83 ec 08             	sub    $0x8,%esp
  303f23:	50                   	push   %eax
  303f24:	68 c7 48 30 00       	push   $0x3048c7
  303f29:	e8 a2 f1 ff ff       	call   3030d0 <printf>
  303f2e:	83 c4 10             	add    $0x10,%esp
  303f31:	0f 20 e0             	mov    %cr4,%eax
  303f34:	89 45 ec             	mov    %eax,-0x14(%ebp)
  303f37:	8b 45 ec             	mov    -0x14(%ebp),%eax
  303f3a:	83 ec 08             	sub    $0x8,%esp
  303f3d:	50                   	push   %eax
  303f3e:	68 d1 48 30 00       	push   $0x3048d1
  303f43:	e8 88 f1 ff ff       	call   3030d0 <printf>
  303f48:	83 c4 10             	add    $0x10,%esp
  303f4b:	8b 45 e4             	mov    -0x1c(%ebp),%eax
  303f4e:	8b 40 08             	mov    0x8(%eax),%eax
  303f51:	83 ec 0c             	sub    $0xc,%esp
  303f54:	50                   	push   %eax
  303f55:	e8 1a 00 00 00       	call   303f74 <stack_trace>
  303f5a:	83 c4 10             	add    $0x10,%esp
  303f5d:	83 ec 0c             	sub    $0xc,%esp
  303f60:	68 db 48 30 00       	push   $0x3048db
  303f65:	e8 3e f1 ff ff       	call   3030a8 <panic>
  303f6a:	83 c4 10             	add    $0x10,%esp
  303f6d:	8d 65 f8             	lea    -0x8(%ebp),%esp
  303f70:	5b                   	pop    %ebx
  303f71:	5e                   	pop    %esi
  303f72:	5d                   	pop    %ebp
  303f73:	c3                   	ret    

00303f74 <stack_trace>:
  303f74:	55                   	push   %ebp
  303f75:	89 e5                	mov    %esp,%ebp
  303f77:	83 ec 18             	sub    $0x18,%esp
  303f7a:	83 ec 0c             	sub    $0xc,%esp
  303f7d:	68 ee 48 30 00       	push   $0x3048ee
  303f82:	e8 49 f1 ff ff       	call   3030d0 <printf>
  303f87:	83 c4 10             	add    $0x10,%esp
  303f8a:	8b 45 08             	mov    0x8(%ebp),%eax
  303f8d:	89 45 f4             	mov    %eax,-0xc(%ebp)
  303f90:	eb 26                	jmp    303fb8 <stack_trace+0x44>
  303f92:	8b 45 f4             	mov    -0xc(%ebp),%eax
  303f95:	83 c0 04             	add    $0x4,%eax
  303f98:	8b 00                	mov    (%eax),%eax
  303f9a:	89 45 f0             	mov    %eax,-0x10(%ebp)
  303f9d:	8b 45 f4             	mov    -0xc(%ebp),%eax
  303fa0:	8b 00                	mov    (%eax),%eax
  303fa2:	89 45 f4             	mov    %eax,-0xc(%ebp)
  303fa5:	83 ec 08             	sub    $0x8,%esp
  303fa8:	ff 75 f0             	push   -0x10(%ebp)
  303fab:	68 02 49 30 00       	push   $0x304902
  303fb0:	e8 1b f1 ff ff       	call   3030d0 <printf>
  303fb5:	83 c4 10             	add    $0x10,%esp
  303fb8:	83 7d f4 00          	cmpl   $0x0,-0xc(%ebp)
  303fbc:	74 09                	je     303fc7 <stack_trace+0x53>
  303fbe:	81 7d f4 10 20 30 00 	cmpl   $0x302010,-0xc(%ebp)
  303fc5:	72 cb                	jb     303f92 <stack_trace+0x1e>
  303fc7:	90                   	nop
  303fc8:	c9                   	leave  
  303fc9:	c3                   	ret    

00303fca <bp_handler>:
  303fca:	55                   	push   %ebp
  303fcb:	89 e5                	mov    %esp,%ebp
  303fcd:	83 ec 08             	sub    $0x8,%esp
  303fd0:	83 ec 0c             	sub    $0xc,%esp
  303fd3:	68 06 49 30 00       	push   $0x304906
  303fd8:	e8 f3 f0 ff ff       	call   3030d0 <printf>
  303fdd:	83 c4 10             	add    $0x10,%esp
  303fe0:	90                   	nop
  303fe1:	c9                   	leave  
  303fe2:	c3                   	ret    

00303fe3 <bp_trigger>:
  303fe3:	55                   	push   %ebp
  303fe4:	89 e5                	mov    %esp,%ebp
  303fe6:	83 ec 18             	sub    $0x18,%esp
  303fe9:	8b 45 04             	mov    0x4(%ebp),%eax
  303fec:	89 45 f4             	mov    %eax,-0xc(%ebp)
  303fef:	83 ec 08             	sub    $0x8,%esp
  303ff2:	ff 75 f4             	push   -0xc(%ebp)
  303ff5:	68 10 49 30 00       	push   $0x304910
  303ffa:	e8 d1 f0 ff ff       	call   3030d0 <printf>
  303fff:	83 c4 10             	add    $0x10,%esp
  304002:	cc                   	int3   
  304003:	90                   	nop
  304004:	c9                   	leave  
  304005:	c3                   	ret    

00304006 <tp>:
  304006:	55                   	push   %ebp
  304007:	89 e5                	mov    %esp,%ebp
  304009:	53                   	push   %ebx
  30400a:	83 ec 14             	sub    $0x14,%esp
  30400d:	0f 01 4d f0          	sidtl  -0x10(%ebp)
  304011:	8b 45 f0             	mov    -0x10(%ebp),%eax
  304014:	83 ec 08             	sub    $0x8,%esp
  304017:	50                   	push   %eax
  304018:	68 14 49 30 00       	push   $0x304914
  30401d:	e8 ae f0 ff ff       	call   3030d0 <printf>
  304022:	83 c4 10             	add    $0x10,%esp
  304025:	0f 01 4d ea          	sidtl  -0x16(%ebp)
  304029:	8d 45 f0             	lea    -0x10(%ebp),%eax
  30402c:	83 ec 08             	sub    $0x8,%esp
  30402f:	50                   	push   %eax
  304030:	68 14 49 30 00       	push   $0x304914
  304035:	e8 96 f0 ff ff       	call   3030d0 <printf>
  30403a:	83 c4 10             	add    $0x10,%esp
  30403d:	c7 45 f4 ca 3f 30 00 	movl   $0x303fca,-0xc(%ebp)
  304044:	83 ec 08             	sub    $0x8,%esp
  304047:	ff 75 f4             	push   -0xc(%ebp)
  30404a:	68 22 49 30 00       	push   $0x304922
  30404f:	e8 7c f0 ff ff       	call   3030d0 <printf>
  304054:	83 c4 10             	add    $0x10,%esp
  304057:	ba ca 3f 30 00       	mov    $0x303fca,%edx
  30405c:	8b 45 ec             	mov    -0x14(%ebp),%eax
  30405f:	83 c0 18             	add    $0x18,%eax
  304062:	0f b7 ca             	movzwl %dx,%ecx
  304065:	0f b6 d9             	movzbl %cl,%ebx
  304068:	0f b6 08             	movzbl (%eax),%ecx
  30406b:	83 e1 00             	and    $0x0,%ecx
  30406e:	09 d9                	or     %ebx,%ecx
  304070:	88 08                	mov    %cl,(%eax)
  304072:	66 c1 ea 08          	shr    $0x8,%dx
  304076:	0f b7 ca             	movzwl %dx,%ecx
  304079:	0f b6 50 01          	movzbl 0x1(%eax),%edx
  30407d:	83 e2 00             	and    $0x0,%edx
  304080:	09 ca                	or     %ecx,%edx
  304082:	88 50 01             	mov    %dl,0x1(%eax)
  304085:	b8 ca 3f 30 00       	mov    $0x303fca,%eax
  30408a:	c1 e8 10             	shr    $0x10,%eax
  30408d:	89 c2                	mov    %eax,%edx
  30408f:	8b 45 ec             	mov    -0x14(%ebp),%eax
  304092:	83 c0 18             	add    $0x18,%eax
  304095:	0f b7 ca             	movzwl %dx,%ecx
  304098:	0f b6 d9             	movzbl %cl,%ebx
  30409b:	0f b6 48 06          	movzbl 0x6(%eax),%ecx
  30409f:	83 e1 00             	and    $0x0,%ecx
  3040a2:	09 d9                	or     %ebx,%ecx
  3040a4:	88 48 06             	mov    %cl,0x6(%eax)
  3040a7:	66 c1 ea 08          	shr    $0x8,%dx
  3040ab:	0f b7 ca             	movzwl %dx,%ecx
  3040ae:	0f b6 50 07          	movzbl 0x7(%eax),%edx
  3040b2:	83 e2 00             	and    $0x0,%edx
  3040b5:	09 ca                	or     %ecx,%edx
  3040b7:	88 50 07             	mov    %dl,0x7(%eax)
  3040ba:	e8 24 ff ff ff       	call   303fe3 <bp_trigger>
  3040bf:	83 ec 0c             	sub    $0xc,%esp
  3040c2:	68 36 49 30 00       	push   $0x304936
  3040c7:	e8 04 f0 ff ff       	call   3030d0 <printf>
  3040cc:	83 c4 10             	add    $0x10,%esp
  3040cf:	90                   	nop
  3040d0:	8b 5d fc             	mov    -0x4(%ebp),%ebx
  3040d3:	c9                   	leave  
  3040d4:	c3                   	ret    
  3040d5:	66 90                	xchg   %ax,%ax
  3040d7:	66 90                	xchg   %ax,%ax
  3040d9:	66 90                	xchg   %ax,%ax
  3040db:	66 90                	xchg   %ax,%ax
  3040dd:	66 90                	xchg   %ax,%ax
  3040df:	90                   	nop

003040e0 <__divdi3>:
  3040e0:	f3 0f 1e fb          	endbr32 
  3040e4:	55                   	push   %ebp
  3040e5:	57                   	push   %edi
  3040e6:	56                   	push   %esi
  3040e7:	53                   	push   %ebx
  3040e8:	83 ec 1c             	sub    $0x1c,%esp
  3040eb:	8b 5c 24 34          	mov    0x34(%esp),%ebx
  3040ef:	8b 4c 24 30          	mov    0x30(%esp),%ecx
  3040f3:	c7 44 24 08 00 00 00 	movl   $0x0,0x8(%esp)
  3040fa:	00 
  3040fb:	8b 44 24 38          	mov    0x38(%esp),%eax
  3040ff:	8b 54 24 3c          	mov    0x3c(%esp),%edx
  304103:	89 0c 24             	mov    %ecx,(%esp)
  304106:	89 dd                	mov    %ebx,%ebp
  304108:	89 5c 24 04          	mov    %ebx,0x4(%esp)
  30410c:	85 db                	test   %ebx,%ebx
  30410e:	79 18                	jns    304128 <__divdi3+0x48>
  304110:	f7 d9                	neg    %ecx
  304112:	c7 44 24 08 ff ff ff 	movl   $0xffffffff,0x8(%esp)
  304119:	ff 
  30411a:	83 d3 00             	adc    $0x0,%ebx
  30411d:	89 0c 24             	mov    %ecx,(%esp)
  304120:	f7 db                	neg    %ebx
  304122:	89 5c 24 04          	mov    %ebx,0x4(%esp)
  304126:	89 dd                	mov    %ebx,%ebp
  304128:	89 d3                	mov    %edx,%ebx
  30412a:	85 d2                	test   %edx,%edx
  30412c:	79 0d                	jns    30413b <__divdi3+0x5b>
  30412e:	f7 d8                	neg    %eax
  304130:	f7 54 24 08          	notl   0x8(%esp)
  304134:	83 d2 00             	adc    $0x0,%edx
  304137:	f7 da                	neg    %edx
  304139:	89 d3                	mov    %edx,%ebx
  30413b:	89 c7                	mov    %eax,%edi
  30413d:	8b 04 24             	mov    (%esp),%eax
  304140:	85 db                	test   %ebx,%ebx
  304142:	75 14                	jne    304158 <__divdi3+0x78>
  304144:	39 ef                	cmp    %ebp,%edi
  304146:	76 58                	jbe    3041a0 <__divdi3+0xc0>
  304148:	89 ea                	mov    %ebp,%edx
  30414a:	31 f6                	xor    %esi,%esi
  30414c:	f7 f7                	div    %edi
  30414e:	89 c5                	mov    %eax,%ebp
  304150:	eb 0e                	jmp    304160 <__divdi3+0x80>
  304152:	8d b6 00 00 00 00    	lea    0x0(%esi),%esi
  304158:	39 eb                	cmp    %ebp,%ebx
  30415a:	76 24                	jbe    304180 <__divdi3+0xa0>
  30415c:	31 f6                	xor    %esi,%esi
  30415e:	31 ed                	xor    %ebp,%ebp
  304160:	8b 4c 24 08          	mov    0x8(%esp),%ecx
  304164:	89 e8                	mov    %ebp,%eax
  304166:	89 f2                	mov    %esi,%edx
  304168:	85 c9                	test   %ecx,%ecx
  30416a:	74 07                	je     304173 <__divdi3+0x93>
  30416c:	f7 d8                	neg    %eax
  30416e:	83 d2 00             	adc    $0x0,%edx
  304171:	f7 da                	neg    %edx
  304173:	83 c4 1c             	add    $0x1c,%esp
  304176:	5b                   	pop    %ebx
  304177:	5e                   	pop    %esi
  304178:	5f                   	pop    %edi
  304179:	5d                   	pop    %ebp
  30417a:	c3                   	ret    
  30417b:	8d 74 26 00          	lea    0x0(%esi,%eiz,1),%esi
  30417f:	90                   	nop
  304180:	0f bd f3             	bsr    %ebx,%esi
  304183:	83 f6 1f             	xor    $0x1f,%esi
  304186:	75 38                	jne    3041c0 <__divdi3+0xe0>
  304188:	39 eb                	cmp    %ebp,%ebx
  30418a:	72 07                	jb     304193 <__divdi3+0xb3>
  30418c:	31 ed                	xor    %ebp,%ebp
  30418e:	3b 3c 24             	cmp    (%esp),%edi
  304191:	77 cd                	ja     304160 <__divdi3+0x80>
  304193:	bd 01 00 00 00       	mov    $0x1,%ebp
  304198:	eb c6                	jmp    304160 <__divdi3+0x80>
  30419a:	8d b6 00 00 00 00    	lea    0x0(%esi),%esi
  3041a0:	85 ff                	test   %edi,%edi
  3041a2:	75 0b                	jne    3041af <__divdi3+0xcf>
  3041a4:	b8 01 00 00 00       	mov    $0x1,%eax
  3041a9:	31 d2                	xor    %edx,%edx
  3041ab:	f7 f3                	div    %ebx
  3041ad:	89 c7                	mov    %eax,%edi
  3041af:	89 e8                	mov    %ebp,%eax
  3041b1:	31 d2                	xor    %edx,%edx
  3041b3:	f7 f7                	div    %edi
  3041b5:	89 c6                	mov    %eax,%esi
  3041b7:	8b 04 24             	mov    (%esp),%eax
  3041ba:	f7 f7                	div    %edi
  3041bc:	89 c5                	mov    %eax,%ebp
  3041be:	eb a0                	jmp    304160 <__divdi3+0x80>
  3041c0:	b8 20 00 00 00       	mov    $0x20,%eax
  3041c5:	89 f1                	mov    %esi,%ecx
  3041c7:	89 fa                	mov    %edi,%edx
  3041c9:	29 f0                	sub    %esi,%eax
  3041cb:	d3 e3                	shl    %cl,%ebx
  3041cd:	89 c1                	mov    %eax,%ecx
  3041cf:	d3 ea                	shr    %cl,%edx
  3041d1:	89 f1                	mov    %esi,%ecx
  3041d3:	09 da                	or     %ebx,%edx
  3041d5:	d3 e7                	shl    %cl,%edi
  3041d7:	89 eb                	mov    %ebp,%ebx
  3041d9:	89 c1                	mov    %eax,%ecx
  3041db:	d3 eb                	shr    %cl,%ebx
  3041dd:	89 54 24 0c          	mov    %edx,0xc(%esp)
  3041e1:	89 f1                	mov    %esi,%ecx
  3041e3:	8b 14 24             	mov    (%esp),%edx
  3041e6:	d3 e5                	shl    %cl,%ebp
  3041e8:	89 c1                	mov    %eax,%ecx
  3041ea:	d3 ea                	shr    %cl,%edx
  3041ec:	09 d5                	or     %edx,%ebp
  3041ee:	89 da                	mov    %ebx,%edx
  3041f0:	89 e8                	mov    %ebp,%eax
  3041f2:	f7 74 24 0c          	divl   0xc(%esp)
  3041f6:	89 d3                	mov    %edx,%ebx
  3041f8:	89 c5                	mov    %eax,%ebp
  3041fa:	f7 e7                	mul    %edi
  3041fc:	39 d3                	cmp    %edx,%ebx
  3041fe:	72 0f                	jb     30420f <__divdi3+0x12f>
  304200:	8b 3c 24             	mov    (%esp),%edi
  304203:	89 f1                	mov    %esi,%ecx
  304205:	d3 e7                	shl    %cl,%edi
  304207:	39 c7                	cmp    %eax,%edi
  304209:	73 07                	jae    304212 <__divdi3+0x132>
  30420b:	39 d3                	cmp    %edx,%ebx
  30420d:	75 03                	jne    304212 <__divdi3+0x132>
  30420f:	83 ed 01             	sub    $0x1,%ebp
  304212:	31 f6                	xor    %esi,%esi
  304214:	e9 47 ff ff ff       	jmp    304160 <__divdi3+0x80>
  304219:	66 90                	xchg   %ax,%ax
  30421b:	66 90                	xchg   %ax,%ax
  30421d:	66 90                	xchg   %ax,%ax
  30421f:	90                   	nop

00304220 <__moddi3>:
  304220:	f3 0f 1e fb          	endbr32 
  304224:	55                   	push   %ebp
  304225:	57                   	push   %edi
  304226:	56                   	push   %esi
  304227:	53                   	push   %ebx
  304228:	83 ec 1c             	sub    $0x1c,%esp
  30422b:	8b 54 24 34          	mov    0x34(%esp),%edx
  30422f:	8b 44 24 30          	mov    0x30(%esp),%eax
  304233:	c7 04 24 00 00 00 00 	movl   $0x0,(%esp)
  30423a:	8b 4c 24 38          	mov    0x38(%esp),%ecx
  30423e:	8b 5c 24 3c          	mov    0x3c(%esp),%ebx
  304242:	89 d6                	mov    %edx,%esi
  304244:	85 d2                	test   %edx,%edx
  304246:	79 10                	jns    304258 <__moddi3+0x38>
  304248:	f7 d8                	neg    %eax
  30424a:	c7 04 24 ff ff ff ff 	movl   $0xffffffff,(%esp)
  304251:	83 d2 00             	adc    $0x0,%edx
  304254:	f7 da                	neg    %edx
  304256:	89 d6                	mov    %edx,%esi
  304258:	89 df                	mov    %ebx,%edi
  30425a:	85 db                	test   %ebx,%ebx
  30425c:	79 09                	jns    304267 <__moddi3+0x47>
  30425e:	f7 d9                	neg    %ecx
  304260:	83 d3 00             	adc    $0x0,%ebx
  304263:	f7 db                	neg    %ebx
  304265:	89 df                	mov    %ebx,%edi
  304267:	89 44 24 04          	mov    %eax,0x4(%esp)
  30426b:	89 cb                	mov    %ecx,%ebx
  30426d:	89 c5                	mov    %eax,%ebp
  30426f:	85 ff                	test   %edi,%edi
  304271:	75 15                	jne    304288 <__moddi3+0x68>
  304273:	39 f3                	cmp    %esi,%ebx
  304275:	76 69                	jbe    3042e0 <__moddi3+0xc0>
  304277:	89 f2                	mov    %esi,%edx
  304279:	f7 f3                	div    %ebx
  30427b:	89 d7                	mov    %edx,%edi
  30427d:	31 ed                	xor    %ebp,%ebp
  30427f:	eb 0f                	jmp    304290 <__moddi3+0x70>
  304281:	8d b4 26 00 00 00 00 	lea    0x0(%esi,%eiz,1),%esi
  304288:	39 f7                	cmp    %esi,%edi
  30428a:	76 24                	jbe    3042b0 <__moddi3+0x90>
  30428c:	89 c7                	mov    %eax,%edi
  30428e:	89 f5                	mov    %esi,%ebp
  304290:	8b 04 24             	mov    (%esp),%eax
  304293:	85 c0                	test   %eax,%eax
  304295:	74 07                	je     30429e <__moddi3+0x7e>
  304297:	f7 df                	neg    %edi
  304299:	83 d5 00             	adc    $0x0,%ebp
  30429c:	f7 dd                	neg    %ebp
  30429e:	89 f8                	mov    %edi,%eax
  3042a0:	89 ea                	mov    %ebp,%edx
  3042a2:	83 c4 1c             	add    $0x1c,%esp
  3042a5:	5b                   	pop    %ebx
  3042a6:	5e                   	pop    %esi
  3042a7:	5f                   	pop    %edi
  3042a8:	5d                   	pop    %ebp
  3042a9:	c3                   	ret    
  3042aa:	8d b6 00 00 00 00    	lea    0x0(%esi),%esi
  3042b0:	0f bd c7             	bsr    %edi,%eax
  3042b3:	83 f0 1f             	xor    $0x1f,%eax
  3042b6:	89 44 24 08          	mov    %eax,0x8(%esp)
  3042ba:	75 44                	jne    304300 <__moddi3+0xe0>
  3042bc:	39 f7                	cmp    %esi,%edi
  3042be:	0f 82 cc 00 00 00    	jb     304390 <__moddi3+0x170>
  3042c4:	3b 5c 24 04          	cmp    0x4(%esp),%ebx
  3042c8:	0f 86 c2 00 00 00    	jbe    304390 <__moddi3+0x170>
  3042ce:	8b 7c 24 04          	mov    0x4(%esp),%edi
  3042d2:	89 f5                	mov    %esi,%ebp
  3042d4:	eb ba                	jmp    304290 <__moddi3+0x70>
  3042d6:	8d b4 26 00 00 00 00 	lea    0x0(%esi,%eiz,1),%esi
  3042dd:	8d 76 00             	lea    0x0(%esi),%esi
  3042e0:	85 db                	test   %ebx,%ebx
  3042e2:	75 0b                	jne    3042ef <__moddi3+0xcf>
  3042e4:	b8 01 00 00 00       	mov    $0x1,%eax
  3042e9:	31 d2                	xor    %edx,%edx
  3042eb:	f7 f7                	div    %edi
  3042ed:	89 c3                	mov    %eax,%ebx
  3042ef:	89 f0                	mov    %esi,%eax
  3042f1:	31 d2                	xor    %edx,%edx
  3042f3:	f7 f3                	div    %ebx
  3042f5:	89 e8                	mov    %ebp,%eax
  3042f7:	f7 f3                	div    %ebx
  3042f9:	eb 80                	jmp    30427b <__moddi3+0x5b>
  3042fb:	8d 74 26 00          	lea    0x0(%esi,%eiz,1),%esi
  3042ff:	90                   	nop
  304300:	8b 54 24 08          	mov    0x8(%esp),%edx
  304304:	b8 20 00 00 00       	mov    $0x20,%eax
  304309:	29 d0                	sub    %edx,%eax
  30430b:	89 d1                	mov    %edx,%ecx
  30430d:	89 c5                	mov    %eax,%ebp
  30430f:	d3 e7                	shl    %cl,%edi
  304311:	89 d8                	mov    %ebx,%eax
  304313:	89 e9                	mov    %ebp,%ecx
  304315:	d3 e8                	shr    %cl,%eax
  304317:	89 d1                	mov    %edx,%ecx
  304319:	d3 e3                	shl    %cl,%ebx
  30431b:	09 c7                	or     %eax,%edi
  30431d:	89 e9                	mov    %ebp,%ecx
  30431f:	89 d0                	mov    %edx,%eax
  304321:	89 f2                	mov    %esi,%edx
  304323:	89 5c 24 0c          	mov    %ebx,0xc(%esp)
  304327:	89 c3                	mov    %eax,%ebx
  304329:	d3 ea                	shr    %cl,%edx
  30432b:	89 c1                	mov    %eax,%ecx
  30432d:	8b 44 24 04          	mov    0x4(%esp),%eax
  304331:	d3 e6                	shl    %cl,%esi
  304333:	89 e9                	mov    %ebp,%ecx
  304335:	d3 e8                	shr    %cl,%eax
  304337:	89 d9                	mov    %ebx,%ecx
  304339:	09 f0                	or     %esi,%eax
  30433b:	8b 74 24 04          	mov    0x4(%esp),%esi
  30433f:	f7 f7                	div    %edi
  304341:	89 d3                	mov    %edx,%ebx
  304343:	d3 e6                	shl    %cl,%esi
  304345:	f7 64 24 0c          	mull   0xc(%esp)
  304349:	89 44 24 04          	mov    %eax,0x4(%esp)
  30434d:	89 d1                	mov    %edx,%ecx
  30434f:	39 d3                	cmp    %edx,%ebx
  304351:	72 06                	jb     304359 <__moddi3+0x139>
  304353:	75 10                	jne    304365 <__moddi3+0x145>
  304355:	39 c6                	cmp    %eax,%esi
  304357:	73 0c                	jae    304365 <__moddi3+0x145>
  304359:	2b 44 24 0c          	sub    0xc(%esp),%eax
  30435d:	19 fa                	sbb    %edi,%edx
  30435f:	89 44 24 04          	mov    %eax,0x4(%esp)
  304363:	89 d1                	mov    %edx,%ecx
  304365:	8b 54 24 08          	mov    0x8(%esp),%edx
  304369:	2b 74 24 04          	sub    0x4(%esp),%esi
  30436d:	19 cb                	sbb    %ecx,%ebx
  30436f:	89 e9                	mov    %ebp,%ecx
  304371:	89 d8                	mov    %ebx,%eax
  304373:	d3 e0                	shl    %cl,%eax
  304375:	89 d1                	mov    %edx,%ecx
  304377:	d3 ee                	shr    %cl,%esi
  304379:	d3 eb                	shr    %cl,%ebx
  30437b:	09 f0                	or     %esi,%eax
  30437d:	89 dd                	mov    %ebx,%ebp
  30437f:	89 c7                	mov    %eax,%edi
  304381:	e9 0a ff ff ff       	jmp    304290 <__moddi3+0x70>
  304386:	8d b4 26 00 00 00 00 	lea    0x0(%esi,%eiz,1),%esi
  30438d:	8d 76 00             	lea    0x0(%esi),%esi
  304390:	29 dd                	sub    %ebx,%ebp
  304392:	19 fe                	sbb    %edi,%esi
  304394:	89 6c 24 04          	mov    %ebp,0x4(%esp)
  304398:	e9 31 ff ff ff       	jmp    3042ce <__moddi3+0xae>
  30439d:	66 90                	xchg   %ax,%ax
  30439f:	90                   	nop

003043a0 <__udivdi3>:
  3043a0:	f3 0f 1e fb          	endbr32 
  3043a4:	55                   	push   %ebp
  3043a5:	57                   	push   %edi
  3043a6:	56                   	push   %esi
  3043a7:	53                   	push   %ebx
  3043a8:	83 ec 1c             	sub    $0x1c,%esp
  3043ab:	8b 44 24 3c          	mov    0x3c(%esp),%eax
  3043af:	8b 6c 24 30          	mov    0x30(%esp),%ebp
  3043b3:	8b 74 24 34          	mov    0x34(%esp),%esi
  3043b7:	8b 5c 24 38          	mov    0x38(%esp),%ebx
  3043bb:	85 c0                	test   %eax,%eax
  3043bd:	75 19                	jne    3043d8 <__udivdi3+0x38>
  3043bf:	39 f3                	cmp    %esi,%ebx
  3043c1:	76 4d                	jbe    304410 <__udivdi3+0x70>
  3043c3:	31 ff                	xor    %edi,%edi
  3043c5:	89 e8                	mov    %ebp,%eax
  3043c7:	89 f2                	mov    %esi,%edx
  3043c9:	f7 f3                	div    %ebx
  3043cb:	89 fa                	mov    %edi,%edx
  3043cd:	83 c4 1c             	add    $0x1c,%esp
  3043d0:	5b                   	pop    %ebx
  3043d1:	5e                   	pop    %esi
  3043d2:	5f                   	pop    %edi
  3043d3:	5d                   	pop    %ebp
  3043d4:	c3                   	ret    
  3043d5:	8d 76 00             	lea    0x0(%esi),%esi
  3043d8:	39 f0                	cmp    %esi,%eax
  3043da:	76 14                	jbe    3043f0 <__udivdi3+0x50>
  3043dc:	31 ff                	xor    %edi,%edi
  3043de:	31 c0                	xor    %eax,%eax
  3043e0:	89 fa                	mov    %edi,%edx
  3043e2:	83 c4 1c             	add    $0x1c,%esp
  3043e5:	5b                   	pop    %ebx
  3043e6:	5e                   	pop    %esi
  3043e7:	5f                   	pop    %edi
  3043e8:	5d                   	pop    %ebp
  3043e9:	c3                   	ret    
  3043ea:	8d b6 00 00 00 00    	lea    0x0(%esi),%esi
  3043f0:	0f bd f8             	bsr    %eax,%edi
  3043f3:	83 f7 1f             	xor    $0x1f,%edi
  3043f6:	75 48                	jne    304440 <__udivdi3+0xa0>
  3043f8:	39 f0                	cmp    %esi,%eax
  3043fa:	72 06                	jb     304402 <__udivdi3+0x62>
  3043fc:	31 c0                	xor    %eax,%eax
  3043fe:	39 eb                	cmp    %ebp,%ebx
  304400:	77 de                	ja     3043e0 <__udivdi3+0x40>
  304402:	b8 01 00 00 00       	mov    $0x1,%eax
  304407:	eb d7                	jmp    3043e0 <__udivdi3+0x40>
  304409:	8d b4 26 00 00 00 00 	lea    0x0(%esi,%eiz,1),%esi
  304410:	89 d9                	mov    %ebx,%ecx
  304412:	85 db                	test   %ebx,%ebx
  304414:	75 0b                	jne    304421 <__udivdi3+0x81>
  304416:	b8 01 00 00 00       	mov    $0x1,%eax
  30441b:	31 d2                	xor    %edx,%edx
  30441d:	f7 f3                	div    %ebx
  30441f:	89 c1                	mov    %eax,%ecx
  304421:	31 d2                	xor    %edx,%edx
  304423:	89 f0                	mov    %esi,%eax
  304425:	f7 f1                	div    %ecx
  304427:	89 c6                	mov    %eax,%esi
  304429:	89 e8                	mov    %ebp,%eax
  30442b:	89 f7                	mov    %esi,%edi
  30442d:	f7 f1                	div    %ecx
  30442f:	89 fa                	mov    %edi,%edx
  304431:	83 c4 1c             	add    $0x1c,%esp
  304434:	5b                   	pop    %ebx
  304435:	5e                   	pop    %esi
  304436:	5f                   	pop    %edi
  304437:	5d                   	pop    %ebp
  304438:	c3                   	ret    
  304439:	8d b4 26 00 00 00 00 	lea    0x0(%esi,%eiz,1),%esi
  304440:	89 f9                	mov    %edi,%ecx
  304442:	ba 20 00 00 00       	mov    $0x20,%edx
  304447:	29 fa                	sub    %edi,%edx
  304449:	d3 e0                	shl    %cl,%eax
  30444b:	89 44 24 08          	mov    %eax,0x8(%esp)
  30444f:	89 d1                	mov    %edx,%ecx
  304451:	89 d8                	mov    %ebx,%eax
  304453:	d3 e8                	shr    %cl,%eax
  304455:	8b 4c 24 08          	mov    0x8(%esp),%ecx
  304459:	09 c1                	or     %eax,%ecx
  30445b:	89 f0                	mov    %esi,%eax
  30445d:	89 4c 24 08          	mov    %ecx,0x8(%esp)
  304461:	89 f9                	mov    %edi,%ecx
  304463:	d3 e3                	shl    %cl,%ebx
  304465:	89 d1                	mov    %edx,%ecx
  304467:	d3 e8                	shr    %cl,%eax
  304469:	89 f9                	mov    %edi,%ecx
  30446b:	89 5c 24 0c          	mov    %ebx,0xc(%esp)
  30446f:	89 eb                	mov    %ebp,%ebx
  304471:	d3 e6                	shl    %cl,%esi
  304473:	89 d1                	mov    %edx,%ecx
  304475:	d3 eb                	shr    %cl,%ebx
  304477:	09 f3                	or     %esi,%ebx
  304479:	89 c6                	mov    %eax,%esi
  30447b:	89 f2                	mov    %esi,%edx
  30447d:	89 d8                	mov    %ebx,%eax
  30447f:	f7 74 24 08          	divl   0x8(%esp)
  304483:	89 d6                	mov    %edx,%esi
  304485:	89 c3                	mov    %eax,%ebx
  304487:	f7 64 24 0c          	mull   0xc(%esp)
  30448b:	39 d6                	cmp    %edx,%esi
  30448d:	72 19                	jb     3044a8 <__udivdi3+0x108>
  30448f:	89 f9                	mov    %edi,%ecx
  304491:	d3 e5                	shl    %cl,%ebp
  304493:	39 c5                	cmp    %eax,%ebp
  304495:	73 04                	jae    30449b <__udivdi3+0xfb>
  304497:	39 d6                	cmp    %edx,%esi
  304499:	74 0d                	je     3044a8 <__udivdi3+0x108>
  30449b:	89 d8                	mov    %ebx,%eax
  30449d:	31 ff                	xor    %edi,%edi
  30449f:	e9 3c ff ff ff       	jmp    3043e0 <__udivdi3+0x40>
  3044a4:	8d 74 26 00          	lea    0x0(%esi,%eiz,1),%esi
  3044a8:	8d 43 ff             	lea    -0x1(%ebx),%eax
  3044ab:	31 ff                	xor    %edi,%edi
  3044ad:	e9 2e ff ff ff       	jmp    3043e0 <__udivdi3+0x40>
  3044b2:	66 90                	xchg   %ax,%ax
  3044b4:	66 90                	xchg   %ax,%ax
  3044b6:	66 90                	xchg   %ax,%ax
  3044b8:	66 90                	xchg   %ax,%ax
  3044ba:	66 90                	xchg   %ax,%ax
  3044bc:	66 90                	xchg   %ax,%ax
  3044be:	66 90                	xchg   %ax,%ax

003044c0 <__umoddi3>:
  3044c0:	f3 0f 1e fb          	endbr32 
  3044c4:	55                   	push   %ebp
  3044c5:	57                   	push   %edi
  3044c6:	56                   	push   %esi
  3044c7:	53                   	push   %ebx
  3044c8:	83 ec 1c             	sub    $0x1c,%esp
  3044cb:	8b 74 24 30          	mov    0x30(%esp),%esi
  3044cf:	8b 5c 24 34          	mov    0x34(%esp),%ebx
  3044d3:	8b 7c 24 3c          	mov    0x3c(%esp),%edi
  3044d7:	8b 6c 24 38          	mov    0x38(%esp),%ebp
  3044db:	89 f0                	mov    %esi,%eax
  3044dd:	89 da                	mov    %ebx,%edx
  3044df:	85 ff                	test   %edi,%edi
  3044e1:	75 15                	jne    3044f8 <__umoddi3+0x38>
  3044e3:	39 dd                	cmp    %ebx,%ebp
  3044e5:	76 39                	jbe    304520 <__umoddi3+0x60>
  3044e7:	f7 f5                	div    %ebp
  3044e9:	89 d0                	mov    %edx,%eax
  3044eb:	31 d2                	xor    %edx,%edx
  3044ed:	83 c4 1c             	add    $0x1c,%esp
  3044f0:	5b                   	pop    %ebx
  3044f1:	5e                   	pop    %esi
  3044f2:	5f                   	pop    %edi
  3044f3:	5d                   	pop    %ebp
  3044f4:	c3                   	ret    
  3044f5:	8d 76 00             	lea    0x0(%esi),%esi
  3044f8:	39 df                	cmp    %ebx,%edi
  3044fa:	77 f1                	ja     3044ed <__umoddi3+0x2d>
  3044fc:	0f bd cf             	bsr    %edi,%ecx
  3044ff:	83 f1 1f             	xor    $0x1f,%ecx
  304502:	89 4c 24 04          	mov    %ecx,0x4(%esp)
  304506:	75 40                	jne    304548 <__umoddi3+0x88>
  304508:	39 df                	cmp    %ebx,%edi
  30450a:	72 04                	jb     304510 <__umoddi3+0x50>
  30450c:	39 f5                	cmp    %esi,%ebp
  30450e:	77 dd                	ja     3044ed <__umoddi3+0x2d>
  304510:	89 da                	mov    %ebx,%edx
  304512:	89 f0                	mov    %esi,%eax
  304514:	29 e8                	sub    %ebp,%eax
  304516:	19 fa                	sbb    %edi,%edx
  304518:	eb d3                	jmp    3044ed <__umoddi3+0x2d>
  30451a:	8d b6 00 00 00 00    	lea    0x0(%esi),%esi
  304520:	89 e9                	mov    %ebp,%ecx
  304522:	85 ed                	test   %ebp,%ebp
  304524:	75 0b                	jne    304531 <__umoddi3+0x71>
  304526:	b8 01 00 00 00       	mov    $0x1,%eax
  30452b:	31 d2                	xor    %edx,%edx
  30452d:	f7 f5                	div    %ebp
  30452f:	89 c1                	mov    %eax,%ecx
  304531:	89 d8                	mov    %ebx,%eax
  304533:	31 d2                	xor    %edx,%edx
  304535:	f7 f1                	div    %ecx
  304537:	89 f0                	mov    %esi,%eax
  304539:	f7 f1                	div    %ecx
  30453b:	89 d0                	mov    %edx,%eax
  30453d:	31 d2                	xor    %edx,%edx
  30453f:	eb ac                	jmp    3044ed <__umoddi3+0x2d>
  304541:	8d b4 26 00 00 00 00 	lea    0x0(%esi,%eiz,1),%esi
  304548:	8b 44 24 04          	mov    0x4(%esp),%eax
  30454c:	ba 20 00 00 00       	mov    $0x20,%edx
  304551:	29 c2                	sub    %eax,%edx
  304553:	89 c1                	mov    %eax,%ecx
  304555:	89 e8                	mov    %ebp,%eax
  304557:	d3 e7                	shl    %cl,%edi
  304559:	89 d1                	mov    %edx,%ecx
  30455b:	89 54 24 0c          	mov    %edx,0xc(%esp)
  30455f:	d3 e8                	shr    %cl,%eax
  304561:	89 c1                	mov    %eax,%ecx
  304563:	8b 44 24 04          	mov    0x4(%esp),%eax
  304567:	09 f9                	or     %edi,%ecx
  304569:	89 df                	mov    %ebx,%edi
  30456b:	89 4c 24 08          	mov    %ecx,0x8(%esp)
  30456f:	89 c1                	mov    %eax,%ecx
  304571:	d3 e5                	shl    %cl,%ebp
  304573:	89 d1                	mov    %edx,%ecx
  304575:	d3 ef                	shr    %cl,%edi
  304577:	89 c1                	mov    %eax,%ecx
  304579:	89 f0                	mov    %esi,%eax
  30457b:	d3 e3                	shl    %cl,%ebx
  30457d:	89 d1                	mov    %edx,%ecx
  30457f:	89 fa                	mov    %edi,%edx
  304581:	d3 e8                	shr    %cl,%eax
  304583:	0f b6 4c 24 04       	movzbl 0x4(%esp),%ecx
  304588:	09 d8                	or     %ebx,%eax
  30458a:	f7 74 24 08          	divl   0x8(%esp)
  30458e:	89 d3                	mov    %edx,%ebx
  304590:	d3 e6                	shl    %cl,%esi
  304592:	f7 e5                	mul    %ebp
  304594:	89 c7                	mov    %eax,%edi
  304596:	89 d1                	mov    %edx,%ecx
  304598:	39 d3                	cmp    %edx,%ebx
  30459a:	72 06                	jb     3045a2 <__umoddi3+0xe2>
  30459c:	75 0e                	jne    3045ac <__umoddi3+0xec>
  30459e:	39 c6                	cmp    %eax,%esi
  3045a0:	73 0a                	jae    3045ac <__umoddi3+0xec>
  3045a2:	29 e8                	sub    %ebp,%eax
  3045a4:	1b 54 24 08          	sbb    0x8(%esp),%edx
  3045a8:	89 d1                	mov    %edx,%ecx
  3045aa:	89 c7                	mov    %eax,%edi
  3045ac:	89 f5                	mov    %esi,%ebp
  3045ae:	8b 74 24 04          	mov    0x4(%esp),%esi
  3045b2:	29 fd                	sub    %edi,%ebp
  3045b4:	19 cb                	sbb    %ecx,%ebx
  3045b6:	0f b6 4c 24 0c       	movzbl 0xc(%esp),%ecx
  3045bb:	89 d8                	mov    %ebx,%eax
  3045bd:	d3 e0                	shl    %cl,%eax
  3045bf:	89 f1                	mov    %esi,%ecx
  3045c1:	d3 ed                	shr    %cl,%ebp
  3045c3:	d3 eb                	shr    %cl,%ebx
  3045c5:	09 e8                	or     %ebp,%eax
  3045c7:	89 da                	mov    %ebx,%edx
  3045c9:	83 c4 1c             	add    $0x1c,%esp
  3045cc:	5b                   	pop    %ebx
  3045cd:	5e                   	pop    %esi
  3045ce:	5f                   	pop    %edi
  3045cf:	5d                   	pop    %ebp
  3045d0:	c3                   	ret    

Déassemblage de la section .rodata :

003045d4 <.rodata>:
  3045d4:	0a 73 65             	or     0x65(%ebx),%dh
  3045d7:	63 6f 73             	arpl   %bp,0x73(%edi)
  3045da:	2d 33 65 30 38       	sub    $0x38306533,%eax
  3045df:	61                   	popa   
  3045e0:	39 33                	cmp    %esi,(%ebx)
  3045e2:	2d 37 62 63 62       	sub    $0x62636237,%eax
  3045e7:	32 61 65             	xor    0x65(%ecx),%ah
  3045ea:	20 28                	and    %ch,(%eax)
  3045ec:	63 29                	arpl   %bp,(%ecx)
  3045ee:	20 41 69             	and    %al,0x69(%ecx)
  3045f1:	72 62                	jb     304655 <__umoddi3+0x195>
  3045f3:	75 73                	jne    304668 <__umoddi3+0x1a8>
  3045f5:	0a 00                	or     (%eax),%al
  3045f7:	68 61 6c 74 65       	push   $0x65746c61
  3045fc:	64 20 21             	and    %ah,%fs:(%ecx)
  3045ff:	00 30                	add    %dh,(%eax)
  304601:	78 00                	js     304603 <__umoddi3+0x143>
  304603:	75 6e                	jne    304673 <__umoddi3+0x1b3>
  304605:	73 75                	jae    30467c <__umoddi3+0x1bc>
  304607:	70 70                	jo     304679 <__umoddi3+0x1b9>
  304609:	6f                   	outsl  %ds:(%esi),(%dx)
  30460a:	72 74                	jb     304680 <__umoddi3+0x1c0>
  30460c:	65 64 20 66 6f       	gs and %ah,%fs:0x6f(%esi)
  304611:	72 6d                	jb     304680 <__umoddi3+0x1c0>
  304613:	61                   	popa   
  304614:	74 20                	je     304636 <__umoddi3+0x176>
  304616:	61                   	popa   
  304617:	72 67                	jb     304680 <__umoddi3+0x1c0>
  304619:	20 27                	and    %ah,(%edi)
  30461b:	25 63 27 0a 00       	and    $0xa2763,%eax
  304620:	0a 49 44             	or     0x44(%ecx),%cl
  304623:	54                   	push   %esp
  304624:	20 65 76             	and    %ah,0x76(%ebp)
  304627:	65 6e                	outsb  %gs:(%esi),(%dx)
  304629:	74 0a                	je     304635 <__umoddi3+0x175>
  30462b:	20 2e                	and    %ch,(%esi)
  30462d:	20 69 6e             	and    %ch,0x6e(%ecx)
  304630:	74 20                	je     304652 <__umoddi3+0x192>
  304632:	20 20                	and    %ah,(%eax)
  304634:	20 23                	and    %ah,(%ebx)
  304636:	25 64 0a 20 2e       	and    $0x2e200a64,%eax
  30463b:	20 65 72             	and    %ah,0x72(%ebp)
  30463e:	72 6f                	jb     3046af <__umoddi3+0x1ef>
  304640:	72 20                	jb     304662 <__umoddi3+0x1a2>
  304642:	20 30                	and    %dh,(%eax)
  304644:	78 25                	js     30466b <__umoddi3+0x1ab>
  304646:	78 0a                	js     304652 <__umoddi3+0x192>
  304648:	20 2e                	and    %ch,(%esi)
  30464a:	20 63 73             	and    %ah,0x73(%ebx)
  30464d:	3a 65 69             	cmp    0x69(%ebp),%ah
  304650:	70 20                	jo     304672 <__umoddi3+0x1b2>
  304652:	30 78 25             	xor    %bh,0x25(%eax)
  304655:	78 3a                	js     304691 <__umoddi3+0x1d1>
  304657:	30 78 25             	xor    %bh,0x25(%eax)
  30465a:	78 0a                	js     304666 <__umoddi3+0x1a6>
  30465c:	20 2e                	and    %ch,(%esi)
  30465e:	20 73 73             	and    %dh,0x73(%ebx)
  304661:	3a 65 73             	cmp    0x73(%ebp),%ah
  304664:	70 20                	jo     304686 <__umoddi3+0x1c6>
  304666:	30 78 25             	xor    %bh,0x25(%eax)
  304669:	78 3a                	js     3046a5 <__umoddi3+0x1e5>
  30466b:	30 78 25             	xor    %bh,0x25(%eax)
  30466e:	78 0a                	js     30467a <__umoddi3+0x1ba>
  304670:	20 2e                	and    %ch,(%esi)
  304672:	20 65 66             	and    %ah,0x66(%ebp)
  304675:	6c                   	insb   (%dx),%es:(%edi)
  304676:	61                   	popa   
  304677:	67 73 20             	addr16 jae 30469a <__umoddi3+0x1da>
  30467a:	30 78 25             	xor    %bh,0x25(%eax)
  30467d:	78 0a                	js     304689 <__umoddi3+0x1c9>
  30467f:	0a 2d 20 47 50 52    	or     0x52504720,%ch
  304685:	0a 65 61             	or     0x61(%ebp),%ah
  304688:	78 20                	js     3046aa <__umoddi3+0x1ea>
  30468a:	20 20                	and    %ah,(%eax)
  30468c:	20 20                	and    %ah,(%eax)
  30468e:	3a 20                	cmp    (%eax),%ah
  304690:	30 78 25             	xor    %bh,0x25(%eax)
  304693:	78 0a                	js     30469f <__umoddi3+0x1df>
  304695:	65 63 78 20          	arpl   %di,%gs:0x20(%eax)
  304699:	20 20                	and    %ah,(%eax)
  30469b:	20 20                	and    %ah,(%eax)
  30469d:	3a 20                	cmp    (%eax),%ah
  30469f:	30 78 25             	xor    %bh,0x25(%eax)
  3046a2:	78 0a                	js     3046ae <__umoddi3+0x1ee>
  3046a4:	65 64 78 20          	gs fs js 3046c8 <__umoddi3+0x208>
  3046a8:	20 20                	and    %ah,(%eax)
  3046aa:	20 20                	and    %ah,(%eax)
  3046ac:	3a 20                	cmp    (%eax),%ah
  3046ae:	30 78 25             	xor    %bh,0x25(%eax)
  3046b1:	78 0a                	js     3046bd <__umoddi3+0x1fd>
  3046b3:	65 62 78 20          	bound  %edi,%gs:0x20(%eax)
  3046b7:	20 20                	and    %ah,(%eax)
  3046b9:	20 20                	and    %ah,(%eax)
  3046bb:	3a 20                	cmp    (%eax),%ah
  3046bd:	30 78 25             	xor    %bh,0x25(%eax)
  3046c0:	78 0a                	js     3046cc <__umoddi3+0x20c>
  3046c2:	65 73 70             	gs jae 304735 <__umoddi3+0x275>
  3046c5:	20 20                	and    %ah,(%eax)
  3046c7:	20 20                	and    %ah,(%eax)
  3046c9:	20 3a                	and    %bh,(%edx)
  3046cb:	20 30                	and    %dh,(%eax)
  3046cd:	78 25                	js     3046f4 <__umoddi3+0x234>
  3046cf:	78 0a                	js     3046db <__umoddi3+0x21b>
  3046d1:	65 62 70 20          	bound  %esi,%gs:0x20(%eax)
  3046d5:	20 20                	and    %ah,(%eax)
  3046d7:	20 20                	and    %ah,(%eax)
  3046d9:	3a 20                	cmp    (%eax),%ah
  3046db:	30 78 25             	xor    %bh,0x25(%eax)
  3046de:	78 0a                	js     3046ea <__umoddi3+0x22a>
  3046e0:	65 73 69             	gs jae 30474c <__umoddi3+0x28c>
  3046e3:	20 20                	and    %ah,(%eax)
  3046e5:	20 20                	and    %ah,(%eax)
  3046e7:	20 3a                	and    %bh,(%edx)
  3046e9:	20 30                	and    %dh,(%eax)
  3046eb:	78 25                	js     304712 <__umoddi3+0x252>
  3046ed:	78 0a                	js     3046f9 <__umoddi3+0x239>
  3046ef:	65 64 69 20 20 20 20 	gs imul $0x20202020,%fs:(%eax),%esp
  3046f6:	20 
  3046f7:	3a 20                	cmp    (%eax),%ah
  3046f9:	30 78 25             	xor    %bh,0x25(%eax)
  3046fc:	78 0a                	js     304708 <__umoddi3+0x248>
  3046fe:	00 69 67             	add    %ch,0x67(%ecx)
  304701:	6e                   	outsb  %ds:(%esi),(%dx)
  304702:	6f                   	outsl  %ds:(%esi),(%dx)
  304703:	72 65                	jb     30476a <__umoddi3+0x2aa>
  304705:	20 49 52             	and    %cl,0x52(%ecx)
  304708:	51                   	push   %ecx
  304709:	20 25 64 0a 00 00    	and    %ah,0xa64
  30470f:	00 44 69 76          	add    %al,0x76(%ecx,%ebp,2)
  304713:	69 64 65 20 62 79 20 	imul   $0x7a207962,0x20(%ebp,%eiz,2),%esp
  30471a:	7a 
  30471b:	65 72 6f             	gs jb  30478d <__umoddi3+0x2cd>
  30471e:	00 44 65 62          	add    %al,0x62(%ebp,%eiz,2)
  304722:	75 67                	jne    30478b <__umoddi3+0x2cb>
  304724:	00 4e 4d             	add    %cl,0x4d(%esi)
  304727:	49                   	dec    %ecx
  304728:	20 69 6e             	and    %ch,0x6e(%ecx)
  30472b:	74 65                	je     304792 <__umoddi3+0x2d2>
  30472d:	72 72                	jb     3047a1 <__umoddi3+0x2e1>
  30472f:	75 70                	jne    3047a1 <__umoddi3+0x2e1>
  304731:	74 00                	je     304733 <__umoddi3+0x273>
  304733:	42                   	inc    %edx
  304734:	72 65                	jb     30479b <__umoddi3+0x2db>
  304736:	61                   	popa   
  304737:	6b 70 6f 69          	imul   $0x69,0x6f(%eax),%esi
  30473b:	6e                   	outsb  %ds:(%esi),(%dx)
  30473c:	74 00                	je     30473e <__umoddi3+0x27e>
  30473e:	4f                   	dec    %edi
  30473f:	76 65                	jbe    3047a6 <__umoddi3+0x2e6>
  304741:	72 66                	jb     3047a9 <__umoddi3+0x2e9>
  304743:	6c                   	insb   (%dx),%es:(%edi)
  304744:	6f                   	outsl  %ds:(%esi),(%dx)
  304745:	77 00                	ja     304747 <__umoddi3+0x287>
  304747:	42                   	inc    %edx
  304748:	4f                   	dec    %edi
  304749:	55                   	push   %ebp
  30474a:	4e                   	dec    %esi
  30474b:	44                   	inc    %esp
  30474c:	20 72 61             	and    %dh,0x61(%edx)
  30474f:	6e                   	outsb  %ds:(%esi),(%dx)
  304750:	67 65 20 65 78       	and    %ah,%gs:0x78(%di)
  304755:	63 65 65             	arpl   %sp,0x65(%ebp)
  304758:	64 65 64 00 49 6e    	fs gs add %cl,%fs:0x6e(%ecx)
  30475e:	76 61                	jbe    3047c1 <__umoddi3+0x301>
  304760:	6c                   	insb   (%dx),%es:(%edi)
  304761:	69 64 20 4f 70 63 6f 	imul   $0x646f6370,0x4f(%eax,%eiz,1),%esp
  304768:	64 
  304769:	65 00 44 65 76       	add    %al,%gs:0x76(%ebp,%eiz,2)
  30476e:	69 63 65 20 6e 6f 74 	imul   $0x746f6e20,0x65(%ebx),%esp
  304775:	20 61 76             	and    %ah,0x76(%ecx)
  304778:	61                   	popa   
  304779:	69 6c 61 62 6c 65 00 	imul   $0x4400656c,0x62(%ecx,%eiz,2),%ebp
  304780:	44 
  304781:	6f                   	outsl  %ds:(%esi),(%dx)
  304782:	75 62                	jne    3047e6 <__umoddi3+0x326>
  304784:	6c                   	insb   (%dx),%es:(%edi)
  304785:	65 20 66 61          	and    %ah,%gs:0x61(%esi)
  304789:	75 6c                	jne    3047f7 <__umoddi3+0x337>
  30478b:	74 00                	je     30478d <__umoddi3+0x2cd>
  30478d:	43                   	inc    %ebx
  30478e:	6f                   	outsl  %ds:(%esi),(%dx)
  30478f:	70 72                	jo     304803 <__umoddi3+0x343>
  304791:	6f                   	outsl  %ds:(%esi),(%dx)
  304792:	63 65 73             	arpl   %sp,0x73(%ebp)
  304795:	73 6f                	jae    304806 <__umoddi3+0x346>
  304797:	72 20                	jb     3047b9 <__umoddi3+0x2f9>
  304799:	73 65                	jae    304800 <__umoddi3+0x340>
  30479b:	67 6d                	insl   (%dx),%es:(%di)
  30479d:	65 6e                	outsb  %gs:(%esi),(%dx)
  30479f:	74 20                	je     3047c1 <__umoddi3+0x301>
  3047a1:	6f                   	outsl  %ds:(%esi),(%dx)
  3047a2:	76 65                	jbe    304809 <__umoddi3+0x349>
  3047a4:	72 72                	jb     304818 <__umoddi3+0x358>
  3047a6:	75 6e                	jne    304816 <__umoddi3+0x356>
  3047a8:	00 49 6e             	add    %cl,0x6e(%ecx)
  3047ab:	76 61                	jbe    30480e <__umoddi3+0x34e>
  3047ad:	6c                   	insb   (%dx),%es:(%edi)
  3047ae:	69 64 20 54 53 53 00 	imul   $0x53005353,0x54(%eax,%eiz,1),%esp
  3047b5:	53 
  3047b6:	65 67 6d             	gs insl (%dx),%es:(%di)
  3047b9:	65 6e                	outsb  %gs:(%esi),(%dx)
  3047bb:	74 20                	je     3047dd <__umoddi3+0x31d>
  3047bd:	6e                   	outsb  %ds:(%esi),(%dx)
  3047be:	6f                   	outsl  %ds:(%esi),(%dx)
  3047bf:	74 20                	je     3047e1 <__umoddi3+0x321>
  3047c1:	70 72                	jo     304835 <__umoddi3+0x375>
  3047c3:	65 73 65             	gs jae 30482b <__umoddi3+0x36b>
  3047c6:	6e                   	outsb  %ds:(%esi),(%dx)
  3047c7:	74 00                	je     3047c9 <__umoddi3+0x309>
  3047c9:	53                   	push   %ebx
  3047ca:	74 61                	je     30482d <__umoddi3+0x36d>
  3047cc:	63 6b 20             	arpl   %bp,0x20(%ebx)
  3047cf:	66 61                	popaw  
  3047d1:	75 6c                	jne    30483f <__umoddi3+0x37f>
  3047d3:	74 00                	je     3047d5 <__umoddi3+0x315>
  3047d5:	47                   	inc    %edi
  3047d6:	65 6e                	outsb  %gs:(%esi),(%dx)
  3047d8:	65 72 61             	gs jb  30483c <__umoddi3+0x37c>
  3047db:	6c                   	insb   (%dx),%es:(%edi)
  3047dc:	20 70 72             	and    %dh,0x72(%eax)
  3047df:	6f                   	outsl  %ds:(%esi),(%dx)
  3047e0:	74 65                	je     304847 <__umoddi3+0x387>
  3047e2:	63 74 69 6f          	arpl   %si,0x6f(%ecx,%ebp,2)
  3047e6:	6e                   	outsb  %ds:(%esi),(%dx)
  3047e7:	00 50 61             	add    %dl,0x61(%eax)
  3047ea:	67 65 20 66 61       	and    %ah,%gs:0x61(%bp)
  3047ef:	75 6c                	jne    30485d <__umoddi3+0x39d>
  3047f1:	74 00                	je     3047f3 <__umoddi3+0x333>
  3047f3:	49                   	dec    %ecx
  3047f4:	6e                   	outsb  %ds:(%esi),(%dx)
  3047f5:	74 65                	je     30485c <__umoddi3+0x39c>
  3047f7:	6c                   	insb   (%dx),%es:(%edi)
  3047f8:	20 52 65             	and    %dl,0x65(%edx)
  3047fb:	73 65                	jae    304862 <__umoddi3+0x3a2>
  3047fd:	72 76                	jb     304875 <__umoddi3+0x3b5>
  3047ff:	65 64 00 46 6c       	gs add %al,%fs:0x6c(%esi)
  304804:	6f                   	outsl  %ds:(%esi),(%dx)
  304805:	61                   	popa   
  304806:	74 69                	je     304871 <__umoddi3+0x3b1>
  304808:	6e                   	outsb  %ds:(%esi),(%dx)
  304809:	67 20 70 6f          	and    %dh,0x6f(%bx,%si)
  30480d:	69 6e 74 20 65 72 72 	imul   $0x72726520,0x74(%esi),%ebp
  304814:	6f                   	outsl  %ds:(%esi),(%dx)
  304815:	72 00                	jb     304817 <__umoddi3+0x357>
  304817:	41                   	inc    %ecx
  304818:	6c                   	insb   (%dx),%es:(%edi)
  304819:	69 67 6e 6d 65 6e 74 	imul   $0x746e656d,0x6e(%edi),%esp
  304820:	20 63 68             	and    %ah,0x68(%ebx)
  304823:	65 63 6b 00          	arpl   %bp,%gs:0x0(%ebx)
  304827:	4d                   	dec    %ebp
  304828:	61                   	popa   
  304829:	63 68 69             	arpl   %bp,0x69(%eax)
  30482c:	6e                   	outsb  %ds:(%esi),(%dx)
  30482d:	65 20 63 68          	and    %ah,%gs:0x68(%ebx)
  304831:	65 63 6b 00          	arpl   %bp,%gs:0x0(%ebx)
  304835:	53                   	push   %ebx
  304836:	49                   	dec    %ecx
  304837:	4d                   	dec    %ebp
  304838:	44                   	inc    %esp
  304839:	20 66 6c             	and    %ah,0x6c(%esi)
  30483c:	6f                   	outsl  %ds:(%esi),(%dx)
  30483d:	61                   	popa   
  30483e:	74 69                	je     3048a9 <__umoddi3+0x3e9>
  304840:	6e                   	outsb  %ds:(%esi),(%dx)
  304841:	67 20 70 6f          	and    %dh,0x6f(%bx,%si)
  304845:	69 6e 74 00 0a 45 78 	imul   $0x78450a00,0x74(%esi),%ebp
  30484c:	63 65 70             	arpl   %sp,0x70(%ebp)
  30484f:	74 69                	je     3048ba <__umoddi3+0x3fa>
  304851:	6f                   	outsl  %ds:(%esi),(%dx)
  304852:	6e                   	outsb  %ds:(%esi),(%dx)
  304853:	3a 20                	cmp    (%eax),%ah
  304855:	25 73 0a 00 23       	and    $0x23000a73,%eax
  30485a:	4e                   	dec    %esi
  30485b:	4d                   	dec    %ebp
  30485c:	49                   	dec    %ecx
  30485d:	20 28                	and    %ch,(%eax)
  30485f:	69 67 6e 6f 72 65 64 	imul   $0x6465726f,0x6e(%edi),%esp
  304866:	29 0a                	sub    %ecx,(%edx)
  304868:	00 00                	add    %al,(%eax)
  30486a:	00 00                	add    %al,(%eax)
  30486c:	23 50 46             	and    0x46(%eax),%edx
  30486f:	20 64 65 74          	and    %ah,0x74(%ebp,%eiz,2)
  304873:	61                   	popa   
  304874:	69 6c 73 3a 20 70 3a 	imul   $0x253a7020,0x3a(%ebx,%esi,2),%ebp
  30487b:	25 
  30487c:	64 20 77 72          	and    %dh,%fs:0x72(%edi)
  304880:	3a 25 64 20 75 73    	cmp    0x73752064,%ah
  304886:	3a 25 64 20 69 64    	cmp    0x64692064,%ah
  30488c:	3a 25 64 20 61 64    	cmp    0x64612064,%ah
  304892:	64 72 20             	fs jb  3048b5 <__umoddi3+0x3f5>
  304895:	30 78 25             	xor    %bh,0x25(%eax)
  304898:	78 0a                	js     3048a4 <__umoddi3+0x3e4>
  30489a:	00 00                	add    %al,(%eax)
  30489c:	23 47 50             	and    0x50(%edi),%eax
  30489f:	20 64 65 74          	and    %ah,0x74(%ebp,%eiz,2)
  3048a3:	61                   	popa   
  3048a4:	69 6c 73 3a 20 65 78 	imul   $0x74786520,0x3a(%ebx,%esi,2),%ebp
  3048ab:	74 
  3048ac:	3a 25 64 20 69 64    	cmp    0x64692064,%ah
  3048b2:	74 3a                	je     3048ee <__umoddi3+0x42e>
  3048b4:	25 64 20 74 69       	and    $0x69742064,%eax
  3048b9:	3a 25 64 20 69 6e    	cmp    0x6e692064,%ah
  3048bf:	64 65 78 3a          	fs gs js 3048fd <__umoddi3+0x43d>
  3048c3:	25 64 0a 00 63       	and    $0x63000a64,%eax
  3048c8:	72 30                	jb     3048fa <__umoddi3+0x43a>
  3048ca:	20 3d 20 25 70 0a    	and    %bh,0xa702520
  3048d0:	00 63 72             	add    %ah,0x72(%ebx)
  3048d3:	34 20                	xor    $0x20,%al
  3048d5:	3d 20 25 70 0a       	cmp    $0xa702520,%eax
  3048da:	00 66 61             	add    %ah,0x61(%esi)
  3048dd:	74 61                	je     304940 <__umoddi3+0x480>
  3048df:	6c                   	insb   (%dx),%es:(%edi)
  3048e0:	20 65 78             	and    %ah,0x78(%ebp)
  3048e3:	63 65 70             	arpl   %sp,0x70(%ebp)
  3048e6:	74 69                	je     304951 <__umoddi3+0x491>
  3048e8:	6f                   	outsl  %ds:(%esi),(%dx)
  3048e9:	6e                   	outsb  %ds:(%esi),(%dx)
  3048ea:	20 21                	and    %ah,(%ecx)
  3048ec:	0a 00                	or     (%eax),%al
  3048ee:	0a 2d 3d 20 53 74    	or     0x7453203d,%ch
  3048f4:	61                   	popa   
  3048f5:	63 6b 20             	arpl   %bp,0x20(%ebx)
  3048f8:	54                   	push   %esp
  3048f9:	72 61                	jb     30495c <__umoddi3+0x49c>
  3048fb:	63 65 20             	arpl   %sp,0x20(%ebp)
  3048fe:	3d 2d 0a 00 25       	cmp    $0x25000a2d,%eax
  304903:	70 0a                	jo     30490f <__umoddi3+0x44f>
  304905:	00 57 4f             	add    %dl,0x4f(%edi)
  304908:	57                   	push   %edi
  304909:	20 42 50             	and    %al,0x50(%edx)
  30490c:	20 42 50             	and    %al,0x50(%edx)
  30490f:	00 25 78 0a 00 49    	add    %ah,0x49000a78
  304915:	44                   	inc    %esp
  304916:	54                   	push   %esp
  304917:	20 41 64             	and    %al,0x64(%ecx)
  30491a:	64 20 30             	and    %dh,%fs:(%eax)
  30491d:	78 25                	js     304944 <__umoddi3+0x484>
  30491f:	78 0a                	js     30492b <__umoddi3+0x46b>
  304921:	00 42 50             	add    %al,0x50(%edx)
  304924:	48                   	dec    %eax
  304925:	61                   	popa   
  304926:	6e                   	outsb  %ds:(%esi),(%dx)
  304927:	64 6c                	fs insb (%dx),%es:(%edi)
  304929:	65 72 20             	gs jb  30494c <__umoddi3+0x48c>
  30492c:	41                   	inc    %ecx
  30492d:	64 64 20 30          	fs and %dh,%fs:(%eax)
  304931:	78 25                	js     304958 <__umoddi3+0x498>
  304933:	78 0a                	js     30493f <__umoddi3+0x47f>
  304935:	00 42 69             	add    %al,0x69(%edx)
  304938:	65 6e                	outsb  %gs:(%esi),(%dx)
  30493a:	20 72 65             	and    %dh,0x65(%edx)
  30493d:	76 65                	jbe    3049a4 <exception_names+0x24>
  30493f:	6e                   	outsb  %ds:(%esi),(%dx)
  304940:	75 00                	jne    304942 <__umoddi3+0x482>

Déassemblage de la section .data :

00304960 <info>:
  304960:	e0 49                	loopne 3049ab <exception_names+0x2b>
  304962:	30 00                	xor    %al,(%eax)

00304964 <__hextable>:
  304964:	30 31                	xor    %dh,(%ecx)
  304966:	32 33                	xor    (%ebx),%dh
  304968:	34 35                	xor    $0x35,%al
  30496a:	36 37                	ss aaa 
  30496c:	38 39                	cmp    %bh,(%ecx)
  30496e:	61                   	popa   
  30496f:	62 63 64             	bound  %esp,0x64(%ebx)
  304972:	65 66 00 00          	data16 add %al,%gs:(%eax)
	...

00304980 <exception_names>:
  304980:	10 47 30             	adc    %al,0x30(%edi)
  304983:	00 1f                	add    %bl,(%edi)
  304985:	47                   	inc    %edi
  304986:	30 00                	xor    %al,(%eax)
  304988:	25 47 30 00 33       	and    $0x33003047,%eax
  30498d:	47                   	inc    %edi
  30498e:	30 00                	xor    %al,(%eax)
  304990:	3e 47                	ds inc %edi
  304992:	30 00                	xor    %al,(%eax)
  304994:	47                   	inc    %edi
  304995:	47                   	inc    %edi
  304996:	30 00                	xor    %al,(%eax)
  304998:	5c                   	pop    %esp
  304999:	47                   	inc    %edi
  30499a:	30 00                	xor    %al,(%eax)
  30499c:	6b 47 30 00          	imul   $0x0,0x30(%edi),%eax
  3049a0:	80 47 30 00          	addb   $0x0,0x30(%edi)
  3049a4:	8d 47 30             	lea    0x30(%edi),%eax
  3049a7:	00 a9 47 30 00 b5    	add    %ch,-0x4affcfb9(%ecx)
  3049ad:	47                   	inc    %edi
  3049ae:	30 00                	xor    %al,(%eax)
  3049b0:	c9                   	leave  
  3049b1:	47                   	inc    %edi
  3049b2:	30 00                	xor    %al,(%eax)
  3049b4:	d5 47                	aad    $0x47
  3049b6:	30 00                	xor    %al,(%eax)
  3049b8:	e8 47 30 00 f3       	call   f3307a04 <__kernel_end__+0xf3002404>
  3049bd:	47                   	inc    %edi
  3049be:	30 00                	xor    %al,(%eax)
  3049c0:	02 48 30             	add    0x30(%eax),%cl
  3049c3:	00 17                	add    %dl,(%edi)
  3049c5:	48                   	dec    %eax
  3049c6:	30 00                	xor    %al,(%eax)
  3049c8:	27                   	daa    
  3049c9:	48                   	dec    %eax
  3049ca:	30 00                	xor    %al,(%eax)
  3049cc:	35                   	.byte 0x35
  3049cd:	48                   	dec    %eax
  3049ce:	30 00                	xor    %al,(%eax)

Déassemblage de la section .bss :

003049e0 <__info>:
	...

00304a00 <vprint_buffer>:
	...

00304e00 <IDT>:
	...

Déassemblage de la section .debug_line :

00000000 <.debug_line>:
   0:	4c                   	dec    %esp
   1:	00 00                	add    %al,(%eax)
   3:	00 05 00 04 00 2e    	add    %al,0x2e000400
   9:	00 00                	add    %al,(%eax)
   b:	00 01                	add    %al,(%ecx)
   d:	01 01                	add    %eax,(%ecx)
   f:	fb                   	sti    
  10:	0e                   	push   %cs
  11:	0d 00 01 01 01       	or     $0x1010100,%eax
  16:	01 00                	add    %eax,(%eax)
  18:	00 00                	add    %al,(%eax)
  1a:	01 00                	add    %eax,(%eax)
  1c:	00 01                	add    %al,(%ecx)
  1e:	01 01                	add    %eax,(%ecx)
  20:	1f                   	pop    %ds
  21:	02 00                	add    (%eax),%al
  23:	00 00                	add    %al,(%eax)
  25:	00 13                	add    %dl,(%ebx)
  27:	00 00                	add    %al,(%eax)
  29:	00 02                	add    %al,(%edx)
  2b:	01 1f                	add    %ebx,(%edi)
  2d:	02 0f                	add    (%edi),%cl
  2f:	02 22                	add    (%edx),%ah
  31:	00 00                	add    %al,(%eax)
  33:	00 01                	add    %al,(%ecx)
  35:	22 00                	and    (%eax),%al
  37:	00 00                	add    %al,(%eax)
  39:	01 00                	add    %eax,(%eax)
  3b:	05 02 10 30 30       	add    $0x30301002,%eax
  40:	00 03                	add    %al,(%ebx)
  42:	0a 01                	or     (%ecx),%al
  44:	21 59 2f             	and    %ebx,0x2f(%ecx)
  47:	21 2f                	and    %ebp,(%edi)
  49:	5b                   	pop    %ebx
  4a:	21 02                	and    %eax,(%edx)
  4c:	02 00                	add    (%eax),%al
  4e:	01 01                	add    %eax,(%ecx)
  50:	89 00                	mov    %eax,(%eax)
  52:	00 00                	add    %al,(%eax)
  54:	05 00 04 00 5f       	add    $0x5f000400,%eax
  59:	00 00                	add    %al,(%eax)
  5b:	00 01                	add    %al,(%ecx)
  5d:	01 01                	add    %eax,(%ecx)
  5f:	fb                   	sti    
  60:	0e                   	push   %cs
  61:	0d 00 01 01 01       	or     $0x1010100,%eax
  66:	01 00                	add    %eax,(%eax)
  68:	00 00                	add    %al,(%eax)
  6a:	01 00                	add    %eax,(%eax)
  6c:	00 01                	add    %al,(%ecx)
  6e:	01 01                	add    %eax,(%ecx)
  70:	1f                   	pop    %ds
  71:	03 00                	add    (%eax),%eax
  73:	00 00                	add    %al,(%eax)
  75:	00 13                	add    %dl,(%ebx)
  77:	00 00                	add    %al,(%eax)
  79:	00 41 00             	add    %al,0x0(%ecx)
  7c:	00 00                	add    %al,(%eax)
  7e:	02 01                	add    (%ecx),%al
  80:	1f                   	pop    %ds
  81:	02 0f                	add    (%edi),%cl
  83:	0b 39                	or     (%ecx),%edi
  85:	00 00                	add    %al,(%eax)
  87:	00 01                	add    %al,(%ecx)
  89:	39 00                	cmp    %eax,(%eax)
  8b:	00 00                	add    %al,(%eax)
  8d:	01 53 00             	add    %edx,0x0(%ebx)
  90:	00 00                	add    %al,(%eax)
  92:	02 5b 00             	add    0x0(%ebx),%bl
  95:	00 00                	add    %al,(%eax)
  97:	02 60 00             	add    0x0(%eax),%ah
  9a:	00 00                	add    %al,(%eax)
  9c:	02 66 00             	add    0x0(%esi),%ah
  9f:	00 00                	add    %al,(%eax)
  a1:	02 6d 00             	add    0x0(%ebp),%ch
  a4:	00 00                	add    %al,(%eax)
  a6:	02 74 00 00          	add    0x0(%eax,%eax,1),%dh
  aa:	00 02                	add    %al,(%edx)
  ac:	7b 00                	jnp    ae <mbh-0x2fff52>
  ae:	00 00                	add    %al,(%eax)
  b0:	02 81 00 00 00 02    	add    0x2000000(%ecx),%al
  b6:	89 00                	mov    %eax,(%eax)
  b8:	00 00                	add    %al,(%eax)
  ba:	02 05 01 00 05 02    	add    0x2050001,%al
  c0:	23 30                	and    (%eax),%esi
  c2:	30 00                	xor    %al,(%eax)
  c4:	03 12                	add    (%edx),%edx
  c6:	01 05 08 91 05 0e    	add    %eax,0xe059108
  cc:	58                   	pop    %eax
  cd:	05 04 5a 59 59       	add    $0x59595a04,%eax
  d2:	59                   	pop    %ecx
  d3:	f4                   	hlt    
  d4:	5a                   	pop    %edx
  d5:	05 01 f3 02 03       	add    $0x302f301,%eax
  da:	00 01                	add    %al,(%ecx)
  dc:	01 72 03             	add    %esi,0x3(%edx)
  df:	00 00                	add    %al,(%eax)
  e1:	05 00 04 00 46       	add    $0x46000400,%eax
  e6:	00 00                	add    %al,(%eax)
  e8:	00 01                	add    %al,(%ecx)
  ea:	01 01                	add    %eax,(%ecx)
  ec:	fb                   	sti    
  ed:	0e                   	push   %cs
  ee:	0d 00 01 01 01       	or     $0x1010100,%eax
  f3:	01 00                	add    %eax,(%eax)
  f5:	00 00                	add    %al,(%eax)
  f7:	01 00                	add    %eax,(%eax)
  f9:	00 01                	add    %al,(%ecx)
  fb:	01 01                	add    %eax,(%ecx)
  fd:	1f                   	pop    %ds
  fe:	03 00                	add    (%eax),%eax
 100:	00 00                	add    %al,(%eax)
 102:	00 13                	add    %dl,(%ebx)
 104:	00 00                	add    %al,(%eax)
 106:	00 41 00             	add    %al,0x0(%ecx)
 109:	00 00                	add    %al,(%eax)
 10b:	02 01                	add    (%ecx),%al
 10d:	1f                   	pop    %ds
 10e:	02 0f                	add    (%edi),%cl
 110:	06                   	push   %es
 111:	a0 00 00 00 01       	mov    0x1000000,%al
 116:	a8 00                	test   $0x0,%al
 118:	00 00                	add    %al,(%eax)
 11a:	02 a0 00 00 00 01    	add    0x1000000(%eax),%ah
 120:	53                   	push   %ebx
 121:	00 00                	add    %al,(%eax)
 123:	00 02                	add    %al,(%edx)
 125:	81 00 00 00 02 74    	addl   $0x74020000,(%eax)
 12b:	00 00                	add    %al,(%eax)
 12d:	00 02                	add    %al,(%edx)
 12f:	05 01 00 05 02       	add    $0x2050001,%eax
 134:	6d                   	insl   (%dx),%es:(%edi)
 135:	30 30                	xor    %dh,(%eax)
 137:	00 03                	add    %al,(%ebx)
 139:	fc                   	cld    
 13a:	00 01                	add    %al,(%ecx)
 13c:	05 0a c9 05 06       	add    $0x605c90a,%eax
 141:	66 05 10 59          	add    $0x5910,%ax
 145:	05 18 58 05 1c       	add    $0x1c055818,%eax
 14a:	66 05 14 90          	add    $0x9014,%ax
 14e:	05 20 3c 05 01       	add    $0x1053c20,%eax
 153:	67 04 02             	addr16 add $0x2,%al
 156:	03 8a 7f 66 05 04    	add    0x405667f(%edx),%ecx
 15c:	69 22 67 08 23 05    	imul   $0x5230867,(%edx),%esp
 162:	0e                   	push   %cs
 163:	00 02                	add    %al,(%edx)
 165:	04 01                	add    $0x1,%al
 167:	59                   	pop    %ecx
 168:	05 01 4f 05 04       	add    $0x4054f01,%eax
 16d:	6a 05                	push   $0x5
 16f:	0d 67 05 0b 08       	or     $0x80b0567,%eax
 174:	4d                   	dec    %ebp
 175:	05 01 3d 31 05       	add    $0x5313d01,%eax
 17a:	04 6a                	add    $0x6a,%al
 17c:	05 0d 67 05 0b       	add    $0xb05670d,%eax
 181:	08 77 05             	or     %dh,0x5(%edi)
 184:	01 3d 31 05 0d 69    	add    %edi,0x690d0531
 18a:	05 04 08 9f 05       	add    $0x59f0804,%eax
 18f:	0b 08                	or     (%eax),%ecx
 191:	67 05 01 3d 31 05    	addr16 add $0x5313d01,%eax
 197:	09 3d 05 1d 2f 05    	or     %edi,0x52f1d05
 19d:	1b 90 05 07 3c 05    	sbb    0x53c0705(%eax),%edx
 1a3:	0a 08                	or     (%eax),%cl
 1a5:	1f                   	pop    %ds
 1a6:	05 01 a0 4d 05       	add    $0x54da001,%eax
 1ab:	18 3d 05 04 3c 05    	sbb    %bh,0x53c0405
 1b1:	01 08                	add    %ecx,(%eax)
 1b3:	21 40 05             	and    %eax,0x5(%eax)
 1b6:	09 08                	or     %ecx,(%eax)
 1b8:	23 05 04 74 05 19    	and    0x19057404,%eax
 1be:	30 05 1b 66 05 14    	xor    %al,0x1405661b
 1c4:	3c 05                	cmp    $0x5,%al
 1c6:	0b 08                	or     (%eax),%ecx
 1c8:	3c 05                	cmp    $0x5,%al
 1ca:	07                   	pop    %es
 1cb:	67 00 02             	add    %al,(%bp,%si)
 1ce:	04 01                	add    $0x1,%al
 1d0:	06                   	push   %es
 1d1:	66 00 02             	data16 add %al,(%edx)
 1d4:	04 02                	add    $0x2,%al
 1d6:	74 00                	je     1d8 <mbh-0x2ffe28>
 1d8:	02 04 04             	add    (%esp,%eax,1),%al
 1db:	58                   	pop    %eax
 1dc:	05 15 00 02 04       	add    $0x4020015,%eax
 1e1:	04 06                	add    $0x6,%al
 1e3:	e1 05                	loope  1ea <mbh-0x2ffe16>
 1e5:	0f 00 02             	sldt   (%edx)
 1e8:	04 02                	add    $0x2,%al
 1ea:	4a                   	dec    %edx
 1eb:	05 01 87 4d 05       	add    $0x54d8701,%eax
 1f0:	06                   	push   %es
 1f1:	08 4e 05             	or     %cl,0x5(%esi)
 1f4:	0e                   	push   %cs
 1f5:	08 59 05             	or     %bl,0x5(%ecx)
 1f8:	11 08                	adc    %ecx,(%eax)
 1fa:	4c                   	dec    %esp
 1fb:	05 0b 67 05 06       	add    $0x605670b,%eax
 200:	76 05                	jbe    207 <mbh-0x2ffdf9>
 202:	07                   	pop    %es
 203:	68 05 0d f3 05       	push   $0x5f30d05
 208:	09 a1 05 26 30 05    	or     %esp,0x5302605(%ecx)
 20e:	2b 08                	sub    (%eax),%ecx
 210:	3c 05                	cmp    $0x5,%al
 212:	0f 3c                	(bad)  
 214:	05 17 3c 05 1a       	add    $0x1a053c17,%eax
 219:	3c 05                	cmp    $0x5,%al
 21b:	13 66 05             	adc    0x5(%esi),%esp
 21e:	2b 2e                	sub    (%esi),%ebp
 220:	05 1e 2e 05 0d       	add    $0xd052e1e,%eax
 225:	2f                   	das    
 226:	05 0a 08 8d 05       	add    $0x58d080a,%eax
 22b:	09 08                	or     %ecx,(%eax)
 22d:	7a 05                	jp     234 <mbh-0x2ffdcc>
 22f:	23 2f                	and    (%edi),%ebp
 231:	05 2b 3c 05 27       	add    $0x27053c2b,%eax
 236:	3c 05                	cmp    $0x5,%al
 238:	07                   	pop    %es
 239:	58                   	pop    %eax
 23a:	05 0d 08 49 05       	add    $0x549080d,%eax
 23f:	10 3c 05 0a 66 05 01 	adc    %bh,0x105660a(,%eax,1)
 246:	4c                   	dec    %esp
 247:	85 05 06 08 4e 05    	test   %eax,0x54e0806
 24d:	0e                   	push   %cs
 24e:	08 59 05             	or     %bl,0x5(%ecx)
 251:	11 08                	adc    %ecx,(%eax)
 253:	4c                   	dec    %esp
 254:	05 0b 67 05 09       	add    $0x905670b,%eax
 259:	76 05                	jbe    260 <mbh-0x2ffda0>
 25b:	26 30 05 2b 08 3c 05 	xor    %al,%es:0x53c082b
 262:	0f 3c                	(bad)  
 264:	05 17 3c 05 1a       	add    $0x1a053c17,%eax
 269:	3c 05                	cmp    $0x5,%al
 26b:	13 66 05             	adc    0x5(%esi),%esp
 26e:	2b 2e                	sub    (%esi),%ebp
 270:	05 1e 2e 05 0d       	add    $0xd052e1e,%eax
 275:	2f                   	das    
 276:	05 0a 08 8d 05       	add    $0x58d080a,%eax
 27b:	09 08                	or     %ecx,(%eax)
 27d:	7a 05                	jp     284 <mbh-0x2ffd7c>
 27f:	23 2f                	and    (%edi),%ebp
 281:	05 2b 3c 05 27       	add    $0x27053c2b,%eax
 286:	3c 05                	cmp    $0x5,%al
 288:	07                   	pop    %es
 289:	58                   	pop    %eax
 28a:	05 0d 08 49 05       	add    $0x549080d,%eax
 28f:	10 3c 05 0a 66 05 01 	adc    %bh,0x105660a(,%eax,1)
 296:	4c                   	dec    %esp
 297:	8a 05 0f 08 4c 05    	mov    0x54c080f,%al
 29d:	06                   	push   %es
 29e:	76 05                	jbe    2a5 <mbh-0x2ffd5b>
 2a0:	12 00                	adc    (%eax),%al
 2a2:	02 04 01             	add    (%ecx,%eax,1),%al
 2a5:	66 05 11 67          	add    $0x6711,%ax
 2a9:	05 09 76 05 23       	add    $0x23057609,%eax
 2ae:	30 05 1c f2 05 10    	xor    %al,0x1005f21c
 2b4:	90                   	nop
 2b5:	05 0d d7 05 0a       	add    $0xa05d70d,%eax
 2ba:	08 2f                	or     %ch,(%edi)
 2bc:	05 10 4b 05 14       	add    $0x14054b10,%eax
 2c1:	45                   	inc    %ebp
 2c2:	00 02                	add    %al,(%edx)
 2c4:	04 01                	add    $0x1,%al
 2c6:	06                   	push   %es
 2c7:	66 05 28 00          	add    $0x28,%ax
 2cb:	02 04 02             	add    (%edx,%eax,1),%al
 2ce:	06                   	push   %es
 2cf:	66 05 17 00          	add    $0x17,%ax
 2d3:	02 04 03             	add    (%ebx,%eax,1),%al
 2d6:	08 74 05 07          	or     %dh,0x7(%ebp,%eax,1)
 2da:	6e                   	outsb  %ds:(%esi),(%dx)
 2db:	05 09 67 05 1e       	add    $0x1e056709,%eax
 2e0:	2f                   	das    
 2e1:	05 07 ac 05 0d       	add    $0xd05ac07,%eax
 2e6:	08 1f                	or     %bl,(%edi)
 2e8:	05 0a 90 05 0b       	add    $0xb05900a,%eax
 2ed:	4d                   	dec    %ebp
 2ee:	05 01 3d 86 05       	add    $0x5863d01,%eax
 2f3:	04 08                	add    $0x8,%al
 2f5:	21 05 01 08 91 40    	and    %eax,0x40910801
 2fb:	05 11 6c 05 0b       	add    $0xb056c11,%eax
 300:	67 75 05             	addr16 jne 308 <mbh-0x2ffcf8>
 303:	08 75 05             	or     %dh,0x5(%ebp)
 306:	09 75 05             	or     %esi,0x5(%ebp)
 309:	06                   	push   %es
 30a:	76 05                	jbe    311 <mbh-0x2ffcef>
 30c:	0f 00 02             	sldt   (%edx)
 30f:	04 01                	add    $0x1,%al
 311:	9e                   	sahf   
 312:	05 09 00 02 04       	add    $0x4020009,%eax
 317:	01 4c 05 12          	add    %ecx,0x12(%ebp,%eax,1)
 31b:	5a                   	pop    %edx
 31c:	05 09 90 68 05       	add    $0x5689009,%eax
 321:	0c a1                	or     $0xa1,%al
 323:	05 0f 67 05 15       	add    $0x1505670f,%eax
 328:	67 05 14 bc 05 0d    	addr16 add $0xd05bc14,%eax
 32e:	75 05                	jne    335 <mbh-0x2ffccb>
 330:	13 59 05             	adc    0x5(%ecx),%ebx
 333:	12 00                	adc    (%eax),%al
 335:	02 04 01             	add    (%ecx,%eax,1),%al
 338:	67 05 0d 00 02 04    	addr16 add $0x402000d,%eax
 33e:	01 83 05 0c 5c 05    	add    %eax,0x55c0c05(%ebx)
 344:	13 67 05             	adc    0x5(%edi),%esp
 347:	0d d7 05 13 08       	or     $0x81305d7,%eax
 34c:	67 05 11 67 05 0d    	addr16 add $0xd056711,%eax
 352:	d7                   	xlat   %ds:(%ebx)
 353:	05 13 08 67 05       	add    $0x5670813,%eax
 358:	1e                   	push   %ds
 359:	67 05 16 ac 05 0d    	addr16 add $0xd05ac16,%eax
 35f:	9f                   	lahf   
 360:	05 13 08 d7 05       	add    $0x5d70813,%eax
 365:	16                   	push   %ss
 366:	67 05 0d 08 3d 05    	addr16 add $0x53d080d,%eax
 36c:	13 08                	adc    (%eax),%ecx
 36e:	d9 05 1d 00 02 04    	flds   0x402001d
 374:	01 66 05             	add    %esp,0x5(%esi)
 377:	0f a1                	pop    %fs
 379:	05 16 67 05 14       	add    $0x14056716,%eax
 37e:	08 59 05             	or     %bl,0x5(%ecx)
 381:	18 67 05             	sbb    %ah,0x5(%edi)
 384:	16                   	push   %ss
 385:	ac                   	lods   %ds:(%esi),%al
 386:	05 14 91 05 22       	add    $0x22059114,%eax
 38b:	67 05 16 ac 05 21    	addr16 add $0x2105ac16,%eax
 391:	a0 05 16 ac 05       	mov    0x5ac1605,%al
 396:	0d a0 05 29 03       	or     $0x32905a0,%eax
 39b:	74 08                	je     3a5 <mbh-0x2ffc5b>
 39d:	4a                   	dec    %edx
 39e:	05 13 03 0e 58       	add    $0x580e0313,%eax
 3a3:	05 1d 00 02 04       	add    $0x402001d,%eax
 3a8:	01 66 05             	add    %esp,0x5(%esi)
 3ab:	0f a1                	pop    %fs
 3ad:	05 16 67 05 14       	add    $0x14056716,%eax
 3b2:	08 59 05             	or     %bl,0x5(%ecx)
 3b5:	18 67 05             	sbb    %ah,0x5(%edi)
 3b8:	16                   	push   %ss
 3b9:	ac                   	lods   %ds:(%esi),%al
 3ba:	05 14 bb 05 22       	add    $0x2205bb14,%eax
 3bf:	67 05 16 ac 05 21    	addr16 add $0x2105ac16,%eax
 3c5:	e6 05                	out    %al,$0x5
 3c7:	16                   	push   %ss
 3c8:	ac                   	lods   %ds:(%esi),%al
 3c9:	05 0f ca 05 10       	add    $0x1005ca0f,%eax
 3ce:	67 05 29 03 73 08    	addr16 add $0x8730329,%eax
 3d4:	4a                   	dec    %edx
 3d5:	05 10 03 0f 58       	add    $0x580f0310,%eax
 3da:	05 29 03 71 08       	add    $0x8710329,%eax
 3df:	90                   	nop
 3e0:	05 13 03 12 58       	add    $0x58120313,%eax
 3e5:	05 16 67 05 0d       	add    $0xd056716,%eax
 3ea:	08 3d 05 13 08 91    	or     %bh,0x91081305
 3f0:	05 16 67 05 0d       	add    $0xd056716,%eax
 3f5:	08 3d 05 13 08 d9    	or     %bh,0xd9081305
 3fb:	05 1e 67 05 16       	add    $0x1605671e,%eax
 400:	ac                   	lods   %ds:(%esi),%al
 401:	05 0d 9f 08 67       	add    $0x67089f0d,%eax
 406:	05 14 08 af 05       	add    $0x5af0814,%eax
 40b:	1e                   	push   %ds
 40c:	00 02                	add    %al,(%edx)
 40e:	04 01                	add    $0x1,%al
 410:	66 05 0d 00          	add    $0xd,%ax
 414:	02 04 02             	add    (%edx,%eax,1),%al
 417:	67 05 14 31 05 0d    	addr16 add $0xd053114,%eax
 41d:	67 08 86 05 11       	or     %al,0x1105(%bp)
 422:	08 4d 05             	or     %cl,0x5(%ebp)
 425:	0e                   	push   %cs
 426:	75 92                	jne    3ba <mbh-0x2ffc46>
 428:	05 11 68 05 0f       	add    $0xf056811,%eax
 42d:	75 05                	jne    434 <mbh-0x2ffbcc>
 42f:	0a 93 03 9c 7f 08    	or     0x87f9c03(%ebx),%dl
 435:	66 05 0c 03          	add    $0x30c,%ax
 439:	e7 00                	out    %eax,$0x0
 43b:	d6                   	(bad)  
 43c:	05 14 3c 05 17       	add    $0x17053c14,%eax
 441:	3c 05                	cmp    $0x5,%al
 443:	10 66 05             	adc    %ah,0x5(%esi)
 446:	1b 2e                	sbb    (%esi),%ebp
 448:	05 0e 3d 05 01       	add    $0x1053d0e,%eax
 44d:	3d 02 02 00 01       	cmp    $0x1000202,%eax
 452:	01 30                	add    %esi,(%eax)
 454:	01 00                	add    %eax,(%eax)
 456:	00 05 00 04 00 3c    	add    %al,0x3c000400
 45c:	00 00                	add    %al,(%eax)
 45e:	00 01                	add    %al,(%ecx)
 460:	01 01                	add    %eax,(%ecx)
 462:	fb                   	sti    
 463:	0e                   	push   %cs
 464:	0d 00 01 01 01       	or     $0x1010100,%eax
 469:	01 00                	add    %eax,(%eax)
 46b:	00 00                	add    %al,(%eax)
 46d:	01 00                	add    %eax,(%eax)
 46f:	00 01                	add    %al,(%ecx)
 471:	01 01                	add    %eax,(%ecx)
 473:	1f                   	pop    %ds
 474:	03 00                	add    (%eax),%eax
 476:	00 00                	add    %al,(%eax)
 478:	00 13                	add    %dl,(%ebx)
 47a:	00 00                	add    %al,(%eax)
 47c:	00 41 00             	add    %al,0x0(%ecx)
 47f:	00 00                	add    %al,(%eax)
 481:	02 01                	add    (%ecx),%al
 483:	1f                   	pop    %ds
 484:	02 0f                	add    (%edi),%cl
 486:	04 c0                	add    $0xc0,%al
 488:	00 00                	add    %al,(%eax)
 48a:	00 01                	add    %al,(%ecx)
 48c:	c0 00 00             	rolb   $0x0,(%eax)
 48f:	00 01                	add    %al,(%ecx)
 491:	53                   	push   %ebx
 492:	00 00                	add    %al,(%eax)
 494:	00 02                	add    %al,(%edx)
 496:	74 00                	je     498 <mbh-0x2ffb68>
 498:	00 00                	add    %al,(%eax)
 49a:	02 05 01 00 05 02    	add    0x2050001,%al
 4a0:	04 39                	add    $0x39,%al
 4a2:	30 00                	xor    %al,(%eax)
 4a4:	16                   	push   %ss
 4a5:	05 09 c9 05 07       	add    $0x705c909,%eax
 4aa:	2f                   	das    
 4ab:	05 0a 9d 05 01       	add    $0x1059d0a,%eax
 4b0:	08 a0 4d 05 04 cc    	or     %ah,-0x33fbfab3(%eax)
 4b6:	05 0c c9 4b 05       	add    $0x54bc90c,%eax
 4bb:	04 9f                	add    $0x9f,%al
 4bd:	05 0f bc 05 0c       	add    $0xc05bc0f,%eax
 4c2:	9f                   	lahf   
 4c3:	05 04 9f bc 05       	add    $0x5bc9f04,%eax
 4c8:	0c ca                	or     $0xca,%al
 4ca:	05 0e 4b 9f 05       	add    $0x59f4b0e,%eax
 4cf:	04 9f                	add    $0x9f,%al
 4d1:	05 01 bb 3f 05       	add    $0x53fbb01,%eax
 4d6:	04 ce                	add    $0xce,%al
 4d8:	c9                   	leave  
 4d9:	9f                   	lahf   
 4da:	05 0c cb 05 11       	add    $0x1105cb0c,%eax
 4df:	4b                   	dec    %ebx
 4e0:	05 04 9f 05 0c       	add    $0xc059f04,%eax
 4e5:	03 0b                	add    (%ebx),%ecx
 4e7:	ba 05 04 4c bd       	mov    $0xbd4c0405,%edx
 4ec:	05 01 c9 3f 05       	add    $0x53fc901,%eax
 4f1:	04 3d                	add    $0x3d,%al
 4f3:	c9                   	leave  
 4f4:	05 01 c9 3f 05       	add    $0x53fc901,%eax
 4f9:	09 c9                	or     %ecx,%ecx
 4fb:	05 1f 30 05 10       	add    $0x1005301f,%eax
 500:	d6                   	(bad)  
 501:	05 17 58 05 13       	add    $0x13055817,%eax
 506:	66 05 1d 2e          	add    $0x2e1d,%ax
 50a:	05 0a 2f 05 0e       	add    $0xe052f0a,%eax
 50f:	66 05 0a 8d          	add    $0x8d0a,%ax
 513:	05 20 08 66 05       	add    $0x5660820,%eax
 518:	26 00 02             	add    %al,%es:(%edx)
 51b:	04 01                	add    $0x1,%al
 51d:	4a                   	dec    %edx
 51e:	05 20 00 02 04       	add    $0x4020020,%eax
 523:	01 66 05             	add    %esp,0x5(%esi)
 526:	01 5d 3f             	add    %ebx,0x3f(%ebp)
 529:	05 09 c9 05 0a       	add    $0xa05c909,%eax
 52e:	30 05 09 08 66 05    	xor    %al,0x5660809
 534:	0a 4c 05 0d          	or     0xd(%ebp,%eax,1),%cl
 538:	08 4b 05             	or     %cl,0x5(%ebx)
 53b:	11 66 05             	adc    %esp,0x5(%esi)
 53e:	0d 8b 05 12 66       	or     $0x6612058b,%eax
 543:	05 01 60 4d 05       	add    $0x54d6001,%eax
 548:	10 69 05             	adc    %ch,0x5(%ecx)
 54b:	0b 67 05             	or     0x5(%edi),%esp
 54e:	04 76                	add    $0x76,%al
 550:	05 0e 08 3d 05       	add    $0x53d080e,%eax
 555:	01 3d 31 05 10 69    	add    %edi,0x69100531
 55b:	05 0b 67 05 04       	add    $0x405670b,%eax
 560:	76 05                	jbe    567 <mbh-0x2ffa99>
 562:	0e                   	push   %cs
 563:	08 3d 05 01 3d 31    	or     %bh,0x313d0105
 569:	05 0b 67 05 09       	add    $0x905670b,%eax
 56e:	76 05                	jbe    575 <mbh-0x2ffa8b>
 570:	0a 2f                	or     (%edi),%ch
 572:	05 09 08 4a 05       	add    $0x54a0809,%eax
 577:	0a 4c 05 0b          	or     0xb(%ebp,%eax,1),%cl
 57b:	ad                   	lods   %ds:(%esi),%eax
 57c:	05 0a 46 05 01       	add    $0x105460a,%eax
 581:	6c                   	insb   (%dx),%es:(%edi)
 582:	02 04 00             	add    (%eax,%eax,1),%al
 585:	01 01                	add    %eax,(%ecx)
 587:	86 00                	xchg   %al,(%eax)
 589:	00 00                	add    %al,(%eax)
 58b:	05 00 04 00 3c       	add    $0x3c000400,%eax
 590:	00 00                	add    %al,(%eax)
 592:	00 01                	add    %al,(%ecx)
 594:	01 01                	add    %eax,(%ecx)
 596:	fb                   	sti    
 597:	0e                   	push   %cs
 598:	0d 00 01 01 01       	or     $0x1010100,%eax
 59d:	01 00                	add    %eax,(%eax)
 59f:	00 00                	add    %al,(%eax)
 5a1:	01 00                	add    %eax,(%eax)
 5a3:	00 01                	add    %al,(%ecx)
 5a5:	01 01                	add    %eax,(%ecx)
 5a7:	1f                   	pop    %ds
 5a8:	03 00                	add    (%eax),%eax
 5aa:	00 00                	add    %al,(%eax)
 5ac:	00 13                	add    %dl,(%ebx)
 5ae:	00 00                	add    %al,(%eax)
 5b0:	00 41 00             	add    %al,0x0(%ecx)
 5b3:	00 00                	add    %al,(%eax)
 5b5:	02 01                	add    (%ecx),%al
 5b7:	1f                   	pop    %ds
 5b8:	02 0f                	add    (%edi),%cl
 5ba:	04 d6                	add    $0xd6,%al
 5bc:	00 00                	add    %al,(%eax)
 5be:	00 01                	add    %al,(%ecx)
 5c0:	d6                   	(bad)  
 5c1:	00 00                	add    %al,(%eax)
 5c3:	00 01                	add    %al,(%ecx)
 5c5:	7b 00                	jnp    5c7 <mbh-0x2ffa39>
 5c7:	00 00                	add    %al,(%eax)
 5c9:	02 53 00             	add    0x0(%ebx),%dl
 5cc:	00 00                	add    %al,(%eax)
 5ce:	02 05 01 00 05 02    	add    0x2050001,%al
 5d4:	a9 3b 30 00 16       	test   $0x1600303b,%eax
 5d9:	05 0d 03 0b 66       	add    $0x660b030d,%eax
 5de:	05 04 4b 9f 05       	add    $0x59f4b04,%eax
 5e3:	0d a5 05 04 4b       	or     $0x4b0405a5,%eax
 5e8:	05 0d a0 05 04       	add    $0x405a00d,%eax
 5ed:	4b                   	dec    %ebx
 5ee:	05 0d a5 05 15       	add    $0x1505a50d,%eax
 5f3:	4b                   	dec    %ebx
 5f4:	05 04 9f 05 0d       	add    $0xd059f04,%eax
 5f9:	a0 05 12 4b 05       	mov    0x54b1205,%al
 5fe:	04 c9                	add    $0xc9,%al
 600:	05 0d 03 09 9e       	add    $0x9e09030d,%eax
 605:	05 04 4b 9f 05       	add    $0x59f4b04,%eax
 60a:	01 9f 02 03 00 01    	add    %ebx,0x1000302(%edi)
 610:	01 b0 00 00 00 05    	add    %esi,0x5000000(%eax)
 616:	00 04 00             	add    %al,(%eax,%eax,1)
 619:	4b                   	dec    %ebx
 61a:	00 00                	add    %al,(%eax)
 61c:	00 01                	add    %al,(%ecx)
 61e:	01 01                	add    %eax,(%ecx)
 620:	fb                   	sti    
 621:	0e                   	push   %cs
 622:	0d 00 01 01 01       	or     $0x1010100,%eax
 627:	01 00                	add    %eax,(%eax)
 629:	00 00                	add    %al,(%eax)
 62b:	01 00                	add    %eax,(%eax)
 62d:	00 01                	add    %al,(%ecx)
 62f:	01 01                	add    %eax,(%ecx)
 631:	1f                   	pop    %ds
 632:	03 00                	add    (%eax),%eax
 634:	00 00                	add    %al,(%eax)
 636:	00 13                	add    %dl,(%ebx)
 638:	00 00                	add    %al,(%eax)
 63a:	00 41 00             	add    %al,0x0(%ecx)
 63d:	00 00                	add    %al,(%eax)
 63f:	02 01                	add    (%ecx),%al
 641:	1f                   	pop    %ds
 642:	02 0f                	add    (%edi),%cl
 644:	07                   	pop    %es
 645:	eb 00                	jmp    647 <mbh-0x2ff9b9>
 647:	00 00                	add    %al,(%eax)
 649:	01 eb                	add    %ebp,%ebx
 64b:	00 00                	add    %al,(%eax)
 64d:	00 01                	add    %al,(%ecx)
 64f:	53                   	push   %ebx
 650:	00 00                	add    %al,(%eax)
 652:	00 02                	add    %al,(%edx)
 654:	f2 00 00             	repnz add %al,(%eax)
 657:	00 02                	add    %al,(%edx)
 659:	f8                   	clc    
 65a:	00 00                	add    %al,(%eax)
 65c:	00 02                	add    %al,(%edx)
 65e:	6d                   	insl   (%dx),%es:(%edi)
 65f:	00 00                	add    %al,(%eax)
 661:	00 02                	add    %al,(%edx)
 663:	81 00 00 00 02 05    	addl   $0x5020000,(%eax)
 669:	01 00                	add    %eax,(%eax)
 66b:	05 02 31 3c 30       	add    $0x303c3102,%eax
 670:	00 03                	add    %al,(%ebx)
 672:	0a 01                	or     (%ecx),%al
 674:	05 08 6b 05 09       	add    $0x9056b08,%eax
 679:	77 05                	ja     680 <mbh-0x2ff980>
 67b:	04 74                	add    $0x74,%al
 67d:	05 07 00 02 04       	add    $0x4020007,%eax
 682:	03 59 05             	add    0x5(%ecx),%ebx
 685:	1f                   	pop    %ds
 686:	00 02                	add    %al,(%edx)
 688:	04 03                	add    $0x3,%al
 68a:	02 85 01 11 05 27    	add    0x27051101(%ebp),%al
 690:	00 02                	add    %al,(%edx)
 692:	04 03                	add    $0x3,%al
 694:	4a                   	dec    %edx
 695:	05 0f 00 02 04       	add    $0x402000f,%eax
 69a:	01 4a cb             	add    %ecx,-0x35(%edx)
 69d:	75 05                	jne    6a4 <mbh-0x2ff95c>
 69f:	04 67                	add    $0x67,%al
 6a1:	05 01 4b 3f 05       	add    $0x53f4b01,%eax
 6a6:	04 bb                	add    $0xbb,%al
 6a8:	05 0c 03 1c 02       	add    $0x21c030c,%eax
 6ad:	a2 01 01 05 06       	mov    %al,0x6050101
 6b2:	a0 05 07 67 05       	mov    0x5670705,%al
 6b7:	01 85 05 07 2d 05    	add    %eax,0x52d0705(%ebp)
 6bd:	01 08                	add    %ecx,(%eax)
 6bf:	4b                   	dec    %ebx
 6c0:	02 09                	add    (%ecx),%cl
 6c2:	00 01                	add    %al,(%ecx)
 6c4:	01 a5 00 00 00 05    	add    %esp,0x5000000(%ebp)
 6ca:	00 04 00             	add    %al,(%eax,%eax,1)
 6cd:	2e 00 00             	add    %al,%cs:(%eax)
 6d0:	00 01                	add    %al,(%ecx)
 6d2:	01 01                	add    %eax,(%ecx)
 6d4:	fb                   	sti    
 6d5:	0e                   	push   %cs
 6d6:	0d 00 01 01 01       	or     $0x1010100,%eax
 6db:	01 00                	add    %eax,(%eax)
 6dd:	00 00                	add    %al,(%eax)
 6df:	01 00                	add    %eax,(%eax)
 6e1:	00 01                	add    %al,(%ecx)
 6e3:	01 01                	add    %eax,(%ecx)
 6e5:	1f                   	pop    %ds
 6e6:	02 00                	add    (%eax),%al
 6e8:	00 00                	add    %al,(%eax)
 6ea:	00 13                	add    %dl,(%ebx)
 6ec:	00 00                	add    %al,(%eax)
 6ee:	00 02                	add    %al,(%edx)
 6f0:	01 1f                	add    %ebx,(%edi)
 6f2:	02 0f                	add    (%edi),%cl
 6f4:	02 ff                	add    %bh,%bh
 6f6:	00 00                	add    %al,(%eax)
 6f8:	00 01                	add    %al,(%ecx)
 6fa:	ff 00                	incl   (%eax)
 6fc:	00 00                	add    %al,(%eax)
 6fe:	01 00                	add    %eax,(%eax)
 700:	05 02 de 3d 30       	add    $0x303dde02,%eax
 705:	00 03                	add    %al,(%ebx)
 707:	0d 01 21 2f 2f       	or     $0x2f2f2101,%eax
 70c:	30 21                	xor    %ah,(%ecx)
 70e:	30 2f                	xor    %ch,(%edi)
 710:	03 11                	add    (%ecx),%edx
 712:	20 21                	and    %ah,(%ecx)
 714:	2f                   	das    
 715:	5b                   	pop    %ebx
 716:	21 3d 02 01 00 01    	and    %edi,0x1000102
 71c:	01 00                	add    %eax,(%eax)
 71e:	05 02 10 20 30       	add    $0x30201002,%eax
 723:	00 03                	add    %al,(%ebx)
 725:	38 01                	cmp    %al,(%ecx)
 727:	2f                   	das    
 728:	2f                   	das    
 729:	be 2f 2f be 2f       	mov    $0x2fbe2f2f,%esi
 72e:	2f                   	das    
 72f:	be 2f 2f be 2f       	mov    $0x2fbe2f2f,%esi
 734:	2f                   	das    
 735:	be 2f 2f be 2f       	mov    $0x2fbe2f2f,%esi
 73a:	2f                   	das    
 73b:	be 2f 2f be 2f       	mov    $0x2fbe2f2f,%esi
 740:	da 2f                	fisubrl (%edi)
 742:	2f                   	das    
 743:	be 2f da 2f da       	mov    $0xda2fda2f,%esi
 748:	2f                   	das    
 749:	da 2f                	fisubrl (%edi)
 74b:	da 2f                	fisubrl (%edi)
 74d:	da 2f                	fisubrl (%edi)
 74f:	2f                   	das    
 750:	be 2f 2f be 2f       	mov    $0x2fbe2f2f,%esi
 755:	da 2f                	fisubrl (%edi)
 757:	2f                   	das    
 758:	be 2f 2f c0 02       	mov    $0x2c02f2f,%esi
 75d:	c0 01 1a             	rolb   $0x1a,(%ecx)
 760:	02 80 01 1a 02 80    	add    -0x7ffde5ff(%eax),%al
 766:	01 1a                	add    %ebx,(%edx)
 768:	02 fc                	add    %ah,%bh
 76a:	19 00                	sbb    %eax,(%eax)
 76c:	01 01                	add    %eax,(%ecx)
 76e:	91                   	xchg   %eax,%ecx
 76f:	00 00                	add    %al,(%eax)
 771:	00 05 00 04 00 50    	add    %al,0x50000400
 777:	00 00                	add    %al,(%eax)
 779:	00 01                	add    %al,(%ecx)
 77b:	01 01                	add    %eax,(%ecx)
 77d:	fb                   	sti    
 77e:	0e                   	push   %cs
 77f:	0d 00 01 01 01       	or     $0x1010100,%eax
 784:	01 00                	add    %eax,(%eax)
 786:	00 00                	add    %al,(%eax)
 788:	01 00                	add    %eax,(%eax)
 78a:	00 01                	add    %al,(%ecx)
 78c:	01 01                	add    %eax,(%ecx)
 78e:	1f                   	pop    %ds
 78f:	03 00                	add    (%eax),%eax
 791:	00 00                	add    %al,(%eax)
 793:	00 13                	add    %dl,(%ebx)
 795:	00 00                	add    %al,(%eax)
 797:	00 41 00             	add    %al,0x0(%ecx)
 79a:	00 00                	add    %al,(%eax)
 79c:	02 01                	add    (%ecx),%al
 79e:	1f                   	pop    %ds
 79f:	02 0f                	add    (%edi),%cl
 7a1:	08 14 01             	or     %dl,(%ecx,%eax,1)
 7a4:	00 00                	add    %al,(%eax)
 7a6:	01 14 01             	add    %edx,(%ecx,%eax,1)
 7a9:	00 00                	add    %al,(%eax)
 7ab:	01 53 00             	add    %edx,0x0(%ebx)
 7ae:	00 00                	add    %al,(%eax)
 7b0:	02 f2                	add    %dl,%dh
 7b2:	00 00                	add    %al,(%eax)
 7b4:	00 02                	add    %al,(%edx)
 7b6:	f8                   	clc    
 7b7:	00 00                	add    %al,(%eax)
 7b9:	00 02                	add    %al,(%edx)
 7bb:	6d                   	insl   (%dx),%es:(%edi)
 7bc:	00 00                	add    %al,(%eax)
 7be:	00 02                	add    %al,(%edx)
 7c0:	81 00 00 00 02 1b    	addl   $0x1b020000,(%eax)
 7c6:	01 00                	add    %eax,(%eax)
 7c8:	00 02                	add    %al,(%edx)
 7ca:	05 01 00 05 02       	add    $0x2050001,%eax
 7cf:	f8                   	clc    
 7d0:	3d 30 00 03 20       	cmp    $0x20030030,%eax
 7d5:	01 05 04 ad 05 12    	add    %eax,0x1205ad04
 7db:	02 22                	add    (%edx),%ah
 7dd:	14 05                	adc    $0x5,%al
 7df:	04 9e                	add    $0x9e,%al
 7e1:	05 07 08 bd f3       	add    $0xf3bd0807,%eax
 7e6:	5c                   	pop    %esp
 7e7:	02 5a 18             	add    0x18(%edx),%bl
 7ea:	31 02                	xor    %eax,(%edx)
 7ec:	59                   	pop    %ecx
 7ed:	17                   	pop    %ss
 7ee:	05 04 23 08 91       	add    $0x91082304,%eax
 7f3:	05 1c 08 91 05       	add    $0x591081c,%eax
 7f8:	04 66                	add    $0x66,%al
 7fa:	bb 05 01 f3 02       	mov    $0x2f30105,%ebx
 7ff:	07                   	pop    %es
 800:	00 01                	add    %al,(%ecx)
 802:	01 7c 00 00          	add    %edi,0x0(%eax,%eax,1)
 806:	00 05 00 04 00 3c    	add    %al,0x3c000400
 80c:	00 00                	add    %al,(%eax)
 80e:	00 01                	add    %al,(%ecx)
 810:	01 01                	add    %eax,(%ecx)
 812:	fb                   	sti    
 813:	0e                   	push   %cs
 814:	0d 00 01 01 01       	or     $0x1010100,%eax
 819:	01 00                	add    %eax,(%eax)
 81b:	00 00                	add    %al,(%eax)
 81d:	01 00                	add    %eax,(%eax)
 81f:	00 01                	add    %al,(%ecx)
 821:	01 01                	add    %eax,(%ecx)
 823:	1f                   	pop    %ds
 824:	03 00                	add    (%eax),%eax
 826:	00 00                	add    %al,(%eax)
 828:	00 13                	add    %dl,(%ebx)
 82a:	00 00                	add    %al,(%eax)
 82c:	00 41 00             	add    %al,0x0(%ecx)
 82f:	00 00                	add    %al,(%eax)
 831:	02 01                	add    (%ecx),%al
 833:	1f                   	pop    %ds
 834:	02 0f                	add    (%edi),%cl
 836:	04 32                	add    $0x32,%al
 838:	01 00                	add    %eax,(%eax)
 83a:	00 01                	add    %al,(%ecx)
 83c:	32 01                	xor    (%ecx),%al
 83e:	00 00                	add    %al,(%eax)
 840:	01 53 00             	add    %edx,0x0(%ebx)
 843:	00 00                	add    %al,(%eax)
 845:	02 81 00 00 00 02    	add    0x2000000(%ecx),%al
 84b:	05 01 00 05 02       	add    $0x2050001,%eax
 850:	74 3f                	je     891 <mbh-0x2ff76f>
 852:	30 00                	xor    %al,(%eax)
 854:	1a 05 04 69 05 08    	sbb    0x8056904,%al
 85a:	f4                   	hlt    
 85b:	05 09 67 05 1e       	add    $0x1e056709,%eax
 860:	30 05 19 66 05 0b    	xor    %al,0xb056619
 866:	2e 05 19 3d 05 0b    	cs add $0xb053d19,%eax
 86c:	58                   	pop    %eax
 86d:	05 07 3d 05 0e       	add    $0xe053d07,%eax
 872:	08 2a                	or     %ch,(%edx)
 874:	00 02                	add    %al,(%edx)
 876:	04 01                	add    $0x1,%al
 878:	06                   	push   %es
 879:	66 05 01 06          	add    $0x601,%ax
 87d:	96                   	xchg   %eax,%esi
 87e:	02 03                	add    (%ebx),%al
 880:	00 01                	add    %al,(%ecx)
 882:	01 a0 00 00 00 05    	add    %esp,0x5000000(%eax)
 888:	00 04 00             	add    %al,(%eax,%eax,1)
 88b:	3d 00 00 00 01       	cmp    $0x1000000,%eax
 890:	01 01                	add    %eax,(%ecx)
 892:	fb                   	sti    
 893:	0e                   	push   %cs
 894:	0d 00 01 01 01       	or     $0x1010100,%eax
 899:	01 00                	add    %eax,(%eax)
 89b:	00 00                	add    %al,(%eax)
 89d:	01 00                	add    %eax,(%eax)
 89f:	00 01                	add    %al,(%ecx)
 8a1:	01 01                	add    %eax,(%ecx)
 8a3:	1f                   	pop    %ds
 8a4:	02 00                	add    (%eax),%al
 8a6:	00 00                	add    %al,(%eax)
 8a8:	00 41 00             	add    %al,0x0(%ecx)
 8ab:	00 00                	add    %al,(%eax)
 8ad:	02 01                	add    (%ecx),%al
 8af:	1f                   	pop    %ds
 8b0:	02 0f                	add    (%edi),%cl
 8b2:	05 3a 01 00 00       	add    $0x13a,%eax
 8b7:	00 3a                	add    %bh,(%edx)
 8b9:	01 00                	add    %eax,(%eax)
 8bb:	00 00                	add    %al,(%eax)
 8bd:	53                   	push   %ebx
 8be:	00 00                	add    %al,(%eax)
 8c0:	00 01                	add    %al,(%ecx)
 8c2:	6d                   	insl   (%dx),%es:(%edi)
 8c3:	00 00                	add    %al,(%eax)
 8c5:	00 01                	add    %al,(%ecx)
 8c7:	81 00 00 00 01 05    	addl   $0x5010000,(%eax)
 8cd:	13 00                	adc    (%eax),%eax
 8cf:	05 02 ca 3f 30       	add    $0x303fca02,%eax
 8d4:	00 16                	add    %dl,(%esi)
 8d6:	05 04 67 05 01       	add    $0x1056704,%eax
 8db:	f3 05 13 3e 05 05    	repz add $0x5053e13,%eax
 8e1:	68 05 02 67 08       	push   $0x8670205
 8e6:	2f                   	das    
 8e7:	05 01 21 05 0b       	add    $0xb052101,%eax
 8ec:	3e 05 02 77 4b 08    	ds add $0x84b7702,%eax
 8f2:	3f                   	aas    
 8f3:	4b                   	dec    %ebx
 8f4:	05 11 08 3f 05       	add    $0x53f0811,%eax
 8f9:	02 75 05             	add    0x5(%ebp),%dh
 8fc:	1b 08                	sbb    (%eax),%ecx
 8fe:	30 05 09 58 05 0e    	xor    %al,0xe055809
 904:	3c 05                	cmp    $0x5,%al
 906:	1b 3c 05 1e 02 23 13 	sbb    0x1323021e(,%eax,1),%edi
 90d:	05 3d 58 05 09       	add    $0x905583d,%eax
 912:	58                   	pop    %eax
 913:	05 0e 3c 05 1b       	add    $0x1b053c0e,%eax
 918:	3c 05                	cmp    $0x5,%al
 91a:	02 02                	add    (%edx),%al
 91c:	25 14 5a 05 01       	and    $0x1055a14,%eax
 921:	f7 02 06 00 01 01    	testl  $0x1010006,(%edx)

Déassemblage de la section .debug_line_str :

00000000 <.debug_line_str>:
   0:	2f                   	das    
   1:	72 6f                	jb     72 <mbh-0x2fff8e>
   3:	6f                   	outsl  %ds:(%esi),(%dx)
   4:	74 2f                	je     35 <mbh-0x2fffcb>
   6:	73 65                	jae    6d <mbh-0x2fff93>
   8:	63 6f 73             	arpl   %bp,0x73(%edi)
   b:	2d 6e 67 2f 74       	sub    $0x742f676e,%eax
  10:	70 32                	jo     44 <mbh-0x2fffbc>
  12:	00 2e                	add    %ch,(%esi)
  14:	2e 2f                	cs das 
  16:	6b 65 72 6e          	imul   $0x6e,0x72(%ebp),%esp
  1a:	65 6c                	gs insb (%dx),%es:(%edi)
  1c:	2f                   	das    
  1d:	63 6f 72             	arpl   %bp,0x72(%edi)
  20:	65 00 65 6e          	add    %ah,%gs:0x6e(%ebp)
  24:	74 72                	je     98 <mbh-0x2fff68>
  26:	79 2e                	jns    56 <mbh-0x2fffaa>
  28:	73 00                	jae    2a <mbh-0x2fffd6>
  2a:	2e 2e 2f             	cs cs das 
  2d:	6b 65 72 6e          	imul   $0x6e,0x72(%ebp),%esp
  31:	65 6c                	gs insb (%dx),%es:(%edi)
  33:	2f                   	das    
  34:	63 6f 72             	arpl   %bp,0x72(%edi)
  37:	65 2f                	gs das 
  39:	73 74                	jae    af <mbh-0x2fff51>
  3b:	61                   	popa   
  3c:	72 74                	jb     b2 <mbh-0x2fff4e>
  3e:	2e 63 00             	arpl   %ax,%cs:(%eax)
  41:	2e 2e 2f             	cs cs das 
  44:	6b 65 72 6e          	imul   $0x6e,0x72(%ebp),%esp
  48:	65 6c                	gs insb (%dx),%es:(%edi)
  4a:	2f                   	das    
  4b:	69 6e 63 6c 75 64 65 	imul   $0x6564756c,0x63(%esi),%ebp
  52:	00 74 79 70          	add    %dh,0x70(%ecx,%edi,2)
  56:	65 73 2e             	gs jae 87 <mbh-0x2fff79>
  59:	68 00 67 72 75       	push   $0x75726700
  5e:	62 5f 6d             	bound  %ebx,0x6d(%edi)
  61:	62 69 2e             	bound  %ebp,0x2e(%ecx)
  64:	68 00 69 6e 66       	push   $0x666e6900
  69:	6f                   	outsl  %ds:(%esi),(%dx)
  6a:	2e 68 00 69 6e 74    	cs push $0x746e6900
  70:	72 2e                	jb     a0 <mbh-0x2fff60>
  72:	68 00 75 61 72       	push   $0x72617500
  77:	74 2e                	je     a7 <mbh-0x2fff59>
  79:	68 00 70 69 63       	push   $0x63697000
  7e:	2e 68 00 70 72 69    	cs push $0x69727000
  84:	6e                   	outsb  %ds:(%esi),(%dx)
  85:	74 2e                	je     b5 <mbh-0x2fff4b>
  87:	68 00 73 74 61       	push   $0x61747300
  8c:	72 74                	jb     102 <mbh-0x2ffefe>
  8e:	2e 68 00 2e 2e 2f    	cs push $0x2f2e2e00
  94:	6b 65 72 6e          	imul   $0x6e,0x72(%ebp),%esp
  98:	65 6c                	gs insb (%dx),%es:(%edi)
  9a:	2f                   	das    
  9b:	63 6f 72             	arpl   %bp,0x72(%edi)
  9e:	65 2f                	gs das 
  a0:	70 72                	jo     114 <mbh-0x2ffeec>
  a2:	69 6e 74 2e 63 00 73 	imul   $0x7300632e,0x74(%esi),%ebp
  a9:	74 72                	je     11d <mbh-0x2ffee3>
  ab:	69 6e 67 2e 68 00 2e 	imul   $0x2e00682e,0x67(%esi),%ebp
  b2:	2e 2f                	cs das 
  b4:	6b 65 72 6e          	imul   $0x6e,0x72(%ebp),%esp
  b8:	65 6c                	gs insb (%dx),%es:(%edi)
  ba:	2f                   	das    
  bb:	63 6f 72             	arpl   %bp,0x72(%edi)
  be:	65 2f                	gs das 
  c0:	75 61                	jne    123 <mbh-0x2ffedd>
  c2:	72 74                	jb     138 <mbh-0x2ffec8>
  c4:	2e 63 00             	arpl   %ax,%cs:(%eax)
  c7:	2e 2e 2f             	cs cs das 
  ca:	6b 65 72 6e          	imul   $0x6e,0x72(%ebp),%esp
  ce:	65 6c                	gs insb (%dx),%es:(%edi)
  d0:	2f                   	das    
  d1:	63 6f 72             	arpl   %bp,0x72(%edi)
  d4:	65 2f                	gs das 
  d6:	70 69                	jo     141 <mbh-0x2ffebf>
  d8:	63 2e                	arpl   %bp,(%esi)
  da:	63 00                	arpl   %ax,(%eax)
  dc:	2e 2e 2f             	cs cs das 
  df:	6b 65 72 6e          	imul   $0x6e,0x72(%ebp),%esp
  e3:	65 6c                	gs insb (%dx),%es:(%edi)
  e5:	2f                   	das    
  e6:	63 6f 72             	arpl   %bp,0x72(%edi)
  e9:	65 2f                	gs das 
  eb:	69 6e 74 72 2e 63 00 	imul   $0x632e72,0x74(%esi),%ebp
  f2:	67 70 72             	addr16 jo 167 <mbh-0x2ffe99>
  f5:	2e 68 00 65 78 63    	cs push $0x63786500
  fb:	70 2e                	jo     12b <mbh-0x2ffed5>
  fd:	68 00 69 64 74       	push   $0x74646900
 102:	2e 73 00             	jae,pn 105 <mbh-0x2ffefb>
 105:	2e 2e 2f             	cs cs das 
 108:	6b 65 72 6e          	imul   $0x6e,0x72(%ebp),%esp
 10c:	65 6c                	gs insb (%dx),%es:(%edi)
 10e:	2f                   	das    
 10f:	63 6f 72             	arpl   %bp,0x72(%edi)
 112:	65 2f                	gs das 
 114:	65 78 63             	gs js  17a <mbh-0x2ffe86>
 117:	70 2e                	jo     147 <mbh-0x2ffeb9>
 119:	63 00                	arpl   %ax,(%eax)
 11b:	64 65 62 75 67       	fs bound %esi,%gs:0x67(%ebp)
 120:	2e 68 00 2e 2e 2f    	cs push $0x2f2e2e00
 126:	6b 65 72 6e          	imul   $0x6e,0x72(%ebp),%esp
 12a:	65 6c                	gs insb (%dx),%es:(%edi)
 12c:	2f                   	das    
 12d:	63 6f 72             	arpl   %bp,0x72(%edi)
 130:	65 2f                	gs das 
 132:	73 74                	jae    1a8 <mbh-0x2ffe58>
 134:	61                   	popa   
 135:	63 6b 2e             	arpl   %bp,0x2e(%ebx)
 138:	63 00                	arpl   %ax,(%eax)
 13a:	74 70                	je     1ac <mbh-0x2ffe54>
 13c:	2e 63 00             	arpl   %ax,%cs:(%eax)

Déassemblage de la section .debug_info :

00000000 <.debug_info>:
       0:	20 00                	and    %al,(%eax)
       2:	00 00                	add    %al,(%eax)
       4:	05 00 01 04 00       	add    $0x40100,%eax
       9:	00 00                	add    %al,(%eax)
       b:	00 01                	add    %al,(%ecx)
       d:	00 00                	add    %al,(%eax)
       f:	00 00                	add    %al,(%eax)
      11:	10 30                	adc    %dh,(%eax)
      13:	30 00                	xor    %al,(%eax)
      15:	13 00                	adc    (%eax),%eax
      17:	00 00                	add    %al,(%eax)
      19:	00 17                	add    %dl,(%edi)
      1b:	00 00                	add    %al,(%eax)
      1d:	00 2a                	add    %ch,(%edx)
      1f:	00 00                	add    %al,(%eax)
      21:	00 01                	add    %al,(%ecx)
      23:	80 71 04 00          	xorb   $0x0,0x4(%ecx)
      27:	00 05 00 01 04 14    	add    %al,0x14040100
      2d:	00 00                	add    %al,(%eax)
      2f:	00 10                	add    %dl,(%eax)
      31:	18 04 00             	sbb    %al,(%eax,%eax,1)
      34:	00 1d 2a 00 00 00    	add    %bl,0x2a
      3a:	00 00                	add    %al,(%eax)
      3c:	00 00                	add    %al,(%eax)
      3e:	23 30                	and    (%eax),%esi
      40:	30 00                	xor    %al,(%eax)
      42:	4a                   	dec    %edx
      43:	00 00                	add    %al,(%eax)
      45:	00 50 00             	add    %dl,0x0(%eax)
      48:	00 00                	add    %al,(%eax)
      4a:	03 01                	add    (%ecx),%eax
      4c:	08 c9                	or     %cl,%cl
      4e:	01 00                	add    %eax,(%eax)
      50:	00 03                	add    %al,(%ebx)
      52:	02 07                	add    (%edi),%al
      54:	6b 02 00             	imul   $0x0,(%edx),%eax
      57:	00 02                	add    %al,(%edx)
      59:	92                   	xchg   %eax,%edx
      5a:	00 00                	add    %al,(%eax)
      5c:	00 02                	add    %al,(%edx)
      5e:	1c 20                	sbb    $0x20,%al
      60:	4a                   	dec    %edx
      61:	00 00                	add    %al,(%eax)
      63:	00 06                	add    %al,(%esi)
      65:	34 00                	xor    $0x0,%al
      67:	00 00                	add    %al,(%eax)
      69:	09 40 00             	or     %eax,0x0(%eax)
      6c:	00 00                	add    %al,(%eax)
      6e:	03 04 07             	add    (%edi,%eax,1),%eax
      71:	0d 02 00 00 03       	or     $0x3000002,%eax
      76:	08 07                	or     %al,(%edi)
      78:	03 02                	add    (%edx),%eax
      7a:	00 00                	add    %al,(%eax)
      7c:	03 01                	add    (%ecx),%eax
      7e:	06                   	push   %es
      7f:	cb                   	lret   
      80:	01 00                	add    %eax,(%eax)
      82:	00 03                	add    %al,(%ebx)
      84:	02 05 9b 00 00 00    	add    0x9b,%al
      8a:	11 04 05 69 6e 74 00 	adc    %eax,0x746e69(,%eax,1)
      91:	03 08                	add    (%eax),%ecx
      93:	05 58 01 00 00       	add    $0x158,%eax
      98:	03 01                	add    (%ecx),%eax
      9a:	06                   	push   %es
      9b:	d2 01                	rolb   %cl,(%ecx)
      9d:	00 00                	add    %al,(%eax)
      9f:	06                   	push   %es
      a0:	74 00                	je     a2 <mbh-0x2fff5e>
      a2:	00 00                	add    %al,(%eax)
      a4:	02 a5 00 00 00 02    	add    0x2000000(%ebp),%ah
      aa:	25 20 8c 00 00       	and    $0x8c20,%eax
      af:	00 03                	add    %al,(%ebx)
      b1:	04 07                	add    $0x7,%al
      b3:	08 02                	or     %al,(%edx)
      b5:	00 00                	add    %al,(%eax)
      b7:	02 da                	add    %dl,%bl
      b9:	03 00                	add    (%eax),%eax
      bb:	00 03                	add    %al,(%ebx)
      bd:	60                   	pusha  
      be:	21 26                	and    %esp,(%esi)
      c0:	00 00                	add    %al,(%eax)
      c2:	00 02                	add    %al,(%edx)
      c4:	ff 00                	incl   (%eax)
      c6:	00 00                	add    %al,(%eax)
      c8:	03 61 21             	add    0x21(%ecx),%esp
      cb:	2d 00 00 00 02       	sub    $0x2000000,%eax
      d0:	88 00                	mov    %al,(%eax)
      d2:	00 00                	add    %al,(%eax)
      d4:	03 62 21             	add    0x21(%edx),%esp
      d7:	4a                   	dec    %edx
      d8:	00 00                	add    %al,(%eax)
      da:	00 02                	add    %al,(%edx)
      dc:	7e 02                	jle    e0 <mbh-0x2fff20>
      de:	00 00                	add    %al,(%eax)
      e0:	03 63 21             	add    0x21(%ebx),%esp
      e3:	51                   	push   %ecx
      e4:	00 00                	add    %al,(%eax)
      e6:	00 05 b3 03 00 00    	add    %al,0x3b3
      ec:	10 03                	adc    %al,(%ebx)
      ee:	7f 08                	jg     f8 <mbh-0x2fff08>
      f0:	01 01                	add    %eax,(%ecx)
      f2:	00 00                	add    %al,(%eax)
      f4:	01 2c 03             	add    %ebp,(%ebx,%eax,1)
      f7:	00 00                	add    %al,(%eax)
      f9:	81 16 ab 00 00 00    	adcl   $0xab,(%esi)
      ff:	00 01                	add    %al,(%ecx)
     101:	12 01                	adc    (%ecx),%al
     103:	00 00                	add    %al,(%eax)
     105:	82 16 ab             	adcb   $0xab,(%esi)
     108:	00 00                	add    %al,(%eax)
     10a:	00 04 01             	add    %al,(%ecx,%eax,1)
     10d:	e6 05                	out    %al,$0x5
     10f:	00 00                	add    %al,(%eax)
     111:	83 16 ab             	adcl   $0xffffffab,(%esi)
     114:	00 00                	add    %al,(%eax)
     116:	00 08                	add    %cl,(%eax)
     118:	01 0f                	add    %ecx,(%edi)
     11a:	04 00                	add    $0x0,%al
     11c:	00 84 16 ab 00 00 00 	add    %al,0xab(%esi,%edx,1)
     123:	0c 00                	or     $0x0,%al
     125:	02 fc                	add    %ah,%bh
     127:	02 00                	add    (%eax),%al
     129:	00 03                	add    %al,(%ebx)
     12b:	86 2c c3             	xchg   %ch,(%ebx,%eax,8)
     12e:	00 00                	add    %al,(%eax)
     130:	00 05 b6 02 00 00    	add    %al,0x2b6
     136:	10 03                	adc    %al,(%ebx)
     138:	89 08                	mov    %ecx,(%eax)
     13a:	4c                   	dec    %esp
     13b:	01 00                	add    %eax,(%eax)
     13d:	00 07                	add    %al,(%edi)
     13f:	6e                   	outsb  %ds:(%esi),(%dx)
     140:	75 6d                	jne    1af <mbh-0x2ffe51>
     142:	00 03                	add    %al,(%ebx)
     144:	8b 16                	mov    (%esi),%edx
     146:	ab                   	stos   %eax,%es:(%edi)
     147:	00 00                	add    %al,(%eax)
     149:	00 00                	add    %al,(%eax)
     14b:	01 49 03             	add    %ecx,0x3(%ecx)
     14e:	00 00                	add    %al,(%eax)
     150:	8c 16                	mov    %ss,(%esi)
     152:	ab                   	stos   %eax,%es:(%edi)
     153:	00 00                	add    %al,(%eax)
     155:	00 04 01             	add    %al,(%ecx,%eax,1)
     158:	e6 05                	out    %al,$0x5
     15a:	00 00                	add    %al,(%eax)
     15c:	8d 16                	lea    (%esi),%edx
     15e:	ab                   	stos   %eax,%es:(%edi)
     15f:	00 00                	add    %al,(%eax)
     161:	00 08                	add    %cl,(%eax)
     163:	01 48 01             	add    %ecx,0x1(%eax)
     166:	00 00                	add    %al,(%eax)
     168:	8e 16                	mov    (%esi),%ss
     16a:	ab                   	stos   %eax,%es:(%edi)
     16b:	00 00                	add    %al,(%eax)
     16d:	00 0c 00             	add    %cl,(%eax,%eax,1)
     170:	02 23                	add    (%ebx),%ah
     172:	01 00                	add    %eax,(%eax)
     174:	00 03                	add    %al,(%ebx)
     176:	90                   	nop
     177:	33 0d 01 00 00 0a    	xor    0xa000001,%ecx
     17d:	10 a5 76 01 00 00    	adc    %ah,0x176(%ebp)
     183:	0b ec                	or     %esp,%ebp
     185:	00 00                	add    %al,(%eax)
     187:	00 a7 23 01 01 00    	add    %ah,0x10123(%edi)
     18d:	00 0b                	add    %cl,(%ebx)
     18f:	e8 01 00 00 a8       	call   a8000195 <__kernel_end__+0xa7cfab95>
     194:	2a 4c 01 00          	sub    0x0(%ecx,%eax,1),%cl
     198:	00 00                	add    %al,(%eax)
     19a:	0c 08                	or     $0x8,%al
     19c:	cf                   	iret   
     19d:	96                   	xchg   %eax,%esi
     19e:	01 00                	add    %eax,(%eax)
     1a0:	00 01                	add    %al,(%ecx)
     1a2:	d2 05 00 00 d1 1a    	rolb   %cl,0x1ad10000
     1a8:	ab                   	stos   %eax,%es:(%edi)
     1a9:	00 00                	add    %al,(%eax)
     1ab:	00 00                	add    %al,(%eax)
     1ad:	01 6c 01 00          	add    %ebp,0x0(%ecx,%eax,1)
     1b1:	00 d2                	add    %dl,%dl
     1b3:	1a 9f 00 00 00 04    	sbb    0x4000000(%edi),%bl
     1b9:	00 0c 06             	add    %cl,(%esi,%eax,1)
     1bc:	d4 e6                	aam    $0xe6
     1be:	01 00                	add    %eax,(%eax)
     1c0:	00 01                	add    %al,(%ecx)
     1c2:	ac                   	lods   %ds:(%esi),%al
     1c3:	00 00                	add    %al,(%eax)
     1c5:	00 d6                	add    %dl,%dh
     1c7:	19 93 00 00 00 00    	sbb    %edx,0x0(%ebx)
     1cd:	01 34 03             	add    %esi,(%ebx,%eax,1)
     1d0:	00 00                	add    %al,(%eax)
     1d2:	d7                   	xlat   %ds:(%ebx)
     1d3:	19 93 00 00 00 01    	sbb    %edx,0x1000000(%ebx)
     1d9:	01 38                	add    %edi,(%eax)
     1db:	02 00                	add    (%eax),%al
     1dd:	00 d8                	add    %bl,%al
     1df:	19 93 00 00 00 02    	sbb    %edx,0x2000000(%ebx)
     1e5:	01 73 03             	add    %esi,0x3(%ebx)
     1e8:	00 00                	add    %al,(%eax)
     1ea:	d9 19                	fstps  (%ecx)
     1ec:	93                   	xchg   %eax,%ebx
     1ed:	00 00                	add    %al,(%eax)
     1ef:	00 03                	add    %al,(%ebx)
     1f1:	01 8b 01 00 00 da    	add    %ecx,-0x25ffffff(%ebx)
     1f7:	19 93 00 00 00 04    	sbb    %edx,0x4000000(%ebx)
     1fd:	01 40 00             	add    %eax,0x0(%eax)
     200:	00 00                	add    %al,(%eax)
     202:	db 19                	fistpl (%ecx)
     204:	93                   	xchg   %eax,%ebx
     205:	00 00                	add    %al,(%eax)
     207:	00 05 00 0a 08 cd    	add    %al,0xcd080a00
     20d:	f8                   	clc    
     20e:	01 00                	add    %eax,(%eax)
     210:	00 0d 76 01 00 00    	add    %cl,0x176
     216:	0d 96 01 00 00       	or     $0x196,%eax
     21b:	00 05 a7 02 00 00    	add    %al,0x2a7
     221:	78 03                	js     226 <mbh-0x2ffdda>
     223:	92                   	xchg   %eax,%edx
     224:	08 4f 03             	or     %cl,0x3(%edi)
     227:	00 00                	add    %al,(%eax)
     229:	01 3c 0b             	add    %edi,(%ebx,%ecx,1)
     22c:	00 00                	add    %al,(%eax)
     22e:	95                   	xchg   %eax,%ebp
     22f:	16                   	push   %ss
     230:	ab                   	stos   %eax,%es:(%edi)
     231:	00 00                	add    %al,(%eax)
     233:	00 00                	add    %al,(%eax)
     235:	01 f0                	add    %esi,%eax
     237:	01 00                	add    %eax,(%eax)
     239:	00 98 16 ab 00 00    	add    %bl,0xab16(%eax)
     23f:	00 04 01             	add    %al,(%ecx,%eax,1)
     242:	5c                   	pop    %esp
     243:	03 00                	add    (%eax),%eax
     245:	00 99 16 ab 00 00    	add    %bl,0xab16(%ecx)
     24b:	00 08                	add    %cl,(%eax)
     24d:	01 9b 02 00 00 9c    	add    %ebx,-0x63fffffe(%ebx)
     253:	16                   	push   %ss
     254:	ab                   	stos   %eax,%es:(%edi)
     255:	00 00                	add    %al,(%eax)
     257:	00 0c 01             	add    %cl,(%ecx,%eax,1)
     25a:	de 00                	fiadds (%eax)
     25c:	00 00                	add    %al,(%eax)
     25e:	9f                   	lahf   
     25f:	16                   	push   %ss
     260:	ab                   	stos   %eax,%es:(%edi)
     261:	00 00                	add    %al,(%eax)
     263:	00 10                	add    %dl,(%eax)
     265:	01 cf                	add    %ecx,%edi
     267:	03 00                	add    (%eax),%eax
     269:	00 a2 16 ab 00 00    	add    %ah,0xab16(%edx)
     26f:	00 14 01             	add    %dl,(%ecx,%eax,1)
     272:	f5                   	cmc    
     273:	00 00                	add    %al,(%eax)
     275:	00 a3 16 ab 00 00    	add    %ah,0xab16(%ebx)
     27b:	00 18                	add    %bl,(%eax)
     27d:	07                   	pop    %es
     27e:	75 00                	jne    280 <mbh-0x2ffd80>
     280:	03 a9 05 58 01 00    	add    0x15805(%ecx),%ebp
     286:	00 1c 01             	add    %bl,(%ecx,%eax,1)
     289:	2c 02                	sub    $0x2,%al
     28b:	00 00                	add    %al,(%eax)
     28d:	ac                   	lods   %ds:(%esi),%al
     28e:	16                   	push   %ss
     28f:	ab                   	stos   %eax,%es:(%edi)
     290:	00 00                	add    %al,(%eax)
     292:	00 2c 01             	add    %ch,(%ecx,%eax,1)
     295:	5b                   	pop    %ebx
     296:	00 00                	add    %al,(%eax)
     298:	00 ad 16 ab 00 00    	add    %ch,0xab16(%ebp)
     29e:	00 30                	add    %dh,(%eax)
     2a0:	01 4e 03             	add    %ecx,0x3(%esi)
     2a3:	00 00                	add    %al,(%eax)
     2a5:	b0 16                	mov    $0x16,%al
     2a7:	ab                   	stos   %eax,%es:(%edi)
     2a8:	00 00                	add    %al,(%eax)
     2aa:	00 34 01             	add    %dh,(%ecx,%eax,1)
     2ad:	d2 00                	rolb   %cl,(%eax)
     2af:	00 00                	add    %al,(%eax)
     2b1:	b1 16                	mov    $0x16,%cl
     2b3:	ab                   	stos   %eax,%es:(%edi)
     2b4:	00 00                	add    %al,(%eax)
     2b6:	00 38                	add    %bh,(%eax)
     2b8:	01 66 03             	add    %esp,0x3(%esi)
     2bb:	00 00                	add    %al,(%eax)
     2bd:	b4 16                	mov    $0x16,%ah
     2bf:	ab                   	stos   %eax,%es:(%edi)
     2c0:	00 00                	add    %al,(%eax)
     2c2:	00 3c 01             	add    %bh,(%ecx,%eax,1)
     2c5:	ec                   	in     (%dx),%al
     2c6:	03 00                	add    (%eax),%eax
     2c8:	00 b7 16 ab 00 00    	add    %dh,0xab16(%edi)
     2ce:	00 40 01             	add    %al,0x1(%eax)
     2d1:	4e                   	dec    %esi
     2d2:	01 00                	add    %eax,(%eax)
     2d4:	00 ba 16 ab 00 00    	add    %bh,0xab16(%edx)
     2da:	00 44 01 d7          	add    %al,-0x29(%ecx,%eax,1)
     2de:	01 00                	add    %eax,(%eax)
     2e0:	00 bd 16 ab 00 00    	add    %bh,0xab16(%ebp)
     2e6:	00 48 01             	add    %cl,0x1(%eax)
     2e9:	bb 01 00 00 be       	mov    $0xbe000001,%ebx
     2ee:	16                   	push   %ss
     2ef:	ab                   	stos   %eax,%es:(%edi)
     2f0:	00 00                	add    %al,(%eax)
     2f2:	00 4c 01 fa          	add    %cl,-0x6(%ecx,%eax,1)
     2f6:	01 00                	add    %eax,(%eax)
     2f8:	00 bf 16 9f 00 00    	add    %bh,0x9f16(%edi)
     2fe:	00 50 01             	add    %dl,0x1(%eax)
     301:	fd                   	std    
     302:	03 00                	add    (%eax),%eax
     304:	00 c0                	add    %al,%al
     306:	16                   	push   %ss
     307:	9f                   	lahf   
     308:	00 00                	add    %al,(%eax)
     30a:	00 52 01             	add    %dl,0x1(%edx)
     30d:	76 00                	jbe    30f <mbh-0x2ffcf1>
     30f:	00 00                	add    %al,(%eax)
     311:	c1 16 9f             	rcll   $0x9f,(%esi)
     314:	00 00                	add    %al,(%eax)
     316:	00 54 01 1a          	add    %dl,0x1a(%ecx,%eax,1)
     31a:	03 00                	add    (%eax),%eax
     31c:	00 c2                	add    %al,%dl
     31e:	16                   	push   %ss
     31f:	9f                   	lahf   
     320:	00 00                	add    %al,(%eax)
     322:	00 56 01             	add    %dl,0x1(%esi)
     325:	65 00 00             	add    %al,%gs:(%eax)
     328:	00 c4                	add    %al,%ah
     32a:	16                   	push   %ss
     32b:	b7 00                	mov    $0x0,%bh
     32d:	00 00                	add    %al,(%eax)
     32f:	58                   	pop    %eax
     330:	01 d9                	add    %ebx,%ecx
     332:	02 00                	add    (%eax),%al
     334:	00 c5                	add    %al,%ch
     336:	16                   	push   %ss
     337:	ab                   	stos   %eax,%es:(%edi)
     338:	00 00                	add    %al,(%eax)
     33a:	00 60 01             	add    %ah,0x1(%eax)
     33d:	1a 02                	sbb    (%edx),%al
     33f:	00 00                	add    %al,(%eax)
     341:	c6                   	(bad)  
     342:	16                   	push   %ss
     343:	ab                   	stos   %eax,%es:(%edi)
     344:	00 00                	add    %al,(%eax)
     346:	00 64 01 a0          	add    %ah,-0x60(%ecx,%eax,1)
     34a:	03 00                	add    (%eax),%eax
     34c:	00 c7                	add    %al,%bh
     34e:	16                   	push   %ss
     34f:	ab                   	stos   %eax,%es:(%edi)
     350:	00 00                	add    %al,(%eax)
     352:	00 68 01             	add    %ch,0x1(%eax)
     355:	ab                   	stos   %eax,%es:(%edi)
     356:	01 00                	add    %eax,(%eax)
     358:	00 c8                	add    %cl,%al
     35a:	15 93 00 00 00       	adc    $0x93,%eax
     35f:	6c                   	insb   (%dx),%es:(%edi)
     360:	01 eb                	add    %ebp,%ebx
     362:	02 00                	add    (%eax),%al
     364:	00 cc                	add    %cl,%ah
     366:	15 93 00 00 00       	adc    $0x93,%eax
     36b:	6d                   	insl   (%dx),%es:(%edi)
     36c:	12 e6                	adc    %dh,%ah
     36e:	01 00                	add    %eax,(%eax)
     370:	00 70 00             	add    %dh,0x0(%eax)
     373:	02 8f 03 00 00 03    	add    0x3000003(%edi),%cl
     379:	df 1f                	fistps (%edi)
     37b:	f8                   	clc    
     37c:	01 00                	add    %eax,(%eax)
     37e:	00 02                	add    %al,(%edx)
     380:	66 01 00             	add    %ax,(%eax)
     383:	00 04 08             	add    %al,(%eax,%ecx,1)
     386:	21 4f 03             	and    %ecx,0x3(%edi)
     389:	00 00                	add    %al,(%eax)
     38b:	05 59 02 00 00       	add    $0x259,%eax
     390:	04 05                	add    $0x5,%al
     392:	08 10                	or     %dl,(%eax)
     394:	82 03 00             	addb   $0x0,(%ebx)
     397:	00 07                	add    %al,(%edi)
     399:	6d                   	insl   (%dx),%es:(%edi)
     39a:	62 69 00             	bound  %ebp,0x0(%ecx)
     39d:	05 0a 0b 82 03       	add    $0x3820b0a,%eax
     3a2:	00 00                	add    %al,(%eax)
     3a4:	00 00                	add    %al,(%eax)
     3a6:	08 5b 03             	or     %bl,0x3(%ebx)
     3a9:	00 00                	add    %al,(%eax)
     3ab:	02 99 03 00 00 05    	add    0x5000003(%ecx),%bl
     3b1:	0c 1b                	or     $0x1b,%al
     3b3:	67 03 00             	add    (%bx,%si),%eax
     3b6:	00 13                	add    %dl,(%ebx)
     3b8:	45                   	inc    %ebp
     3b9:	00 00                	add    %al,(%eax)
     3bb:	00 a3 03 00 00 14    	add    %ah,0x14000003(%ebx)
     3c1:	4a                   	dec    %edx
     3c2:	00 00                	add    %al,(%eax)
     3c4:	00 02                	add    %al,(%edx)
     3c6:	00 06                	add    %al,(%esi)
     3c8:	93                   	xchg   %eax,%ebx
     3c9:	03 00                	add    (%eax),%eax
     3cb:	00 09                	add    %cl,(%ecx)
     3cd:	a3 03 00 00 15       	mov    %eax,0x15000003
     3d2:	6d                   	insl   (%dx),%es:(%edi)
     3d3:	62 68 00             	bound  %ebp,0x0(%eax)
     3d6:	01 09                	add    %ecx,(%ecx)
     3d8:	21 a8 03 00 00 04    	and    %ebp,0x4000003(%eax)
     3de:	05 03 00 00 30       	add    $0x30000003,%eax
     3e3:	00 16                	add    %dl,(%esi)
     3e5:	cb                   	lret   
     3e6:	00 00                	add    %al,(%eax)
     3e8:	00 01                	add    %al,(%ecx)
     3ea:	0f                   	(bad)  
     3eb:	0f 87 03 00 00 10    	ja     100003f4 <__kernel_end__+0xfcfadf4>
     3f1:	05 03 e0 49 30       	add    $0x3049e003,%eax
     3f6:	00 17                	add    %dl,(%edi)
     3f8:	cd 00                	int    $0x0
     3fa:	00 00                	add    %al,(%eax)
     3fc:	01 10                	add    %edx,(%eax)
     3fe:	10 e5                	adc    %ah,%ch
     400:	03 00                	add    (%eax),%eax
     402:	00 05 03 60 49 30    	add    %al,0x30496003
     408:	00 08                	add    %cl,(%eax)
     40a:	87 03                	xchg   %eax,(%ebx)
     40c:	00 00                	add    %al,(%eax)
     40e:	18 e6                	sbb    %ah,%dh
     410:	00 00                	add    %al,(%eax)
     412:	00 09                	add    %cl,(%ecx)
     414:	0c 0a                	or     $0xa,%al
     416:	fd                   	std    
     417:	03 00                	add    (%eax),%eax
     419:	00 0e                	add    %cl,(%esi)
     41b:	fd                   	std    
     41c:	03 00                	add    (%eax),%eax
     41e:	00 04 00             	add    %al,(%eax,%eax,1)
     421:	08 7b 00             	or     %bh,0x0(%ebx)
     424:	00 00                	add    %al,(%eax)
     426:	19 74 70 00          	sbb    %esi,0x0(%eax,%esi,2)
     42a:	0a 08                	or     (%eax),%cl
     42c:	0d 0f 04 00 00       	or     $0x40f,%eax
     431:	04 00                	add    $0x0,%al
     433:	1a a2 06 00 00 09    	sbb    0x9000006(%edx),%ah
     439:	0d 0a 80 00 00       	or     $0x800a,%eax
     43e:	00 26                	add    %ah,(%esi)
     440:	04 00                	add    $0x0,%al
     442:	00 0e                	add    %cl,(%esi)
     444:	fd                   	std    
     445:	03 00                	add    (%eax),%eax
     447:	00 04 00             	add    %al,(%eax,%eax,1)
     44a:	1b 91 02 00 00 06    	sbb    0x6000002(%ecx),%edx
     450:	76 06                	jbe    458 <mbh-0x2ffba8>
     452:	34 04                	xor    $0x4,%al
     454:	00 00                	add    %al,(%eax)
     456:	04 00                	add    $0x0,%al
     458:	0f 36                	(bad)  
     45a:	00 00                	add    %al,(%eax)
     45c:	00 07                	add    %al,(%edi)
